
STM32.elf:     file format elf32-littlearm

Sections:
Idx Name          Size      VMA       LMA       File off  Algn
  0 .isr_vector   00000188  08000000  08000000  00010000  2**0
                  CONTENTS, ALLOC, LOAD, READONLY, DATA
  1 .text         0000dff8  08000190  08000190  00010190  2**4
                  CONTENTS, ALLOC, LOAD, READONLY, CODE
  2 .rodata       0000102c  0800e188  0800e188  0001e188  2**3
                  CONTENTS, ALLOC, LOAD, READONLY, DATA
  3 .ARM.extab    00000000  0800f1b4  0800f1b4  000201e8  2**0
                  CONTENTS
  4 .ARM          00000008  0800f1b4  0800f1b4  0001f1b4  2**2
                  CONTENTS, ALLOC, LOAD, READONLY, DATA
  5 .preinit_array 00000000  0800f1bc  0800f1bc  000201e8  2**0
                  CONTENTS, ALLOC, LOAD, DATA
  6 .init_array   00000004  0800f1bc  0800f1bc  0001f1bc  2**2
                  CONTENTS, ALLOC, LOAD, DATA
  7 .fini_array   00000004  0800f1c0  0800f1c0  0001f1c0  2**2
                  CONTENTS, ALLOC, LOAD, DATA
  8 .data         000001e8  20000000  0800f1c4  00020000  2**2
                  CONTENTS, ALLOC, LOAD, DATA
  9 .ccmram       00000000  10000000  10000000  000201e8  2**0
                  CONTENTS
 10 .bss          000061dc  200001e8  200001e8  000201e8  2**3
                  ALLOC
 11 ._user_heap_stack 00000604  200063c4  200063c4  000201e8  2**0
                  ALLOC
 12 .ARM.attributes 00000030  00000000  00000000  000201e8  2**0
                  CONTENTS, READONLY
 13 .comment      00000050  00000000  00000000  00020218  2**0
                  CONTENTS, READONLY
 14 .debug_frame  00001680  00000000  00000000  00020268  2**2
                  CONTENTS, READONLY, DEBUGGING, OCTETS

Disassembly of section .text:

08000190 <__do_global_dtors_aux>:
 8000190:	b510      	push	{r4, lr}
 8000192:	4c05      	ldr	r4, [pc, #20]	; (80001a8 <__do_global_dtors_aux+0x18>)
 8000194:	7823      	ldrb	r3, [r4, #0]
 8000196:	b933      	cbnz	r3, 80001a6 <__do_global_dtors_aux+0x16>
 8000198:	4b04      	ldr	r3, [pc, #16]	; (80001ac <__do_global_dtors_aux+0x1c>)
 800019a:	b113      	cbz	r3, 80001a2 <__do_global_dtors_aux+0x12>
 800019c:	4804      	ldr	r0, [pc, #16]	; (80001b0 <__do_global_dtors_aux+0x20>)
 800019e:	f3af 8000 	nop.w
 80001a2:	2301      	movs	r3, #1
 80001a4:	7023      	strb	r3, [r4, #0]
 80001a6:	bd10      	pop	{r4, pc}
 80001a8:	200001e8 	.word	0x200001e8
 80001ac:	00000000 	.word	0x00000000
 80001b0:	0800e170 	.word	0x0800e170

080001b4 <frame_dummy>:
 80001b4:	b508      	push	{r3, lr}
 80001b6:	4b03      	ldr	r3, [pc, #12]	; (80001c4 <frame_dummy+0x10>)
 80001b8:	b11b      	cbz	r3, 80001c2 <frame_dummy+0xe>
 80001ba:	4903      	ldr	r1, [pc, #12]	; (80001c8 <frame_dummy+0x14>)
 80001bc:	4803      	ldr	r0, [pc, #12]	; (80001cc <frame_dummy+0x18>)
 80001be:	f3af 8000 	nop.w
 80001c2:	bd08      	pop	{r3, pc}
 80001c4:	00000000 	.word	0x00000000
 80001c8:	200001ec 	.word	0x200001ec
 80001cc:	0800e170 	.word	0x0800e170

080001d0 <strlen>:
 80001d0:	4603      	mov	r3, r0
 80001d2:	f813 2b01 	ldrb.w	r2, [r3], #1
 80001d6:	2a00      	cmp	r2, #0
 80001d8:	d1fb      	bne.n	80001d2 <strlen+0x2>
 80001da:	1a18      	subs	r0, r3, r0
 80001dc:	3801      	subs	r0, #1
 80001de:	4770      	bx	lr

080001e0 <memchr>:
 80001e0:	f001 01ff 	and.w	r1, r1, #255	; 0xff
 80001e4:	2a10      	cmp	r2, #16
 80001e6:	db2b      	blt.n	8000240 <memchr+0x60>
 80001e8:	f010 0f07 	tst.w	r0, #7
 80001ec:	d008      	beq.n	8000200 <memchr+0x20>
 80001ee:	f810 3b01 	ldrb.w	r3, [r0], #1
 80001f2:	3a01      	subs	r2, #1
 80001f4:	428b      	cmp	r3, r1
 80001f6:	d02d      	beq.n	8000254 <memchr+0x74>
 80001f8:	f010 0f07 	tst.w	r0, #7
 80001fc:	b342      	cbz	r2, 8000250 <memchr+0x70>
 80001fe:	d1f6      	bne.n	80001ee <memchr+0xe>
 8000200:	b4f0      	push	{r4, r5, r6, r7}
 8000202:	ea41 2101 	orr.w	r1, r1, r1, lsl #8
 8000206:	ea41 4101 	orr.w	r1, r1, r1, lsl #16
 800020a:	f022 0407 	bic.w	r4, r2, #7
 800020e:	f07f 0700 	mvns.w	r7, #0
 8000212:	2300      	movs	r3, #0
 8000214:	e8f0 5602 	ldrd	r5, r6, [r0], #8
 8000218:	3c08      	subs	r4, #8
 800021a:	ea85 0501 	eor.w	r5, r5, r1
 800021e:	ea86 0601 	eor.w	r6, r6, r1
 8000222:	fa85 f547 	uadd8	r5, r5, r7
 8000226:	faa3 f587 	sel	r5, r3, r7
 800022a:	fa86 f647 	uadd8	r6, r6, r7
 800022e:	faa5 f687 	sel	r6, r5, r7
 8000232:	b98e      	cbnz	r6, 8000258 <memchr+0x78>
 8000234:	d1ee      	bne.n	8000214 <memchr+0x34>
 8000236:	bcf0      	pop	{r4, r5, r6, r7}
 8000238:	f001 01ff 	and.w	r1, r1, #255	; 0xff
 800023c:	f002 0207 	and.w	r2, r2, #7
 8000240:	b132      	cbz	r2, 8000250 <memchr+0x70>
 8000242:	f810 3b01 	ldrb.w	r3, [r0], #1
 8000246:	3a01      	subs	r2, #1
 8000248:	ea83 0301 	eor.w	r3, r3, r1
 800024c:	b113      	cbz	r3, 8000254 <memchr+0x74>
 800024e:	d1f8      	bne.n	8000242 <memchr+0x62>
 8000250:	2000      	movs	r0, #0
 8000252:	4770      	bx	lr
 8000254:	3801      	subs	r0, #1
 8000256:	4770      	bx	lr
 8000258:	2d00      	cmp	r5, #0
 800025a:	bf06      	itte	eq
 800025c:	4635      	moveq	r5, r6
 800025e:	3803      	subeq	r0, #3
 8000260:	3807      	subne	r0, #7
 8000262:	f015 0f01 	tst.w	r5, #1
 8000266:	d107      	bne.n	8000278 <memchr+0x98>
 8000268:	3001      	adds	r0, #1
 800026a:	f415 7f80 	tst.w	r5, #256	; 0x100
 800026e:	bf02      	ittt	eq
 8000270:	3001      	addeq	r0, #1
 8000272:	f415 3fc0 	tsteq.w	r5, #98304	; 0x18000
 8000276:	3001      	addeq	r0, #1
 8000278:	bcf0      	pop	{r4, r5, r6, r7}
 800027a:	3801      	subs	r0, #1
 800027c:	4770      	bx	lr
 800027e:	bf00      	nop

08000280 <__aeabi_drsub>:
 8000280:	f081 4100 	eor.w	r1, r1, #2147483648	; 0x80000000
 8000284:	e002      	b.n	800028c <__adddf3>
 8000286:	bf00      	nop

08000288 <__aeabi_dsub>:
 8000288:	f083 4300 	eor.w	r3, r3, #2147483648	; 0x80000000

0800028c <__adddf3>:
 800028c:	b530      	push	{r4, r5, lr}
 800028e:	ea4f 0441 	mov.w	r4, r1, lsl #1
 8000292:	ea4f 0543 	mov.w	r5, r3, lsl #1
 8000296:	ea94 0f05 	teq	r4, r5
 800029a:	bf08      	it	eq
 800029c:	ea90 0f02 	teqeq	r0, r2
 80002a0:	bf1f      	itttt	ne
 80002a2:	ea54 0c00 	orrsne.w	ip, r4, r0
 80002a6:	ea55 0c02 	orrsne.w	ip, r5, r2
 80002aa:	ea7f 5c64 	mvnsne.w	ip, r4, asr #21
 80002ae:	ea7f 5c65 	mvnsne.w	ip, r5, asr #21
 80002b2:	f000 80e2 	beq.w	800047a <__adddf3+0x1ee>
 80002b6:	ea4f 5454 	mov.w	r4, r4, lsr #21
 80002ba:	ebd4 5555 	rsbs	r5, r4, r5, lsr #21
 80002be:	bfb8      	it	lt
 80002c0:	426d      	neglt	r5, r5
 80002c2:	dd0c      	ble.n	80002de <__adddf3+0x52>
 80002c4:	442c      	add	r4, r5
 80002c6:	ea80 0202 	eor.w	r2, r0, r2
 80002ca:	ea81 0303 	eor.w	r3, r1, r3
 80002ce:	ea82 0000 	eor.w	r0, r2, r0
 80002d2:	ea83 0101 	eor.w	r1, r3, r1
 80002d6:	ea80 0202 	eor.w	r2, r0, r2
 80002da:	ea81 0303 	eor.w	r3, r1, r3
 80002de:	2d36      	cmp	r5, #54	; 0x36
 80002e0:	bf88      	it	hi
 80002e2:	bd30      	pophi	{r4, r5, pc}
 80002e4:	f011 4f00 	tst.w	r1, #2147483648	; 0x80000000
 80002e8:	ea4f 3101 	mov.w	r1, r1, lsl #12
 80002ec:	f44f 1c80 	mov.w	ip, #1048576	; 0x100000
 80002f0:	ea4c 3111 	orr.w	r1, ip, r1, lsr #12
 80002f4:	d002      	beq.n	80002fc <__adddf3+0x70>
 80002f6:	4240      	negs	r0, r0
 80002f8:	eb61 0141 	sbc.w	r1, r1, r1, lsl #1
 80002fc:	f013 4f00 	tst.w	r3, #2147483648	; 0x80000000
 8000300:	ea4f 3303 	mov.w	r3, r3, lsl #12
 8000304:	ea4c 3313 	orr.w	r3, ip, r3, lsr #12
 8000308:	d002      	beq.n	8000310 <__adddf3+0x84>
 800030a:	4252      	negs	r2, r2
 800030c:	eb63 0343 	sbc.w	r3, r3, r3, lsl #1
 8000310:	ea94 0f05 	teq	r4, r5
 8000314:	f000 80a7 	beq.w	8000466 <__adddf3+0x1da>
 8000318:	f1a4 0401 	sub.w	r4, r4, #1
 800031c:	f1d5 0e20 	rsbs	lr, r5, #32
 8000320:	db0d      	blt.n	800033e <__adddf3+0xb2>
 8000322:	fa02 fc0e 	lsl.w	ip, r2, lr
 8000326:	fa22 f205 	lsr.w	r2, r2, r5
 800032a:	1880      	adds	r0, r0, r2
 800032c:	f141 0100 	adc.w	r1, r1, #0
 8000330:	fa03 f20e 	lsl.w	r2, r3, lr
 8000334:	1880      	adds	r0, r0, r2
 8000336:	fa43 f305 	asr.w	r3, r3, r5
 800033a:	4159      	adcs	r1, r3
 800033c:	e00e      	b.n	800035c <__adddf3+0xd0>
 800033e:	f1a5 0520 	sub.w	r5, r5, #32
 8000342:	f10e 0e20 	add.w	lr, lr, #32
 8000346:	2a01      	cmp	r2, #1
 8000348:	fa03 fc0e 	lsl.w	ip, r3, lr
 800034c:	bf28      	it	cs
 800034e:	f04c 0c02 	orrcs.w	ip, ip, #2
 8000352:	fa43 f305 	asr.w	r3, r3, r5
 8000356:	18c0      	adds	r0, r0, r3
 8000358:	eb51 71e3 	adcs.w	r1, r1, r3, asr #31
 800035c:	f001 4500 	and.w	r5, r1, #2147483648	; 0x80000000
 8000360:	d507      	bpl.n	8000372 <__adddf3+0xe6>
 8000362:	f04f 0e00 	mov.w	lr, #0
 8000366:	f1dc 0c00 	rsbs	ip, ip, #0
 800036a:	eb7e 0000 	sbcs.w	r0, lr, r0
 800036e:	eb6e 0101 	sbc.w	r1, lr, r1
 8000372:	f5b1 1f80 	cmp.w	r1, #1048576	; 0x100000
 8000376:	d31b      	bcc.n	80003b0 <__adddf3+0x124>
 8000378:	f5b1 1f00 	cmp.w	r1, #2097152	; 0x200000
 800037c:	d30c      	bcc.n	8000398 <__adddf3+0x10c>
 800037e:	0849      	lsrs	r1, r1, #1
 8000380:	ea5f 0030 	movs.w	r0, r0, rrx
 8000384:	ea4f 0c3c 	mov.w	ip, ip, rrx
 8000388:	f104 0401 	add.w	r4, r4, #1
 800038c:	ea4f 5244 	mov.w	r2, r4, lsl #21
 8000390:	f512 0f80 	cmn.w	r2, #4194304	; 0x400000
 8000394:	f080 809a 	bcs.w	80004cc <__adddf3+0x240>
 8000398:	f1bc 4f00 	cmp.w	ip, #2147483648	; 0x80000000
 800039c:	bf08      	it	eq
 800039e:	ea5f 0c50 	movseq.w	ip, r0, lsr #1
 80003a2:	f150 0000 	adcs.w	r0, r0, #0
 80003a6:	eb41 5104 	adc.w	r1, r1, r4, lsl #20
 80003aa:	ea41 0105 	orr.w	r1, r1, r5
 80003ae:	bd30      	pop	{r4, r5, pc}
 80003b0:	ea5f 0c4c 	movs.w	ip, ip, lsl #1
 80003b4:	4140      	adcs	r0, r0
 80003b6:	eb41 0101 	adc.w	r1, r1, r1
 80003ba:	3c01      	subs	r4, #1
 80003bc:	bf28      	it	cs
 80003be:	f5b1 1f80 	cmpcs.w	r1, #1048576	; 0x100000
 80003c2:	d2e9      	bcs.n	8000398 <__adddf3+0x10c>
 80003c4:	f091 0f00 	teq	r1, #0
 80003c8:	bf04      	itt	eq
 80003ca:	4601      	moveq	r1, r0
 80003cc:	2000      	moveq	r0, #0
 80003ce:	fab1 f381 	clz	r3, r1
 80003d2:	bf08      	it	eq
 80003d4:	3320      	addeq	r3, #32
 80003d6:	f1a3 030b 	sub.w	r3, r3, #11
 80003da:	f1b3 0220 	subs.w	r2, r3, #32
 80003de:	da0c      	bge.n	80003fa <__adddf3+0x16e>
 80003e0:	320c      	adds	r2, #12
 80003e2:	dd08      	ble.n	80003f6 <__adddf3+0x16a>
 80003e4:	f102 0c14 	add.w	ip, r2, #20
 80003e8:	f1c2 020c 	rsb	r2, r2, #12
 80003ec:	fa01 f00c 	lsl.w	r0, r1, ip
 80003f0:	fa21 f102 	lsr.w	r1, r1, r2
 80003f4:	e00c      	b.n	8000410 <__adddf3+0x184>
 80003f6:	f102 0214 	add.w	r2, r2, #20
 80003fa:	bfd8      	it	le
 80003fc:	f1c2 0c20 	rsble	ip, r2, #32
 8000400:	fa01 f102 	lsl.w	r1, r1, r2
 8000404:	fa20 fc0c 	lsr.w	ip, r0, ip
 8000408:	bfdc      	itt	le
 800040a:	ea41 010c 	orrle.w	r1, r1, ip
 800040e:	4090      	lslle	r0, r2
 8000410:	1ae4      	subs	r4, r4, r3
 8000412:	bfa2      	ittt	ge
 8000414:	eb01 5104 	addge.w	r1, r1, r4, lsl #20
 8000418:	4329      	orrge	r1, r5
 800041a:	bd30      	popge	{r4, r5, pc}
 800041c:	ea6f 0404 	mvn.w	r4, r4
 8000420:	3c1f      	subs	r4, #31
 8000422:	da1c      	bge.n	800045e <__adddf3+0x1d2>
 8000424:	340c      	adds	r4, #12
 8000426:	dc0e      	bgt.n	8000446 <__adddf3+0x1ba>
 8000428:	f104 0414 	add.w	r4, r4, #20
 800042c:	f1c4 0220 	rsb	r2, r4, #32
 8000430:	fa20 f004 	lsr.w	r0, r0, r4
 8000434:	fa01 f302 	lsl.w	r3, r1, r2
 8000438:	ea40 0003 	orr.w	r0, r0, r3
 800043c:	fa21 f304 	lsr.w	r3, r1, r4
 8000440:	ea45 0103 	orr.w	r1, r5, r3
 8000444:	bd30      	pop	{r4, r5, pc}
 8000446:	f1c4 040c 	rsb	r4, r4, #12
 800044a:	f1c4 0220 	rsb	r2, r4, #32
 800044e:	fa20 f002 	lsr.w	r0, r0, r2
 8000452:	fa01 f304 	lsl.w	r3, r1, r4
 8000456:	ea40 0003 	orr.w	r0, r0, r3
 800045a:	4629      	mov	r1, r5
 800045c:	bd30      	pop	{r4, r5, pc}
 800045e:	fa21 f004 	lsr.w	r0, r1, r4
 8000462:	4629      	mov	r1, r5
 8000464:	bd30      	pop	{r4, r5, pc}
 8000466:	f094 0f00 	teq	r4, #0
 800046a:	f483 1380 	eor.w	r3, r3, #1048576	; 0x100000
 800046e:	bf06      	itte	eq
 8000470:	f481 1180 	eoreq.w	r1, r1, #1048576	; 0x100000
 8000474:	3401      	addeq	r4, #1
 8000476:	3d01      	subne	r5, #1
 8000478:	e74e      	b.n	8000318 <__adddf3+0x8c>
 800047a:	ea7f 5c64 	mvns.w	ip, r4, asr #21
 800047e:	bf18      	it	ne
 8000480:	ea7f 5c65 	mvnsne.w	ip, r5, asr #21
 8000484:	d029      	beq.n	80004da <__adddf3+0x24e>
 8000486:	ea94 0f05 	teq	r4, r5
 800048a:	bf08      	it	eq
 800048c:	ea90 0f02 	teqeq	r0, r2
 8000490:	d005      	beq.n	800049e <__adddf3+0x212>
 8000492:	ea54 0c00 	orrs.w	ip, r4, r0
 8000496:	bf04      	itt	eq
 8000498:	4619      	moveq	r1, r3
 800049a:	4610      	moveq	r0, r2
 800049c:	bd30      	pop	{r4, r5, pc}
 800049e:	ea91 0f03 	teq	r1, r3
 80004a2:	bf1e      	ittt	ne
 80004a4:	2100      	movne	r1, #0
 80004a6:	2000      	movne	r0, #0
 80004a8:	bd30      	popne	{r4, r5, pc}
 80004aa:	ea5f 5c54 	movs.w	ip, r4, lsr #21
 80004ae:	d105      	bne.n	80004bc <__adddf3+0x230>
 80004b0:	0040      	lsls	r0, r0, #1
 80004b2:	4149      	adcs	r1, r1
 80004b4:	bf28      	it	cs
 80004b6:	f041 4100 	orrcs.w	r1, r1, #2147483648	; 0x80000000
 80004ba:	bd30      	pop	{r4, r5, pc}
 80004bc:	f514 0480 	adds.w	r4, r4, #4194304	; 0x400000
 80004c0:	bf3c      	itt	cc
 80004c2:	f501 1180 	addcc.w	r1, r1, #1048576	; 0x100000
 80004c6:	bd30      	popcc	{r4, r5, pc}
 80004c8:	f001 4500 	and.w	r5, r1, #2147483648	; 0x80000000
 80004cc:	f045 41fe 	orr.w	r1, r5, #2130706432	; 0x7f000000
 80004d0:	f441 0170 	orr.w	r1, r1, #15728640	; 0xf00000
 80004d4:	f04f 0000 	mov.w	r0, #0
 80004d8:	bd30      	pop	{r4, r5, pc}
 80004da:	ea7f 5c64 	mvns.w	ip, r4, asr #21
 80004de:	bf1a      	itte	ne
 80004e0:	4619      	movne	r1, r3
 80004e2:	4610      	movne	r0, r2
 80004e4:	ea7f 5c65 	mvnseq.w	ip, r5, asr #21
 80004e8:	bf1c      	itt	ne
 80004ea:	460b      	movne	r3, r1
 80004ec:	4602      	movne	r2, r0
 80004ee:	ea50 3401 	orrs.w	r4, r0, r1, lsl #12
 80004f2:	bf06      	itte	eq
 80004f4:	ea52 3503 	orrseq.w	r5, r2, r3, lsl #12
 80004f8:	ea91 0f03 	teqeq	r1, r3
 80004fc:	f441 2100 	orrne.w	r1, r1, #524288	; 0x80000
 8000500:	bd30      	pop	{r4, r5, pc}
 8000502:	bf00      	nop

08000504 <__aeabi_ui2d>:
 8000504:	f090 0f00 	teq	r0, #0
 8000508:	bf04      	itt	eq
 800050a:	2100      	moveq	r1, #0
 800050c:	4770      	bxeq	lr
 800050e:	b530      	push	{r4, r5, lr}
 8000510:	f44f 6480 	mov.w	r4, #1024	; 0x400
 8000514:	f104 0432 	add.w	r4, r4, #50	; 0x32
 8000518:	f04f 0500 	mov.w	r5, #0
 800051c:	f04f 0100 	mov.w	r1, #0
 8000520:	e750      	b.n	80003c4 <__adddf3+0x138>
 8000522:	bf00      	nop

08000524 <__aeabi_i2d>:
 8000524:	f090 0f00 	teq	r0, #0
 8000528:	bf04      	itt	eq
 800052a:	2100      	moveq	r1, #0
 800052c:	4770      	bxeq	lr
 800052e:	b530      	push	{r4, r5, lr}
 8000530:	f44f 6480 	mov.w	r4, #1024	; 0x400
 8000534:	f104 0432 	add.w	r4, r4, #50	; 0x32
 8000538:	f010 4500 	ands.w	r5, r0, #2147483648	; 0x80000000
 800053c:	bf48      	it	mi
 800053e:	4240      	negmi	r0, r0
 8000540:	f04f 0100 	mov.w	r1, #0
 8000544:	e73e      	b.n	80003c4 <__adddf3+0x138>
 8000546:	bf00      	nop

08000548 <__aeabi_f2d>:
 8000548:	0042      	lsls	r2, r0, #1
 800054a:	ea4f 01e2 	mov.w	r1, r2, asr #3
 800054e:	ea4f 0131 	mov.w	r1, r1, rrx
 8000552:	ea4f 7002 	mov.w	r0, r2, lsl #28
 8000556:	bf1f      	itttt	ne
 8000558:	f012 437f 	andsne.w	r3, r2, #4278190080	; 0xff000000
 800055c:	f093 4f7f 	teqne	r3, #4278190080	; 0xff000000
 8000560:	f081 5160 	eorne.w	r1, r1, #939524096	; 0x38000000
 8000564:	4770      	bxne	lr
 8000566:	f032 427f 	bics.w	r2, r2, #4278190080	; 0xff000000
 800056a:	bf08      	it	eq
 800056c:	4770      	bxeq	lr
 800056e:	f093 4f7f 	teq	r3, #4278190080	; 0xff000000
 8000572:	bf04      	itt	eq
 8000574:	f441 2100 	orreq.w	r1, r1, #524288	; 0x80000
 8000578:	4770      	bxeq	lr
 800057a:	b530      	push	{r4, r5, lr}
 800057c:	f44f 7460 	mov.w	r4, #896	; 0x380
 8000580:	f001 4500 	and.w	r5, r1, #2147483648	; 0x80000000
 8000584:	f021 4100 	bic.w	r1, r1, #2147483648	; 0x80000000
 8000588:	e71c      	b.n	80003c4 <__adddf3+0x138>
 800058a:	bf00      	nop

0800058c <__aeabi_ul2d>:
 800058c:	ea50 0201 	orrs.w	r2, r0, r1
 8000590:	bf08      	it	eq
 8000592:	4770      	bxeq	lr
 8000594:	b530      	push	{r4, r5, lr}
 8000596:	f04f 0500 	mov.w	r5, #0
 800059a:	e00a      	b.n	80005b2 <__aeabi_l2d+0x16>

0800059c <__aeabi_l2d>:
 800059c:	ea50 0201 	orrs.w	r2, r0, r1
 80005a0:	bf08      	it	eq
 80005a2:	4770      	bxeq	lr
 80005a4:	b530      	push	{r4, r5, lr}
 80005a6:	f011 4500 	ands.w	r5, r1, #2147483648	; 0x80000000
 80005aa:	d502      	bpl.n	80005b2 <__aeabi_l2d+0x16>
 80005ac:	4240      	negs	r0, r0
 80005ae:	eb61 0141 	sbc.w	r1, r1, r1, lsl #1
 80005b2:	f44f 6480 	mov.w	r4, #1024	; 0x400
 80005b6:	f104 0432 	add.w	r4, r4, #50	; 0x32
 80005ba:	ea5f 5c91 	movs.w	ip, r1, lsr #22
 80005be:	f43f aed8 	beq.w	8000372 <__adddf3+0xe6>
 80005c2:	f04f 0203 	mov.w	r2, #3
 80005c6:	ea5f 0cdc 	movs.w	ip, ip, lsr #3
 80005ca:	bf18      	it	ne
 80005cc:	3203      	addne	r2, #3
 80005ce:	ea5f 0cdc 	movs.w	ip, ip, lsr #3
 80005d2:	bf18      	it	ne
 80005d4:	3203      	addne	r2, #3
 80005d6:	eb02 02dc 	add.w	r2, r2, ip, lsr #3
 80005da:	f1c2 0320 	rsb	r3, r2, #32
 80005de:	fa00 fc03 	lsl.w	ip, r0, r3
 80005e2:	fa20 f002 	lsr.w	r0, r0, r2
 80005e6:	fa01 fe03 	lsl.w	lr, r1, r3
 80005ea:	ea40 000e 	orr.w	r0, r0, lr
 80005ee:	fa21 f102 	lsr.w	r1, r1, r2
 80005f2:	4414      	add	r4, r2
 80005f4:	e6bd      	b.n	8000372 <__adddf3+0xe6>
 80005f6:	bf00      	nop

080005f8 <__aeabi_dmul>:
 80005f8:	b570      	push	{r4, r5, r6, lr}
 80005fa:	f04f 0cff 	mov.w	ip, #255	; 0xff
 80005fe:	f44c 6ce0 	orr.w	ip, ip, #1792	; 0x700
 8000602:	ea1c 5411 	ands.w	r4, ip, r1, lsr #20
 8000606:	bf1d      	ittte	ne
 8000608:	ea1c 5513 	andsne.w	r5, ip, r3, lsr #20
 800060c:	ea94 0f0c 	teqne	r4, ip
 8000610:	ea95 0f0c 	teqne	r5, ip
 8000614:	f000 f8de 	bleq	80007d4 <__aeabi_dmul+0x1dc>
 8000618:	442c      	add	r4, r5
 800061a:	ea81 0603 	eor.w	r6, r1, r3
 800061e:	ea21 514c 	bic.w	r1, r1, ip, lsl #21
 8000622:	ea23 534c 	bic.w	r3, r3, ip, lsl #21
 8000626:	ea50 3501 	orrs.w	r5, r0, r1, lsl #12
 800062a:	bf18      	it	ne
 800062c:	ea52 3503 	orrsne.w	r5, r2, r3, lsl #12
 8000630:	f441 1180 	orr.w	r1, r1, #1048576	; 0x100000
 8000634:	f443 1380 	orr.w	r3, r3, #1048576	; 0x100000
 8000638:	d038      	beq.n	80006ac <__aeabi_dmul+0xb4>
 800063a:	fba0 ce02 	umull	ip, lr, r0, r2
 800063e:	f04f 0500 	mov.w	r5, #0
 8000642:	fbe1 e502 	umlal	lr, r5, r1, r2
 8000646:	f006 4200 	and.w	r2, r6, #2147483648	; 0x80000000
 800064a:	fbe0 e503 	umlal	lr, r5, r0, r3
 800064e:	f04f 0600 	mov.w	r6, #0
 8000652:	fbe1 5603 	umlal	r5, r6, r1, r3
 8000656:	f09c 0f00 	teq	ip, #0
 800065a:	bf18      	it	ne
 800065c:	f04e 0e01 	orrne.w	lr, lr, #1
 8000660:	f1a4 04ff 	sub.w	r4, r4, #255	; 0xff
 8000664:	f5b6 7f00 	cmp.w	r6, #512	; 0x200
 8000668:	f564 7440 	sbc.w	r4, r4, #768	; 0x300
 800066c:	d204      	bcs.n	8000678 <__aeabi_dmul+0x80>
 800066e:	ea5f 0e4e 	movs.w	lr, lr, lsl #1
 8000672:	416d      	adcs	r5, r5
 8000674:	eb46 0606 	adc.w	r6, r6, r6
 8000678:	ea42 21c6 	orr.w	r1, r2, r6, lsl #11
 800067c:	ea41 5155 	orr.w	r1, r1, r5, lsr #21
 8000680:	ea4f 20c5 	mov.w	r0, r5, lsl #11
 8000684:	ea40 505e 	orr.w	r0, r0, lr, lsr #21
 8000688:	ea4f 2ece 	mov.w	lr, lr, lsl #11
 800068c:	f1b4 0cfd 	subs.w	ip, r4, #253	; 0xfd
 8000690:	bf88      	it	hi
 8000692:	f5bc 6fe0 	cmphi.w	ip, #1792	; 0x700
 8000696:	d81e      	bhi.n	80006d6 <__aeabi_dmul+0xde>
 8000698:	f1be 4f00 	cmp.w	lr, #2147483648	; 0x80000000
 800069c:	bf08      	it	eq
 800069e:	ea5f 0e50 	movseq.w	lr, r0, lsr #1
 80006a2:	f150 0000 	adcs.w	r0, r0, #0
 80006a6:	eb41 5104 	adc.w	r1, r1, r4, lsl #20
 80006aa:	bd70      	pop	{r4, r5, r6, pc}
 80006ac:	f006 4600 	and.w	r6, r6, #2147483648	; 0x80000000
 80006b0:	ea46 0101 	orr.w	r1, r6, r1
 80006b4:	ea40 0002 	orr.w	r0, r0, r2
 80006b8:	ea81 0103 	eor.w	r1, r1, r3
 80006bc:	ebb4 045c 	subs.w	r4, r4, ip, lsr #1
 80006c0:	bfc2      	ittt	gt
 80006c2:	ebd4 050c 	rsbsgt	r5, r4, ip
 80006c6:	ea41 5104 	orrgt.w	r1, r1, r4, lsl #20
 80006ca:	bd70      	popgt	{r4, r5, r6, pc}
 80006cc:	f441 1180 	orr.w	r1, r1, #1048576	; 0x100000
 80006d0:	f04f 0e00 	mov.w	lr, #0
 80006d4:	3c01      	subs	r4, #1
 80006d6:	f300 80ab 	bgt.w	8000830 <__aeabi_dmul+0x238>
 80006da:	f114 0f36 	cmn.w	r4, #54	; 0x36
 80006de:	bfde      	ittt	le
 80006e0:	2000      	movle	r0, #0
 80006e2:	f001 4100 	andle.w	r1, r1, #2147483648	; 0x80000000
 80006e6:	bd70      	pople	{r4, r5, r6, pc}
 80006e8:	f1c4 0400 	rsb	r4, r4, #0
 80006ec:	3c20      	subs	r4, #32
 80006ee:	da35      	bge.n	800075c <__aeabi_dmul+0x164>
 80006f0:	340c      	adds	r4, #12
 80006f2:	dc1b      	bgt.n	800072c <__aeabi_dmul+0x134>
 80006f4:	f104 0414 	add.w	r4, r4, #20
 80006f8:	f1c4 0520 	rsb	r5, r4, #32
 80006fc:	fa00 f305 	lsl.w	r3, r0, r5
 8000700:	fa20 f004 	lsr.w	r0, r0, r4
 8000704:	fa01 f205 	lsl.w	r2, r1, r5
 8000708:	ea40 0002 	orr.w	r0, r0, r2
 800070c:	f001 4200 	and.w	r2, r1, #2147483648	; 0x80000000
 8000710:	f021 4100 	bic.w	r1, r1, #2147483648	; 0x80000000
 8000714:	eb10 70d3 	adds.w	r0, r0, r3, lsr #31
 8000718:	fa21 f604 	lsr.w	r6, r1, r4
 800071c:	eb42 0106 	adc.w	r1, r2, r6
 8000720:	ea5e 0e43 	orrs.w	lr, lr, r3, lsl #1
 8000724:	bf08      	it	eq
 8000726:	ea20 70d3 	biceq.w	r0, r0, r3, lsr #31
 800072a:	bd70      	pop	{r4, r5, r6, pc}
 800072c:	f1c4 040c 	rsb	r4, r4, #12
 8000730:	f1c4 0520 	rsb	r5, r4, #32
 8000734:	fa00 f304 	lsl.w	r3, r0, r4
 8000738:	fa20 f005 	lsr.w	r0, r0, r5
 800073c:	fa01 f204 	lsl.w	r2, r1, r4
 8000740:	ea40 0002 	orr.w	r0, r0, r2
 8000744:	f001 4100 	and.w	r1, r1, #2147483648	; 0x80000000
 8000748:	eb10 70d3 	adds.w	r0, r0, r3, lsr #31
 800074c:	f141 0100 	adc.w	r1, r1, #0
 8000750:	ea5e 0e43 	orrs.w	lr, lr, r3, lsl #1
 8000754:	bf08      	it	eq
 8000756:	ea20 70d3 	biceq.w	r0, r0, r3, lsr #31
 800075a:	bd70      	pop	{r4, r5, r6, pc}
 800075c:	f1c4 0520 	rsb	r5, r4, #32
 8000760:	fa00 f205 	lsl.w	r2, r0, r5
 8000764:	ea4e 0e02 	orr.w	lr, lr, r2
 8000768:	fa20 f304 	lsr.w	r3, r0, r4
 800076c:	fa01 f205 	lsl.w	r2, r1, r5
 8000770:	ea43 0302 	orr.w	r3, r3, r2
 8000774:	fa21 f004 	lsr.w	r0, r1, r4
 8000778:	f001 4100 	and.w	r1, r1, #2147483648	; 0x80000000
 800077c:	fa21 f204 	lsr.w	r2, r1, r4
 8000780:	ea20 0002 	bic.w	r0, r0, r2
 8000784:	eb00 70d3 	add.w	r0, r0, r3, lsr #31
 8000788:	ea5e 0e43 	orrs.w	lr, lr, r3, lsl #1
 800078c:	bf08      	it	eq
 800078e:	ea20 70d3 	biceq.w	r0, r0, r3, lsr #31
 8000792:	bd70      	pop	{r4, r5, r6, pc}
 8000794:	f094 0f00 	teq	r4, #0
 8000798:	d10f      	bne.n	80007ba <__aeabi_dmul+0x1c2>
 800079a:	f001 4600 	and.w	r6, r1, #2147483648	; 0x80000000
 800079e:	0040      	lsls	r0, r0, #1
 80007a0:	eb41 0101 	adc.w	r1, r1, r1
 80007a4:	f411 1f80 	tst.w	r1, #1048576	; 0x100000
 80007a8:	bf08      	it	eq
 80007aa:	3c01      	subeq	r4, #1
 80007ac:	d0f7      	beq.n	800079e <__aeabi_dmul+0x1a6>
 80007ae:	ea41 0106 	orr.w	r1, r1, r6
 80007b2:	f095 0f00 	teq	r5, #0
 80007b6:	bf18      	it	ne
 80007b8:	4770      	bxne	lr
 80007ba:	f003 4600 	and.w	r6, r3, #2147483648	; 0x80000000
 80007be:	0052      	lsls	r2, r2, #1
 80007c0:	eb43 0303 	adc.w	r3, r3, r3
 80007c4:	f413 1f80 	tst.w	r3, #1048576	; 0x100000
 80007c8:	bf08      	it	eq
 80007ca:	3d01      	subeq	r5, #1
 80007cc:	d0f7      	beq.n	80007be <__aeabi_dmul+0x1c6>
 80007ce:	ea43 0306 	orr.w	r3, r3, r6
 80007d2:	4770      	bx	lr
 80007d4:	ea94 0f0c 	teq	r4, ip
 80007d8:	ea0c 5513 	and.w	r5, ip, r3, lsr #20
 80007dc:	bf18      	it	ne
 80007de:	ea95 0f0c 	teqne	r5, ip
 80007e2:	d00c      	beq.n	80007fe <__aeabi_dmul+0x206>
 80007e4:	ea50 0641 	orrs.w	r6, r0, r1, lsl #1
 80007e8:	bf18      	it	ne
 80007ea:	ea52 0643 	orrsne.w	r6, r2, r3, lsl #1
 80007ee:	d1d1      	bne.n	8000794 <__aeabi_dmul+0x19c>
 80007f0:	ea81 0103 	eor.w	r1, r1, r3
 80007f4:	f001 4100 	and.w	r1, r1, #2147483648	; 0x80000000
 80007f8:	f04f 0000 	mov.w	r0, #0
 80007fc:	bd70      	pop	{r4, r5, r6, pc}
 80007fe:	ea50 0641 	orrs.w	r6, r0, r1, lsl #1
 8000802:	bf06      	itte	eq
 8000804:	4610      	moveq	r0, r2
 8000806:	4619      	moveq	r1, r3
 8000808:	ea52 0643 	orrsne.w	r6, r2, r3, lsl #1
 800080c:	d019      	beq.n	8000842 <__aeabi_dmul+0x24a>
 800080e:	ea94 0f0c 	teq	r4, ip
 8000812:	d102      	bne.n	800081a <__aeabi_dmul+0x222>
 8000814:	ea50 3601 	orrs.w	r6, r0, r1, lsl #12
 8000818:	d113      	bne.n	8000842 <__aeabi_dmul+0x24a>
 800081a:	ea95 0f0c 	teq	r5, ip
 800081e:	d105      	bne.n	800082c <__aeabi_dmul+0x234>
 8000820:	ea52 3603 	orrs.w	r6, r2, r3, lsl #12
 8000824:	bf1c      	itt	ne
 8000826:	4610      	movne	r0, r2
 8000828:	4619      	movne	r1, r3
 800082a:	d10a      	bne.n	8000842 <__aeabi_dmul+0x24a>
 800082c:	ea81 0103 	eor.w	r1, r1, r3
 8000830:	f001 4100 	and.w	r1, r1, #2147483648	; 0x80000000
 8000834:	f041 41fe 	orr.w	r1, r1, #2130706432	; 0x7f000000
 8000838:	f441 0170 	orr.w	r1, r1, #15728640	; 0xf00000
 800083c:	f04f 0000 	mov.w	r0, #0
 8000840:	bd70      	pop	{r4, r5, r6, pc}
 8000842:	f041 41fe 	orr.w	r1, r1, #2130706432	; 0x7f000000
 8000846:	f441 0178 	orr.w	r1, r1, #16252928	; 0xf80000
 800084a:	bd70      	pop	{r4, r5, r6, pc}

0800084c <__aeabi_ddiv>:
 800084c:	b570      	push	{r4, r5, r6, lr}
 800084e:	f04f 0cff 	mov.w	ip, #255	; 0xff
 8000852:	f44c 6ce0 	orr.w	ip, ip, #1792	; 0x700
 8000856:	ea1c 5411 	ands.w	r4, ip, r1, lsr #20
 800085a:	bf1d      	ittte	ne
 800085c:	ea1c 5513 	andsne.w	r5, ip, r3, lsr #20
 8000860:	ea94 0f0c 	teqne	r4, ip
 8000864:	ea95 0f0c 	teqne	r5, ip
 8000868:	f000 f8a7 	bleq	80009ba <__aeabi_ddiv+0x16e>
 800086c:	eba4 0405 	sub.w	r4, r4, r5
 8000870:	ea81 0e03 	eor.w	lr, r1, r3
 8000874:	ea52 3503 	orrs.w	r5, r2, r3, lsl #12
 8000878:	ea4f 3101 	mov.w	r1, r1, lsl #12
 800087c:	f000 8088 	beq.w	8000990 <__aeabi_ddiv+0x144>
 8000880:	ea4f 3303 	mov.w	r3, r3, lsl #12
 8000884:	f04f 5580 	mov.w	r5, #268435456	; 0x10000000
 8000888:	ea45 1313 	orr.w	r3, r5, r3, lsr #4
 800088c:	ea43 6312 	orr.w	r3, r3, r2, lsr #24
 8000890:	ea4f 2202 	mov.w	r2, r2, lsl #8
 8000894:	ea45 1511 	orr.w	r5, r5, r1, lsr #4
 8000898:	ea45 6510 	orr.w	r5, r5, r0, lsr #24
 800089c:	ea4f 2600 	mov.w	r6, r0, lsl #8
 80008a0:	f00e 4100 	and.w	r1, lr, #2147483648	; 0x80000000
 80008a4:	429d      	cmp	r5, r3
 80008a6:	bf08      	it	eq
 80008a8:	4296      	cmpeq	r6, r2
 80008aa:	f144 04fd 	adc.w	r4, r4, #253	; 0xfd
 80008ae:	f504 7440 	add.w	r4, r4, #768	; 0x300
 80008b2:	d202      	bcs.n	80008ba <__aeabi_ddiv+0x6e>
 80008b4:	085b      	lsrs	r3, r3, #1
 80008b6:	ea4f 0232 	mov.w	r2, r2, rrx
 80008ba:	1ab6      	subs	r6, r6, r2
 80008bc:	eb65 0503 	sbc.w	r5, r5, r3
 80008c0:	085b      	lsrs	r3, r3, #1
 80008c2:	ea4f 0232 	mov.w	r2, r2, rrx
 80008c6:	f44f 1080 	mov.w	r0, #1048576	; 0x100000
 80008ca:	f44f 2c00 	mov.w	ip, #524288	; 0x80000
 80008ce:	ebb6 0e02 	subs.w	lr, r6, r2
 80008d2:	eb75 0e03 	sbcs.w	lr, r5, r3
 80008d6:	bf22      	ittt	cs
 80008d8:	1ab6      	subcs	r6, r6, r2
 80008da:	4675      	movcs	r5, lr
 80008dc:	ea40 000c 	orrcs.w	r0, r0, ip
 80008e0:	085b      	lsrs	r3, r3, #1
 80008e2:	ea4f 0232 	mov.w	r2, r2, rrx
 80008e6:	ebb6 0e02 	subs.w	lr, r6, r2
 80008ea:	eb75 0e03 	sbcs.w	lr, r5, r3
 80008ee:	bf22      	ittt	cs
 80008f0:	1ab6      	subcs	r6, r6, r2
 80008f2:	4675      	movcs	r5, lr
 80008f4:	ea40 005c 	orrcs.w	r0, r0, ip, lsr #1
 80008f8:	085b      	lsrs	r3, r3, #1
 80008fa:	ea4f 0232 	mov.w	r2, r2, rrx
 80008fe:	ebb6 0e02 	subs.w	lr, r6, r2
 8000902:	eb75 0e03 	sbcs.w	lr, r5, r3
 8000906:	bf22      	ittt	cs
 8000908:	1ab6      	subcs	r6, r6, r2
 800090a:	4675      	movcs	r5, lr
 800090c:	ea40 009c 	orrcs.w	r0, r0, ip, lsr #2
 8000910:	085b      	lsrs	r3, r3, #1
 8000912:	ea4f 0232 	mov.w	r2, r2, rrx
 8000916:	ebb6 0e02 	subs.w	lr, r6, r2
 800091a:	eb75 0e03 	sbcs.w	lr, r5, r3
 800091e:	bf22      	ittt	cs
 8000920:	1ab6      	subcs	r6, r6, r2
 8000922:	4675      	movcs	r5, lr
 8000924:	ea40 00dc 	orrcs.w	r0, r0, ip, lsr #3
 8000928:	ea55 0e06 	orrs.w	lr, r5, r6
 800092c:	d018      	beq.n	8000960 <__aeabi_ddiv+0x114>
 800092e:	ea4f 1505 	mov.w	r5, r5, lsl #4
 8000932:	ea45 7516 	orr.w	r5, r5, r6, lsr #28
 8000936:	ea4f 1606 	mov.w	r6, r6, lsl #4
 800093a:	ea4f 03c3 	mov.w	r3, r3, lsl #3
 800093e:	ea43 7352 	orr.w	r3, r3, r2, lsr #29
 8000942:	ea4f 02c2 	mov.w	r2, r2, lsl #3
 8000946:	ea5f 1c1c 	movs.w	ip, ip, lsr #4
 800094a:	d1c0      	bne.n	80008ce <__aeabi_ddiv+0x82>
 800094c:	f411 1f80 	tst.w	r1, #1048576	; 0x100000
 8000950:	d10b      	bne.n	800096a <__aeabi_ddiv+0x11e>
 8000952:	ea41 0100 	orr.w	r1, r1, r0
 8000956:	f04f 0000 	mov.w	r0, #0
 800095a:	f04f 4c00 	mov.w	ip, #2147483648	; 0x80000000
 800095e:	e7b6      	b.n	80008ce <__aeabi_ddiv+0x82>
 8000960:	f411 1f80 	tst.w	r1, #1048576	; 0x100000
 8000964:	bf04      	itt	eq
 8000966:	4301      	orreq	r1, r0
 8000968:	2000      	moveq	r0, #0
 800096a:	f1b4 0cfd 	subs.w	ip, r4, #253	; 0xfd
 800096e:	bf88      	it	hi
 8000970:	f5bc 6fe0 	cmphi.w	ip, #1792	; 0x700
 8000974:	f63f aeaf 	bhi.w	80006d6 <__aeabi_dmul+0xde>
 8000978:	ebb5 0c03 	subs.w	ip, r5, r3
 800097c:	bf04      	itt	eq
 800097e:	ebb6 0c02 	subseq.w	ip, r6, r2
 8000982:	ea5f 0c50 	movseq.w	ip, r0, lsr #1
 8000986:	f150 0000 	adcs.w	r0, r0, #0
 800098a:	eb41 5104 	adc.w	r1, r1, r4, lsl #20
 800098e:	bd70      	pop	{r4, r5, r6, pc}
 8000990:	f00e 4e00 	and.w	lr, lr, #2147483648	; 0x80000000
 8000994:	ea4e 3111 	orr.w	r1, lr, r1, lsr #12
 8000998:	eb14 045c 	adds.w	r4, r4, ip, lsr #1
 800099c:	bfc2      	ittt	gt
 800099e:	ebd4 050c 	rsbsgt	r5, r4, ip
 80009a2:	ea41 5104 	orrgt.w	r1, r1, r4, lsl #20
 80009a6:	bd70      	popgt	{r4, r5, r6, pc}
 80009a8:	f441 1180 	orr.w	r1, r1, #1048576	; 0x100000
 80009ac:	f04f 0e00 	mov.w	lr, #0
 80009b0:	3c01      	subs	r4, #1
 80009b2:	e690      	b.n	80006d6 <__aeabi_dmul+0xde>
 80009b4:	ea45 0e06 	orr.w	lr, r5, r6
 80009b8:	e68d      	b.n	80006d6 <__aeabi_dmul+0xde>
 80009ba:	ea0c 5513 	and.w	r5, ip, r3, lsr #20
 80009be:	ea94 0f0c 	teq	r4, ip
 80009c2:	bf08      	it	eq
 80009c4:	ea95 0f0c 	teqeq	r5, ip
 80009c8:	f43f af3b 	beq.w	8000842 <__aeabi_dmul+0x24a>
 80009cc:	ea94 0f0c 	teq	r4, ip
 80009d0:	d10a      	bne.n	80009e8 <__aeabi_ddiv+0x19c>
 80009d2:	ea50 3401 	orrs.w	r4, r0, r1, lsl #12
 80009d6:	f47f af34 	bne.w	8000842 <__aeabi_dmul+0x24a>
 80009da:	ea95 0f0c 	teq	r5, ip
 80009de:	f47f af25 	bne.w	800082c <__aeabi_dmul+0x234>
 80009e2:	4610      	mov	r0, r2
 80009e4:	4619      	mov	r1, r3
 80009e6:	e72c      	b.n	8000842 <__aeabi_dmul+0x24a>
 80009e8:	ea95 0f0c 	teq	r5, ip
 80009ec:	d106      	bne.n	80009fc <__aeabi_ddiv+0x1b0>
 80009ee:	ea52 3503 	orrs.w	r5, r2, r3, lsl #12
 80009f2:	f43f aefd 	beq.w	80007f0 <__aeabi_dmul+0x1f8>
 80009f6:	4610      	mov	r0, r2
 80009f8:	4619      	mov	r1, r3
 80009fa:	e722      	b.n	8000842 <__aeabi_dmul+0x24a>
 80009fc:	ea50 0641 	orrs.w	r6, r0, r1, lsl #1
 8000a00:	bf18      	it	ne
 8000a02:	ea52 0643 	orrsne.w	r6, r2, r3, lsl #1
 8000a06:	f47f aec5 	bne.w	8000794 <__aeabi_dmul+0x19c>
 8000a0a:	ea50 0441 	orrs.w	r4, r0, r1, lsl #1
 8000a0e:	f47f af0d 	bne.w	800082c <__aeabi_dmul+0x234>
 8000a12:	ea52 0543 	orrs.w	r5, r2, r3, lsl #1
 8000a16:	f47f aeeb 	bne.w	80007f0 <__aeabi_dmul+0x1f8>
 8000a1a:	e712      	b.n	8000842 <__aeabi_dmul+0x24a>

08000a1c <__gedf2>:
 8000a1c:	f04f 3cff 	mov.w	ip, #4294967295
 8000a20:	e006      	b.n	8000a30 <__cmpdf2+0x4>
 8000a22:	bf00      	nop

08000a24 <__ledf2>:
 8000a24:	f04f 0c01 	mov.w	ip, #1
 8000a28:	e002      	b.n	8000a30 <__cmpdf2+0x4>
 8000a2a:	bf00      	nop

08000a2c <__cmpdf2>:
 8000a2c:	f04f 0c01 	mov.w	ip, #1
 8000a30:	f84d cd04 	str.w	ip, [sp, #-4]!
 8000a34:	ea4f 0c41 	mov.w	ip, r1, lsl #1
 8000a38:	ea7f 5c6c 	mvns.w	ip, ip, asr #21
 8000a3c:	ea4f 0c43 	mov.w	ip, r3, lsl #1
 8000a40:	bf18      	it	ne
 8000a42:	ea7f 5c6c 	mvnsne.w	ip, ip, asr #21
 8000a46:	d01b      	beq.n	8000a80 <__cmpdf2+0x54>
 8000a48:	b001      	add	sp, #4
 8000a4a:	ea50 0c41 	orrs.w	ip, r0, r1, lsl #1
 8000a4e:	bf0c      	ite	eq
 8000a50:	ea52 0c43 	orrseq.w	ip, r2, r3, lsl #1
 8000a54:	ea91 0f03 	teqne	r1, r3
 8000a58:	bf02      	ittt	eq
 8000a5a:	ea90 0f02 	teqeq	r0, r2
 8000a5e:	2000      	moveq	r0, #0
 8000a60:	4770      	bxeq	lr
 8000a62:	f110 0f00 	cmn.w	r0, #0
 8000a66:	ea91 0f03 	teq	r1, r3
 8000a6a:	bf58      	it	pl
 8000a6c:	4299      	cmppl	r1, r3
 8000a6e:	bf08      	it	eq
 8000a70:	4290      	cmpeq	r0, r2
 8000a72:	bf2c      	ite	cs
 8000a74:	17d8      	asrcs	r0, r3, #31
 8000a76:	ea6f 70e3 	mvncc.w	r0, r3, asr #31
 8000a7a:	f040 0001 	orr.w	r0, r0, #1
 8000a7e:	4770      	bx	lr
 8000a80:	ea4f 0c41 	mov.w	ip, r1, lsl #1
 8000a84:	ea7f 5c6c 	mvns.w	ip, ip, asr #21
 8000a88:	d102      	bne.n	8000a90 <__cmpdf2+0x64>
 8000a8a:	ea50 3c01 	orrs.w	ip, r0, r1, lsl #12
 8000a8e:	d107      	bne.n	8000aa0 <__cmpdf2+0x74>
 8000a90:	ea4f 0c43 	mov.w	ip, r3, lsl #1
 8000a94:	ea7f 5c6c 	mvns.w	ip, ip, asr #21
 8000a98:	d1d6      	bne.n	8000a48 <__cmpdf2+0x1c>
 8000a9a:	ea52 3c03 	orrs.w	ip, r2, r3, lsl #12
 8000a9e:	d0d3      	beq.n	8000a48 <__cmpdf2+0x1c>
 8000aa0:	f85d 0b04 	ldr.w	r0, [sp], #4
 8000aa4:	4770      	bx	lr
 8000aa6:	bf00      	nop

08000aa8 <__aeabi_cdrcmple>:
 8000aa8:	4684      	mov	ip, r0
 8000aaa:	4610      	mov	r0, r2
 8000aac:	4662      	mov	r2, ip
 8000aae:	468c      	mov	ip, r1
 8000ab0:	4619      	mov	r1, r3
 8000ab2:	4663      	mov	r3, ip
 8000ab4:	e000      	b.n	8000ab8 <__aeabi_cdcmpeq>
 8000ab6:	bf00      	nop

08000ab8 <__aeabi_cdcmpeq>:
 8000ab8:	b501      	push	{r0, lr}
 8000aba:	f7ff ffb7 	bl	8000a2c <__cmpdf2>
 8000abe:	2800      	cmp	r0, #0
 8000ac0:	bf48      	it	mi
 8000ac2:	f110 0f00 	cmnmi.w	r0, #0
 8000ac6:	bd01      	pop	{r0, pc}

08000ac8 <__aeabi_dcmpeq>:
 8000ac8:	f84d ed08 	str.w	lr, [sp, #-8]!
 8000acc:	f7ff fff4 	bl	8000ab8 <__aeabi_cdcmpeq>
 8000ad0:	bf0c      	ite	eq
 8000ad2:	2001      	moveq	r0, #1
 8000ad4:	2000      	movne	r0, #0
 8000ad6:	f85d fb08 	ldr.w	pc, [sp], #8
 8000ada:	bf00      	nop

08000adc <__aeabi_dcmplt>:
 8000adc:	f84d ed08 	str.w	lr, [sp, #-8]!
 8000ae0:	f7ff ffea 	bl	8000ab8 <__aeabi_cdcmpeq>
 8000ae4:	bf34      	ite	cc
 8000ae6:	2001      	movcc	r0, #1
 8000ae8:	2000      	movcs	r0, #0
 8000aea:	f85d fb08 	ldr.w	pc, [sp], #8
 8000aee:	bf00      	nop

08000af0 <__aeabi_dcmple>:
 8000af0:	f84d ed08 	str.w	lr, [sp, #-8]!
 8000af4:	f7ff ffe0 	bl	8000ab8 <__aeabi_cdcmpeq>
 8000af8:	bf94      	ite	ls
 8000afa:	2001      	movls	r0, #1
 8000afc:	2000      	movhi	r0, #0
 8000afe:	f85d fb08 	ldr.w	pc, [sp], #8
 8000b02:	bf00      	nop

08000b04 <__aeabi_dcmpge>:
 8000b04:	f84d ed08 	str.w	lr, [sp, #-8]!
 8000b08:	f7ff ffce 	bl	8000aa8 <__aeabi_cdrcmple>
 8000b0c:	bf94      	ite	ls
 8000b0e:	2001      	movls	r0, #1
 8000b10:	2000      	movhi	r0, #0
 8000b12:	f85d fb08 	ldr.w	pc, [sp], #8
 8000b16:	bf00      	nop

08000b18 <__aeabi_dcmpgt>:
 8000b18:	f84d ed08 	str.w	lr, [sp, #-8]!
 8000b1c:	f7ff ffc4 	bl	8000aa8 <__aeabi_cdrcmple>
 8000b20:	bf34      	ite	cc
 8000b22:	2001      	movcc	r0, #1
 8000b24:	2000      	movcs	r0, #0
 8000b26:	f85d fb08 	ldr.w	pc, [sp], #8
 8000b2a:	bf00      	nop

08000b2c <__aeabi_dcmpun>:
 8000b2c:	ea4f 0c41 	mov.w	ip, r1, lsl #1
 8000b30:	ea7f 5c6c 	mvns.w	ip, ip, asr #21
 8000b34:	d102      	bne.n	8000b3c <__aeabi_dcmpun+0x10>
 8000b36:	ea50 3c01 	orrs.w	ip, r0, r1, lsl #12
 8000b3a:	d10a      	bne.n	8000b52 <__aeabi_dcmpun+0x26>
 8000b3c:	ea4f 0c43 	mov.w	ip, r3, lsl #1
 8000b40:	ea7f 5c6c 	mvns.w	ip, ip, asr #21
 8000b44:	d102      	bne.n	8000b4c <__aeabi_dcmpun+0x20>
 8000b46:	ea52 3c03 	orrs.w	ip, r2, r3, lsl #12
 8000b4a:	d102      	bne.n	8000b52 <__aeabi_dcmpun+0x26>
 8000b4c:	f04f 0000 	mov.w	r0, #0
 8000b50:	4770      	bx	lr
 8000b52:	f04f 0001 	mov.w	r0, #1
 8000b56:	4770      	bx	lr

08000b58 <__aeabi_d2iz>:
 8000b58:	ea4f 0241 	mov.w	r2, r1, lsl #1
 8000b5c:	f512 1200 	adds.w	r2, r2, #2097152	; 0x200000
 8000b60:	d215      	bcs.n	8000b8e <__aeabi_d2iz+0x36>
 8000b62:	d511      	bpl.n	8000b88 <__aeabi_d2iz+0x30>
 8000b64:	f46f 7378 	mvn.w	r3, #992	; 0x3e0
 8000b68:	ebb3 5262 	subs.w	r2, r3, r2, asr #21
 8000b6c:	d912      	bls.n	8000b94 <__aeabi_d2iz+0x3c>
 8000b6e:	ea4f 23c1 	mov.w	r3, r1, lsl #11
 8000b72:	f043 4300 	orr.w	r3, r3, #2147483648	; 0x80000000
 8000b76:	ea43 5350 	orr.w	r3, r3, r0, lsr #21
 8000b7a:	f011 4f00 	tst.w	r1, #2147483648	; 0x80000000
 8000b7e:	fa23 f002 	lsr.w	r0, r3, r2
 8000b82:	bf18      	it	ne
 8000b84:	4240      	negne	r0, r0
 8000b86:	4770      	bx	lr
 8000b88:	f04f 0000 	mov.w	r0, #0
 8000b8c:	4770      	bx	lr
 8000b8e:	ea50 3001 	orrs.w	r0, r0, r1, lsl #12
 8000b92:	d105      	bne.n	8000ba0 <__aeabi_d2iz+0x48>
 8000b94:	f011 4000 	ands.w	r0, r1, #2147483648	; 0x80000000
 8000b98:	bf08      	it	eq
 8000b9a:	f06f 4000 	mvneq.w	r0, #2147483648	; 0x80000000
 8000b9e:	4770      	bx	lr
 8000ba0:	f04f 0000 	mov.w	r0, #0
 8000ba4:	4770      	bx	lr
 8000ba6:	bf00      	nop

08000ba8 <__aeabi_d2uiz>:
 8000ba8:	004a      	lsls	r2, r1, #1
 8000baa:	d211      	bcs.n	8000bd0 <__aeabi_d2uiz+0x28>
 8000bac:	f512 1200 	adds.w	r2, r2, #2097152	; 0x200000
 8000bb0:	d211      	bcs.n	8000bd6 <__aeabi_d2uiz+0x2e>
 8000bb2:	d50d      	bpl.n	8000bd0 <__aeabi_d2uiz+0x28>
 8000bb4:	f46f 7378 	mvn.w	r3, #992	; 0x3e0
 8000bb8:	ebb3 5262 	subs.w	r2, r3, r2, asr #21
 8000bbc:	d40e      	bmi.n	8000bdc <__aeabi_d2uiz+0x34>
 8000bbe:	ea4f 23c1 	mov.w	r3, r1, lsl #11
 8000bc2:	f043 4300 	orr.w	r3, r3, #2147483648	; 0x80000000
 8000bc6:	ea43 5350 	orr.w	r3, r3, r0, lsr #21
 8000bca:	fa23 f002 	lsr.w	r0, r3, r2
 8000bce:	4770      	bx	lr
 8000bd0:	f04f 0000 	mov.w	r0, #0
 8000bd4:	4770      	bx	lr
 8000bd6:	ea50 3001 	orrs.w	r0, r0, r1, lsl #12
 8000bda:	d102      	bne.n	8000be2 <__aeabi_d2uiz+0x3a>
 8000bdc:	f04f 30ff 	mov.w	r0, #4294967295
 8000be0:	4770      	bx	lr
 8000be2:	f04f 0000 	mov.w	r0, #0
 8000be6:	4770      	bx	lr

08000be8 <__aeabi_d2f>:
 8000be8:	ea4f 0241 	mov.w	r2, r1, lsl #1
 8000bec:	f1b2 43e0 	subs.w	r3, r2, #1879048192	; 0x70000000
 8000bf0:	bf24      	itt	cs
 8000bf2:	f5b3 1c00 	subscs.w	ip, r3, #2097152	; 0x200000
 8000bf6:	f1dc 5cfe 	rsbscs	ip, ip, #532676608	; 0x1fc00000
 8000bfa:	d90d      	bls.n	8000c18 <__aeabi_d2f+0x30>
 8000bfc:	f001 4c00 	and.w	ip, r1, #2147483648	; 0x80000000
 8000c00:	ea4f 02c0 	mov.w	r2, r0, lsl #3
 8000c04:	ea4c 7050 	orr.w	r0, ip, r0, lsr #29
 8000c08:	f1b2 4f00 	cmp.w	r2, #2147483648	; 0x80000000
 8000c0c:	eb40 0083 	adc.w	r0, r0, r3, lsl #2
 8000c10:	bf08      	it	eq
 8000c12:	f020 0001 	biceq.w	r0, r0, #1
 8000c16:	4770      	bx	lr
 8000c18:	f011 4f80 	tst.w	r1, #1073741824	; 0x40000000
 8000c1c:	d121      	bne.n	8000c62 <__aeabi_d2f+0x7a>
 8000c1e:	f113 7238 	adds.w	r2, r3, #48234496	; 0x2e00000
 8000c22:	bfbc      	itt	lt
 8000c24:	f001 4000 	andlt.w	r0, r1, #2147483648	; 0x80000000
 8000c28:	4770      	bxlt	lr
 8000c2a:	f441 1180 	orr.w	r1, r1, #1048576	; 0x100000
 8000c2e:	ea4f 5252 	mov.w	r2, r2, lsr #21
 8000c32:	f1c2 0218 	rsb	r2, r2, #24
 8000c36:	f1c2 0c20 	rsb	ip, r2, #32
 8000c3a:	fa10 f30c 	lsls.w	r3, r0, ip
 8000c3e:	fa20 f002 	lsr.w	r0, r0, r2
 8000c42:	bf18      	it	ne
 8000c44:	f040 0001 	orrne.w	r0, r0, #1
 8000c48:	ea4f 23c1 	mov.w	r3, r1, lsl #11
 8000c4c:	ea4f 23d3 	mov.w	r3, r3, lsr #11
 8000c50:	fa03 fc0c 	lsl.w	ip, r3, ip
 8000c54:	ea40 000c 	orr.w	r0, r0, ip
 8000c58:	fa23 f302 	lsr.w	r3, r3, r2
 8000c5c:	ea4f 0343 	mov.w	r3, r3, lsl #1
 8000c60:	e7cc      	b.n	8000bfc <__aeabi_d2f+0x14>
 8000c62:	ea7f 5362 	mvns.w	r3, r2, asr #21
 8000c66:	d107      	bne.n	8000c78 <__aeabi_d2f+0x90>
 8000c68:	ea50 3301 	orrs.w	r3, r0, r1, lsl #12
 8000c6c:	bf1e      	ittt	ne
 8000c6e:	f04f 40fe 	movne.w	r0, #2130706432	; 0x7f000000
 8000c72:	f440 0040 	orrne.w	r0, r0, #12582912	; 0xc00000
 8000c76:	4770      	bxne	lr
 8000c78:	f001 4000 	and.w	r0, r1, #2147483648	; 0x80000000
 8000c7c:	f040 40fe 	orr.w	r0, r0, #2130706432	; 0x7f000000
 8000c80:	f440 0000 	orr.w	r0, r0, #8388608	; 0x800000
 8000c84:	4770      	bx	lr
 8000c86:	bf00      	nop

08000c88 <__aeabi_uldivmod>:
 8000c88:	b953      	cbnz	r3, 8000ca0 <__aeabi_uldivmod+0x18>
 8000c8a:	b94a      	cbnz	r2, 8000ca0 <__aeabi_uldivmod+0x18>
 8000c8c:	2900      	cmp	r1, #0
 8000c8e:	bf08      	it	eq
 8000c90:	2800      	cmpeq	r0, #0
 8000c92:	bf1c      	itt	ne
 8000c94:	f04f 31ff 	movne.w	r1, #4294967295
 8000c98:	f04f 30ff 	movne.w	r0, #4294967295
 8000c9c:	f000 b9aa 	b.w	8000ff4 <__aeabi_idiv0>
 8000ca0:	f1ad 0c08 	sub.w	ip, sp, #8
 8000ca4:	e96d ce04 	strd	ip, lr, [sp, #-16]!
 8000ca8:	f000 f83c 	bl	8000d24 <__udivmoddi4>
 8000cac:	f8dd e004 	ldr.w	lr, [sp, #4]
 8000cb0:	e9dd 2302 	ldrd	r2, r3, [sp, #8]
 8000cb4:	b004      	add	sp, #16
 8000cb6:	4770      	bx	lr

08000cb8 <__aeabi_d2lz>:
 8000cb8:	b538      	push	{r3, r4, r5, lr}
 8000cba:	2200      	movs	r2, #0
 8000cbc:	2300      	movs	r3, #0
 8000cbe:	4604      	mov	r4, r0
 8000cc0:	460d      	mov	r5, r1
 8000cc2:	f7ff ff0b 	bl	8000adc <__aeabi_dcmplt>
 8000cc6:	b928      	cbnz	r0, 8000cd4 <__aeabi_d2lz+0x1c>
 8000cc8:	4620      	mov	r0, r4
 8000cca:	4629      	mov	r1, r5
 8000ccc:	e8bd 4038 	ldmia.w	sp!, {r3, r4, r5, lr}
 8000cd0:	f000 b80a 	b.w	8000ce8 <__aeabi_d2ulz>
 8000cd4:	4620      	mov	r0, r4
 8000cd6:	f105 4100 	add.w	r1, r5, #2147483648	; 0x80000000
 8000cda:	f000 f805 	bl	8000ce8 <__aeabi_d2ulz>
 8000cde:	4240      	negs	r0, r0
 8000ce0:	eb61 0141 	sbc.w	r1, r1, r1, lsl #1
 8000ce4:	bd38      	pop	{r3, r4, r5, pc}
 8000ce6:	bf00      	nop

08000ce8 <__aeabi_d2ulz>:
 8000ce8:	b5d0      	push	{r4, r6, r7, lr}
 8000cea:	4b0c      	ldr	r3, [pc, #48]	; (8000d1c <__aeabi_d2ulz+0x34>)
 8000cec:	2200      	movs	r2, #0
 8000cee:	4606      	mov	r6, r0
 8000cf0:	460f      	mov	r7, r1
 8000cf2:	f7ff fc81 	bl	80005f8 <__aeabi_dmul>
 8000cf6:	f7ff ff57 	bl	8000ba8 <__aeabi_d2uiz>
 8000cfa:	4604      	mov	r4, r0
 8000cfc:	f7ff fc02 	bl	8000504 <__aeabi_ui2d>
 8000d00:	4b07      	ldr	r3, [pc, #28]	; (8000d20 <__aeabi_d2ulz+0x38>)
 8000d02:	2200      	movs	r2, #0
 8000d04:	f7ff fc78 	bl	80005f8 <__aeabi_dmul>
 8000d08:	4602      	mov	r2, r0
 8000d0a:	460b      	mov	r3, r1
 8000d0c:	4630      	mov	r0, r6
 8000d0e:	4639      	mov	r1, r7
 8000d10:	f7ff faba 	bl	8000288 <__aeabi_dsub>
 8000d14:	f7ff ff48 	bl	8000ba8 <__aeabi_d2uiz>
 8000d18:	4621      	mov	r1, r4
 8000d1a:	bdd0      	pop	{r4, r6, r7, pc}
 8000d1c:	3df00000 	.word	0x3df00000
 8000d20:	41f00000 	.word	0x41f00000

08000d24 <__udivmoddi4>:
 8000d24:	e92d 47f0 	stmdb	sp!, {r4, r5, r6, r7, r8, r9, sl, lr}
 8000d28:	9d08      	ldr	r5, [sp, #32]
 8000d2a:	4604      	mov	r4, r0
 8000d2c:	468e      	mov	lr, r1
 8000d2e:	2b00      	cmp	r3, #0
 8000d30:	d14d      	bne.n	8000dce <__udivmoddi4+0xaa>
 8000d32:	428a      	cmp	r2, r1
 8000d34:	4694      	mov	ip, r2
 8000d36:	d969      	bls.n	8000e0c <__udivmoddi4+0xe8>
 8000d38:	fab2 f282 	clz	r2, r2
 8000d3c:	b152      	cbz	r2, 8000d54 <__udivmoddi4+0x30>
 8000d3e:	fa01 f302 	lsl.w	r3, r1, r2
 8000d42:	f1c2 0120 	rsb	r1, r2, #32
 8000d46:	fa20 f101 	lsr.w	r1, r0, r1
 8000d4a:	fa0c fc02 	lsl.w	ip, ip, r2
 8000d4e:	ea41 0e03 	orr.w	lr, r1, r3
 8000d52:	4094      	lsls	r4, r2
 8000d54:	ea4f 481c 	mov.w	r8, ip, lsr #16
 8000d58:	0c21      	lsrs	r1, r4, #16
 8000d5a:	fbbe f6f8 	udiv	r6, lr, r8
 8000d5e:	fa1f f78c 	uxth.w	r7, ip
 8000d62:	fb08 e316 	mls	r3, r8, r6, lr
 8000d66:	ea41 4303 	orr.w	r3, r1, r3, lsl #16
 8000d6a:	fb06 f107 	mul.w	r1, r6, r7
 8000d6e:	4299      	cmp	r1, r3
 8000d70:	d90a      	bls.n	8000d88 <__udivmoddi4+0x64>
 8000d72:	eb1c 0303 	adds.w	r3, ip, r3
 8000d76:	f106 30ff 	add.w	r0, r6, #4294967295
 8000d7a:	f080 811f 	bcs.w	8000fbc <__udivmoddi4+0x298>
 8000d7e:	4299      	cmp	r1, r3
 8000d80:	f240 811c 	bls.w	8000fbc <__udivmoddi4+0x298>
 8000d84:	3e02      	subs	r6, #2
 8000d86:	4463      	add	r3, ip
 8000d88:	1a5b      	subs	r3, r3, r1
 8000d8a:	b2a4      	uxth	r4, r4
 8000d8c:	fbb3 f0f8 	udiv	r0, r3, r8
 8000d90:	fb08 3310 	mls	r3, r8, r0, r3
 8000d94:	ea44 4403 	orr.w	r4, r4, r3, lsl #16
 8000d98:	fb00 f707 	mul.w	r7, r0, r7
 8000d9c:	42a7      	cmp	r7, r4
 8000d9e:	d90a      	bls.n	8000db6 <__udivmoddi4+0x92>
 8000da0:	eb1c 0404 	adds.w	r4, ip, r4
 8000da4:	f100 33ff 	add.w	r3, r0, #4294967295
 8000da8:	f080 810a 	bcs.w	8000fc0 <__udivmoddi4+0x29c>
 8000dac:	42a7      	cmp	r7, r4
 8000dae:	f240 8107 	bls.w	8000fc0 <__udivmoddi4+0x29c>
 8000db2:	4464      	add	r4, ip
 8000db4:	3802      	subs	r0, #2
 8000db6:	ea40 4006 	orr.w	r0, r0, r6, lsl #16
 8000dba:	1be4      	subs	r4, r4, r7
 8000dbc:	2600      	movs	r6, #0
 8000dbe:	b11d      	cbz	r5, 8000dc8 <__udivmoddi4+0xa4>
 8000dc0:	40d4      	lsrs	r4, r2
 8000dc2:	2300      	movs	r3, #0
 8000dc4:	e9c5 4300 	strd	r4, r3, [r5]
 8000dc8:	4631      	mov	r1, r6
 8000dca:	e8bd 87f0 	ldmia.w	sp!, {r4, r5, r6, r7, r8, r9, sl, pc}
 8000dce:	428b      	cmp	r3, r1
 8000dd0:	d909      	bls.n	8000de6 <__udivmoddi4+0xc2>
 8000dd2:	2d00      	cmp	r5, #0
 8000dd4:	f000 80ef 	beq.w	8000fb6 <__udivmoddi4+0x292>
 8000dd8:	2600      	movs	r6, #0
 8000dda:	e9c5 0100 	strd	r0, r1, [r5]
 8000dde:	4630      	mov	r0, r6
 8000de0:	4631      	mov	r1, r6
 8000de2:	e8bd 87f0 	ldmia.w	sp!, {r4, r5, r6, r7, r8, r9, sl, pc}
 8000de6:	fab3 f683 	clz	r6, r3
 8000dea:	2e00      	cmp	r6, #0
 8000dec:	d14a      	bne.n	8000e84 <__udivmoddi4+0x160>
 8000dee:	428b      	cmp	r3, r1
 8000df0:	d302      	bcc.n	8000df8 <__udivmoddi4+0xd4>
 8000df2:	4282      	cmp	r2, r0
 8000df4:	f200 80f9 	bhi.w	8000fea <__udivmoddi4+0x2c6>
 8000df8:	1a84      	subs	r4, r0, r2
 8000dfa:	eb61 0303 	sbc.w	r3, r1, r3
 8000dfe:	2001      	movs	r0, #1
 8000e00:	469e      	mov	lr, r3
 8000e02:	2d00      	cmp	r5, #0
 8000e04:	d0e0      	beq.n	8000dc8 <__udivmoddi4+0xa4>
 8000e06:	e9c5 4e00 	strd	r4, lr, [r5]
 8000e0a:	e7dd      	b.n	8000dc8 <__udivmoddi4+0xa4>
 8000e0c:	b902      	cbnz	r2, 8000e10 <__udivmoddi4+0xec>
 8000e0e:	deff      	udf	#255	; 0xff
 8000e10:	fab2 f282 	clz	r2, r2
 8000e14:	2a00      	cmp	r2, #0
 8000e16:	f040 8092 	bne.w	8000f3e <__udivmoddi4+0x21a>
 8000e1a:	eba1 010c 	sub.w	r1, r1, ip
 8000e1e:	ea4f 471c 	mov.w	r7, ip, lsr #16
 8000e22:	fa1f fe8c 	uxth.w	lr, ip
 8000e26:	2601      	movs	r6, #1
 8000e28:	0c20      	lsrs	r0, r4, #16
 8000e2a:	fbb1 f3f7 	udiv	r3, r1, r7
 8000e2e:	fb07 1113 	mls	r1, r7, r3, r1
 8000e32:	ea40 4101 	orr.w	r1, r0, r1, lsl #16
 8000e36:	fb0e f003 	mul.w	r0, lr, r3
 8000e3a:	4288      	cmp	r0, r1
 8000e3c:	d908      	bls.n	8000e50 <__udivmoddi4+0x12c>
 8000e3e:	eb1c 0101 	adds.w	r1, ip, r1
 8000e42:	f103 38ff 	add.w	r8, r3, #4294967295
 8000e46:	d202      	bcs.n	8000e4e <__udivmoddi4+0x12a>
 8000e48:	4288      	cmp	r0, r1
 8000e4a:	f200 80cb 	bhi.w	8000fe4 <__udivmoddi4+0x2c0>
 8000e4e:	4643      	mov	r3, r8
 8000e50:	1a09      	subs	r1, r1, r0
 8000e52:	b2a4      	uxth	r4, r4
 8000e54:	fbb1 f0f7 	udiv	r0, r1, r7
 8000e58:	fb07 1110 	mls	r1, r7, r0, r1
 8000e5c:	ea44 4401 	orr.w	r4, r4, r1, lsl #16
 8000e60:	fb0e fe00 	mul.w	lr, lr, r0
 8000e64:	45a6      	cmp	lr, r4
 8000e66:	d908      	bls.n	8000e7a <__udivmoddi4+0x156>
 8000e68:	eb1c 0404 	adds.w	r4, ip, r4
 8000e6c:	f100 31ff 	add.w	r1, r0, #4294967295
 8000e70:	d202      	bcs.n	8000e78 <__udivmoddi4+0x154>
 8000e72:	45a6      	cmp	lr, r4
 8000e74:	f200 80bb 	bhi.w	8000fee <__udivmoddi4+0x2ca>
 8000e78:	4608      	mov	r0, r1
 8000e7a:	eba4 040e 	sub.w	r4, r4, lr
 8000e7e:	ea40 4003 	orr.w	r0, r0, r3, lsl #16
 8000e82:	e79c      	b.n	8000dbe <__udivmoddi4+0x9a>
 8000e84:	f1c6 0720 	rsb	r7, r6, #32
 8000e88:	40b3      	lsls	r3, r6
 8000e8a:	fa22 fc07 	lsr.w	ip, r2, r7
 8000e8e:	ea4c 0c03 	orr.w	ip, ip, r3
 8000e92:	fa20 f407 	lsr.w	r4, r0, r7
 8000e96:	fa01 f306 	lsl.w	r3, r1, r6
 8000e9a:	431c      	orrs	r4, r3
 8000e9c:	40f9      	lsrs	r1, r7
 8000e9e:	ea4f 491c 	mov.w	r9, ip, lsr #16
 8000ea2:	fa00 f306 	lsl.w	r3, r0, r6
 8000ea6:	fbb1 f8f9 	udiv	r8, r1, r9
 8000eaa:	0c20      	lsrs	r0, r4, #16
 8000eac:	fa1f fe8c 	uxth.w	lr, ip
 8000eb0:	fb09 1118 	mls	r1, r9, r8, r1
 8000eb4:	ea40 4101 	orr.w	r1, r0, r1, lsl #16
 8000eb8:	fb08 f00e 	mul.w	r0, r8, lr
 8000ebc:	4288      	cmp	r0, r1
 8000ebe:	fa02 f206 	lsl.w	r2, r2, r6
 8000ec2:	d90b      	bls.n	8000edc <__udivmoddi4+0x1b8>
 8000ec4:	eb1c 0101 	adds.w	r1, ip, r1
 8000ec8:	f108 3aff 	add.w	sl, r8, #4294967295
 8000ecc:	f080 8088 	bcs.w	8000fe0 <__udivmoddi4+0x2bc>
 8000ed0:	4288      	cmp	r0, r1
 8000ed2:	f240 8085 	bls.w	8000fe0 <__udivmoddi4+0x2bc>
 8000ed6:	f1a8 0802 	sub.w	r8, r8, #2
 8000eda:	4461      	add	r1, ip
 8000edc:	1a09      	subs	r1, r1, r0
 8000ede:	b2a4      	uxth	r4, r4
 8000ee0:	fbb1 f0f9 	udiv	r0, r1, r9
 8000ee4:	fb09 1110 	mls	r1, r9, r0, r1
 8000ee8:	ea44 4101 	orr.w	r1, r4, r1, lsl #16
 8000eec:	fb00 fe0e 	mul.w	lr, r0, lr
 8000ef0:	458e      	cmp	lr, r1
 8000ef2:	d908      	bls.n	8000f06 <__udivmoddi4+0x1e2>
 8000ef4:	eb1c 0101 	adds.w	r1, ip, r1
 8000ef8:	f100 34ff 	add.w	r4, r0, #4294967295
 8000efc:	d26c      	bcs.n	8000fd8 <__udivmoddi4+0x2b4>
 8000efe:	458e      	cmp	lr, r1
 8000f00:	d96a      	bls.n	8000fd8 <__udivmoddi4+0x2b4>
 8000f02:	3802      	subs	r0, #2
 8000f04:	4461      	add	r1, ip
 8000f06:	ea40 4008 	orr.w	r0, r0, r8, lsl #16
 8000f0a:	fba0 9402 	umull	r9, r4, r0, r2
 8000f0e:	eba1 010e 	sub.w	r1, r1, lr
 8000f12:	42a1      	cmp	r1, r4
 8000f14:	46c8      	mov	r8, r9
 8000f16:	46a6      	mov	lr, r4
 8000f18:	d356      	bcc.n	8000fc8 <__udivmoddi4+0x2a4>
 8000f1a:	d053      	beq.n	8000fc4 <__udivmoddi4+0x2a0>
 8000f1c:	b15d      	cbz	r5, 8000f36 <__udivmoddi4+0x212>
 8000f1e:	ebb3 0208 	subs.w	r2, r3, r8
 8000f22:	eb61 010e 	sbc.w	r1, r1, lr
 8000f26:	fa01 f707 	lsl.w	r7, r1, r7
 8000f2a:	fa22 f306 	lsr.w	r3, r2, r6
 8000f2e:	40f1      	lsrs	r1, r6
 8000f30:	431f      	orrs	r7, r3
 8000f32:	e9c5 7100 	strd	r7, r1, [r5]
 8000f36:	2600      	movs	r6, #0
 8000f38:	4631      	mov	r1, r6
 8000f3a:	e8bd 87f0 	ldmia.w	sp!, {r4, r5, r6, r7, r8, r9, sl, pc}
 8000f3e:	f1c2 0320 	rsb	r3, r2, #32
 8000f42:	40d8      	lsrs	r0, r3
 8000f44:	fa0c fc02 	lsl.w	ip, ip, r2
 8000f48:	fa21 f303 	lsr.w	r3, r1, r3
 8000f4c:	4091      	lsls	r1, r2
 8000f4e:	4301      	orrs	r1, r0
 8000f50:	ea4f 471c 	mov.w	r7, ip, lsr #16
 8000f54:	fa1f fe8c 	uxth.w	lr, ip
 8000f58:	fbb3 f0f7 	udiv	r0, r3, r7
 8000f5c:	fb07 3610 	mls	r6, r7, r0, r3
 8000f60:	0c0b      	lsrs	r3, r1, #16
 8000f62:	ea43 4306 	orr.w	r3, r3, r6, lsl #16
 8000f66:	fb00 f60e 	mul.w	r6, r0, lr
 8000f6a:	429e      	cmp	r6, r3
 8000f6c:	fa04 f402 	lsl.w	r4, r4, r2
 8000f70:	d908      	bls.n	8000f84 <__udivmoddi4+0x260>
 8000f72:	eb1c 0303 	adds.w	r3, ip, r3
 8000f76:	f100 38ff 	add.w	r8, r0, #4294967295
 8000f7a:	d22f      	bcs.n	8000fdc <__udivmoddi4+0x2b8>
 8000f7c:	429e      	cmp	r6, r3
 8000f7e:	d92d      	bls.n	8000fdc <__udivmoddi4+0x2b8>
 8000f80:	3802      	subs	r0, #2
 8000f82:	4463      	add	r3, ip
 8000f84:	1b9b      	subs	r3, r3, r6
 8000f86:	b289      	uxth	r1, r1
 8000f88:	fbb3 f6f7 	udiv	r6, r3, r7
 8000f8c:	fb07 3316 	mls	r3, r7, r6, r3
 8000f90:	ea41 4103 	orr.w	r1, r1, r3, lsl #16
 8000f94:	fb06 f30e 	mul.w	r3, r6, lr
 8000f98:	428b      	cmp	r3, r1
 8000f9a:	d908      	bls.n	8000fae <__udivmoddi4+0x28a>
 8000f9c:	eb1c 0101 	adds.w	r1, ip, r1
 8000fa0:	f106 38ff 	add.w	r8, r6, #4294967295
 8000fa4:	d216      	bcs.n	8000fd4 <__udivmoddi4+0x2b0>
 8000fa6:	428b      	cmp	r3, r1
 8000fa8:	d914      	bls.n	8000fd4 <__udivmoddi4+0x2b0>
 8000faa:	3e02      	subs	r6, #2
 8000fac:	4461      	add	r1, ip
 8000fae:	1ac9      	subs	r1, r1, r3
 8000fb0:	ea46 4600 	orr.w	r6, r6, r0, lsl #16
 8000fb4:	e738      	b.n	8000e28 <__udivmoddi4+0x104>
 8000fb6:	462e      	mov	r6, r5
 8000fb8:	4628      	mov	r0, r5
 8000fba:	e705      	b.n	8000dc8 <__udivmoddi4+0xa4>
 8000fbc:	4606      	mov	r6, r0
 8000fbe:	e6e3      	b.n	8000d88 <__udivmoddi4+0x64>
 8000fc0:	4618      	mov	r0, r3
 8000fc2:	e6f8      	b.n	8000db6 <__udivmoddi4+0x92>
 8000fc4:	454b      	cmp	r3, r9
 8000fc6:	d2a9      	bcs.n	8000f1c <__udivmoddi4+0x1f8>
 8000fc8:	ebb9 0802 	subs.w	r8, r9, r2
 8000fcc:	eb64 0e0c 	sbc.w	lr, r4, ip
 8000fd0:	3801      	subs	r0, #1
 8000fd2:	e7a3      	b.n	8000f1c <__udivmoddi4+0x1f8>
 8000fd4:	4646      	mov	r6, r8
 8000fd6:	e7ea      	b.n	8000fae <__udivmoddi4+0x28a>
 8000fd8:	4620      	mov	r0, r4
 8000fda:	e794      	b.n	8000f06 <__udivmoddi4+0x1e2>
 8000fdc:	4640      	mov	r0, r8
 8000fde:	e7d1      	b.n	8000f84 <__udivmoddi4+0x260>
 8000fe0:	46d0      	mov	r8, sl
 8000fe2:	e77b      	b.n	8000edc <__udivmoddi4+0x1b8>
 8000fe4:	3b02      	subs	r3, #2
 8000fe6:	4461      	add	r1, ip
 8000fe8:	e732      	b.n	8000e50 <__udivmoddi4+0x12c>
 8000fea:	4630      	mov	r0, r6
 8000fec:	e709      	b.n	8000e02 <__udivmoddi4+0xde>
 8000fee:	4464      	add	r4, ip
 8000ff0:	3802      	subs	r0, #2
 8000ff2:	e742      	b.n	8000e7a <__udivmoddi4+0x156>

08000ff4 <__aeabi_idiv0>:
 8000ff4:	4770      	bx	lr
 8000ff6:	bf00      	nop

08000ff8 <SystemClock_Config>:
 8000ff8:	b500      	push	{lr}
 8000ffa:	b095      	sub	sp, #84	; 0x54
 8000ffc:	222c      	movs	r2, #44	; 0x2c
 8000ffe:	2100      	movs	r1, #0
 8001000:	a809      	add	r0, sp, #36	; 0x24
 8001002:	f008 fc4d 	bl	80098a0 <memset>
 8001006:	2214      	movs	r2, #20
 8001008:	2100      	movs	r1, #0
 800100a:	a803      	add	r0, sp, #12
 800100c:	f008 fc48 	bl	80098a0 <memset>
 8001010:	2300      	movs	r3, #0
 8001012:	4a19      	ldr	r2, [pc, #100]	; (8001078 <SystemClock_Config+0x80>)
 8001014:	9301      	str	r3, [sp, #4]
 8001016:	6c11      	ldr	r1, [r2, #64]	; 0x40
 8001018:	f041 5180 	orr.w	r1, r1, #268435456	; 0x10000000
 800101c:	6411      	str	r1, [r2, #64]	; 0x40
 800101e:	6c12      	ldr	r2, [r2, #64]	; 0x40
 8001020:	f002 5280 	and.w	r2, r2, #268435456	; 0x10000000
 8001024:	9201      	str	r2, [sp, #4]
 8001026:	9a01      	ldr	r2, [sp, #4]
 8001028:	4a14      	ldr	r2, [pc, #80]	; (800107c <SystemClock_Config+0x84>)
 800102a:	9302      	str	r3, [sp, #8]
 800102c:	6811      	ldr	r1, [r2, #0]
 800102e:	f441 4180 	orr.w	r1, r1, #16384	; 0x4000
 8001032:	6011      	str	r1, [r2, #0]
 8001034:	6812      	ldr	r2, [r2, #0]
 8001036:	930e      	str	r3, [sp, #56]	; 0x38
 8001038:	f402 4280 	and.w	r2, r2, #16384	; 0x4000
 800103c:	9202      	str	r2, [sp, #8]
 800103e:	9a02      	ldr	r2, [sp, #8]
 8001040:	2202      	movs	r2, #2
 8001042:	9208      	str	r2, [sp, #32]
 8001044:	2001      	movs	r0, #1
 8001046:	2210      	movs	r2, #16
 8001048:	e9cd 020b 	strd	r0, r2, [sp, #44]	; 0x2c
 800104c:	a808      	add	r0, sp, #32
 800104e:	f005 f889 	bl	8006164 <HAL_RCC_OscConfig>
 8001052:	4601      	mov	r1, r0
 8001054:	b108      	cbz	r0, 800105a <SystemClock_Config+0x62>
 8001056:	b672      	cpsid	i
 8001058:	e7fe      	b.n	8001058 <SystemClock_Config+0x60>
 800105a:	230f      	movs	r3, #15
 800105c:	e9cd 3003 	strd	r3, r0, [sp, #12]
 8001060:	e9cd 0005 	strd	r0, r0, [sp, #20]
 8001064:	9007      	str	r0, [sp, #28]
 8001066:	a803      	add	r0, sp, #12
 8001068:	f005 fa5a 	bl	8006520 <HAL_RCC_ClockConfig>
 800106c:	b108      	cbz	r0, 8001072 <SystemClock_Config+0x7a>
 800106e:	b672      	cpsid	i
 8001070:	e7fe      	b.n	8001070 <SystemClock_Config+0x78>
 8001072:	b015      	add	sp, #84	; 0x54
 8001074:	f85d fb04 	ldr.w	pc, [sp], #4
 8001078:	40023800 	.word	0x40023800
 800107c:	40007000 	.word	0x40007000

08001080 <main>:
 8001080:	b580      	push	{r7, lr}
 8001082:	b09c      	sub	sp, #112	; 0x70
 8001084:	f003 fce0 	bl	8004a48 <HAL_Init>
 8001088:	f7ff ffb6 	bl	8000ff8 <SystemClock_Config>
 800108c:	2214      	movs	r2, #20
 800108e:	2100      	movs	r1, #0
 8001090:	a813      	add	r0, sp, #76	; 0x4c
 8001092:	f008 fc05 	bl	80098a0 <memset>
 8001096:	2400      	movs	r4, #0
 8001098:	4ba0      	ldr	r3, [pc, #640]	; (800131c <main+0x29c>)
 800109a:	9402      	str	r4, [sp, #8]
 800109c:	6b1a      	ldr	r2, [r3, #48]	; 0x30
 800109e:	48a0      	ldr	r0, [pc, #640]	; (8001320 <main+0x2a0>)
 80010a0:	f042 0210 	orr.w	r2, r2, #16
 80010a4:	631a      	str	r2, [r3, #48]	; 0x30
 80010a6:	6b1a      	ldr	r2, [r3, #48]	; 0x30
 80010a8:	f002 0210 	and.w	r2, r2, #16
 80010ac:	9202      	str	r2, [sp, #8]
 80010ae:	9a02      	ldr	r2, [sp, #8]
 80010b0:	9403      	str	r4, [sp, #12]
 80010b2:	6b1a      	ldr	r2, [r3, #48]	; 0x30
 80010b4:	f042 0201 	orr.w	r2, r2, #1
 80010b8:	631a      	str	r2, [r3, #48]	; 0x30
 80010ba:	6b1a      	ldr	r2, [r3, #48]	; 0x30
 80010bc:	f002 0201 	and.w	r2, r2, #1
 80010c0:	9203      	str	r2, [sp, #12]
 80010c2:	9a03      	ldr	r2, [sp, #12]
 80010c4:	9404      	str	r4, [sp, #16]
 80010c6:	6b1a      	ldr	r2, [r3, #48]	; 0x30
 80010c8:	f042 0204 	orr.w	r2, r2, #4
 80010cc:	631a      	str	r2, [r3, #48]	; 0x30
 80010ce:	6b1a      	ldr	r2, [r3, #48]	; 0x30
 80010d0:	f002 0204 	and.w	r2, r2, #4
 80010d4:	9204      	str	r2, [sp, #16]
 80010d6:	9a04      	ldr	r2, [sp, #16]
 80010d8:	9405      	str	r4, [sp, #20]
 80010da:	6b1a      	ldr	r2, [r3, #48]	; 0x30
 80010dc:	f042 0202 	orr.w	r2, r2, #2
 80010e0:	631a      	str	r2, [r3, #48]	; 0x30
 80010e2:	6b1b      	ldr	r3, [r3, #48]	; 0x30
 80010e4:	f003 0302 	and.w	r3, r3, #2
 80010e8:	9305      	str	r3, [sp, #20]
 80010ea:	4622      	mov	r2, r4
 80010ec:	f44f 51bf 	mov.w	r1, #6112	; 0x17e0
 80010f0:	9b05      	ldr	r3, [sp, #20]
 80010f2:	f003 fe83 	bl	8004dfc <HAL_GPIO_WritePin>
 80010f6:	488b      	ldr	r0, [pc, #556]	; (8001324 <main+0x2a4>)
 80010f8:	4622      	mov	r2, r4
 80010fa:	210c      	movs	r1, #12
 80010fc:	f003 fe7e 	bl	8004dfc <HAL_GPIO_WritePin>
 8001100:	4622      	mov	r2, r4
 8001102:	4889      	ldr	r0, [pc, #548]	; (8001328 <main+0x2a8>)
 8001104:	2120      	movs	r1, #32
 8001106:	f003 fe79 	bl	8004dfc <HAL_GPIO_WritePin>
 800110a:	2501      	movs	r5, #1
 800110c:	f44f 53bf 	mov.w	r3, #6112	; 0x17e0
 8001110:	4883      	ldr	r0, [pc, #524]	; (8001320 <main+0x2a0>)
 8001112:	a913      	add	r1, sp, #76	; 0x4c
 8001114:	e9cd 3513 	strd	r3, r5, [sp, #76]	; 0x4c
 8001118:	e9cd 4415 	strd	r4, r4, [sp, #84]	; 0x54
 800111c:	f003 fd94 	bl	8004c48 <HAL_GPIO_Init>
 8001120:	230c      	movs	r3, #12
 8001122:	e9cd 3513 	strd	r3, r5, [sp, #76]	; 0x4c
 8001126:	487f      	ldr	r0, [pc, #508]	; (8001324 <main+0x2a4>)
 8001128:	9415      	str	r4, [sp, #84]	; 0x54
 800112a:	2302      	movs	r3, #2
 800112c:	a913      	add	r1, sp, #76	; 0x4c
 800112e:	9316      	str	r3, [sp, #88]	; 0x58
 8001130:	2620      	movs	r6, #32
 8001132:	f003 fd89 	bl	8004c48 <HAL_GPIO_Init>
 8001136:	487c      	ldr	r0, [pc, #496]	; (8001328 <main+0x2a8>)
 8001138:	a913      	add	r1, sp, #76	; 0x4c
 800113a:	e9cd 6513 	strd	r6, r5, [sp, #76]	; 0x4c
 800113e:	e9cd 4415 	strd	r4, r4, [sp, #84]	; 0x54
 8001142:	f003 fd81 	bl	8004c48 <HAL_GPIO_Init>
 8001146:	2210      	movs	r2, #16
 8001148:	4621      	mov	r1, r4
 800114a:	eb0d 0006 	add.w	r0, sp, r6
 800114e:	f008 fba7 	bl	80098a0 <memset>
 8001152:	221c      	movs	r2, #28
 8001154:	4621      	mov	r1, r4
 8001156:	a80c      	add	r0, sp, #48	; 0x30
 8001158:	e9cd 4406 	strd	r4, r4, [sp, #24]
 800115c:	f008 fba0 	bl	80098a0 <memset>
 8001160:	4632      	mov	r2, r6
 8001162:	4621      	mov	r1, r4
 8001164:	a813      	add	r0, sp, #76	; 0x4c
 8001166:	f008 fb9b 	bl	80098a0 <memset>
 800116a:	4d70      	ldr	r5, [pc, #448]	; (800132c <main+0x2ac>)
 800116c:	4b70      	ldr	r3, [pc, #448]	; (8001330 <main+0x2b0>)
 800116e:	60ac      	str	r4, [r5, #8]
 8001170:	e9c5 3400 	strd	r3, r4, [r5]
 8001174:	4628      	mov	r0, r5
 8001176:	f641 431f 	movw	r3, #7199	; 0x1c1f
 800117a:	e9c5 3403 	strd	r3, r4, [r5, #12]
 800117e:	e9c5 4405 	strd	r4, r4, [r5, #20]
 8001182:	f005 fc95 	bl	8006ab0 <HAL_TIM_Base_Init>
 8001186:	b108      	cbz	r0, 800118c <main+0x10c>
 8001188:	b672      	cpsid	i
 800118a:	e7fe      	b.n	800118a <main+0x10a>
 800118c:	f44f 5780 	mov.w	r7, #4096	; 0x1000
 8001190:	a908      	add	r1, sp, #32
 8001192:	4628      	mov	r0, r5
 8001194:	9708      	str	r7, [sp, #32]
 8001196:	f005 fece 	bl	8006f36 <HAL_TIM_ConfigClockSource>
 800119a:	b108      	cbz	r0, 80011a0 <main+0x120>
 800119c:	b672      	cpsid	i
 800119e:	e7fe      	b.n	800119e <main+0x11e>
 80011a0:	4628      	mov	r0, r5
 80011a2:	f005 fcb1 	bl	8006b08 <HAL_TIM_PWM_Init>
 80011a6:	b108      	cbz	r0, 80011ac <main+0x12c>
 80011a8:	b672      	cpsid	i
 80011aa:	e7fe      	b.n	80011aa <main+0x12a>
 80011ac:	e9cd 0006 	strd	r0, r0, [sp, #24]
 80011b0:	a906      	add	r1, sp, #24
 80011b2:	4628      	mov	r0, r5
 80011b4:	f006 f858 	bl	8007268 <HAL_TIMEx_MasterConfigSynchronization>
 80011b8:	4602      	mov	r2, r0
 80011ba:	b108      	cbz	r0, 80011c0 <main+0x140>
 80011bc:	b672      	cpsid	i
 80011be:	e7fe      	b.n	80011be <main+0x13e>
 80011c0:	2360      	movs	r3, #96	; 0x60
 80011c2:	e9cd 300c 	strd	r3, r0, [sp, #48]	; 0x30
 80011c6:	e9cd 000e 	strd	r0, r0, [sp, #56]	; 0x38
 80011ca:	e9cd 0010 	strd	r0, r0, [sp, #64]	; 0x40
 80011ce:	9012      	str	r0, [sp, #72]	; 0x48
 80011d0:	a90c      	add	r1, sp, #48	; 0x30
 80011d2:	4628      	mov	r0, r5
 80011d4:	f005 fd7c 	bl	8006cd0 <HAL_TIM_PWM_ConfigChannel>
 80011d8:	b108      	cbz	r0, 80011de <main+0x15e>
 80011da:	b672      	cpsid	i
 80011dc:	e7fe      	b.n	80011dc <main+0x15c>
 80011de:	2208      	movs	r2, #8
 80011e0:	a90c      	add	r1, sp, #48	; 0x30
 80011e2:	4628      	mov	r0, r5
 80011e4:	f005 fd74 	bl	8006cd0 <HAL_TIM_PWM_ConfigChannel>
 80011e8:	b108      	cbz	r0, 80011ee <main+0x16e>
 80011ea:	b672      	cpsid	i
 80011ec:	e7fe      	b.n	80011ec <main+0x16c>
 80011ee:	e9cd 0013 	strd	r0, r0, [sp, #76]	; 0x4c
 80011f2:	e9cd 0015 	strd	r0, r0, [sp, #84]	; 0x54
 80011f6:	9017      	str	r0, [sp, #92]	; 0x5c
 80011f8:	f44f 5300 	mov.w	r3, #8192	; 0x2000
 80011fc:	901a      	str	r0, [sp, #104]	; 0x68
 80011fe:	a913      	add	r1, sp, #76	; 0x4c
 8001200:	4628      	mov	r0, r5
 8001202:	9318      	str	r3, [sp, #96]	; 0x60
 8001204:	f006 f86e 	bl	80072e4 <HAL_TIMEx_ConfigBreakDeadTime>
 8001208:	4604      	mov	r4, r0
 800120a:	b108      	cbz	r0, 8001210 <main+0x190>
 800120c:	b672      	cpsid	i
 800120e:	e7fe      	b.n	800120e <main+0x18e>
 8001210:	4601      	mov	r1, r0
 8001212:	2210      	movs	r2, #16
 8001214:	a808      	add	r0, sp, #32
 8001216:	f008 fb43 	bl	80098a0 <memset>
 800121a:	221c      	movs	r2, #28
 800121c:	4621      	mov	r1, r4
 800121e:	a80c      	add	r0, sp, #48	; 0x30
 8001220:	4d44      	ldr	r5, [pc, #272]	; (8001334 <main+0x2b4>)
 8001222:	e9cd 4406 	strd	r4, r4, [sp, #24]
 8001226:	f008 fb3b 	bl	80098a0 <memset>
 800122a:	4632      	mov	r2, r6
 800122c:	4621      	mov	r1, r4
 800122e:	4e42      	ldr	r6, [pc, #264]	; (8001338 <main+0x2b8>)
 8001230:	a813      	add	r0, sp, #76	; 0x4c
 8001232:	f008 fb35 	bl	80098a0 <memset>
 8001236:	23a0      	movs	r3, #160	; 0xa0
 8001238:	e9c5 6300 	strd	r6, r3, [r5]
 800123c:	f44f 737a 	mov.w	r3, #1000	; 0x3e8
 8001240:	e9c5 3403 	strd	r3, r4, [r5, #12]
 8001244:	4628      	mov	r0, r5
 8001246:	2380      	movs	r3, #128	; 0x80
 8001248:	60ac      	str	r4, [r5, #8]
 800124a:	616c      	str	r4, [r5, #20]
 800124c:	61ab      	str	r3, [r5, #24]
 800124e:	f005 fc2f 	bl	8006ab0 <HAL_TIM_Base_Init>
 8001252:	b108      	cbz	r0, 8001258 <main+0x1d8>
 8001254:	b672      	cpsid	i
 8001256:	e7fe      	b.n	8001256 <main+0x1d6>
 8001258:	a908      	add	r1, sp, #32
 800125a:	4628      	mov	r0, r5
 800125c:	9708      	str	r7, [sp, #32]
 800125e:	f005 fe6a 	bl	8006f36 <HAL_TIM_ConfigClockSource>
 8001262:	b108      	cbz	r0, 8001268 <main+0x1e8>
 8001264:	b672      	cpsid	i
 8001266:	e7fe      	b.n	8001266 <main+0x1e6>
 8001268:	4628      	mov	r0, r5
 800126a:	f005 fc4d 	bl	8006b08 <HAL_TIM_PWM_Init>
 800126e:	b108      	cbz	r0, 8001274 <main+0x1f4>
 8001270:	b672      	cpsid	i
 8001272:	e7fe      	b.n	8001272 <main+0x1f2>
 8001274:	2300      	movs	r3, #0
 8001276:	482f      	ldr	r0, [pc, #188]	; (8001334 <main+0x2b4>)
 8001278:	a906      	add	r1, sp, #24
 800127a:	e9cd 3306 	strd	r3, r3, [sp, #24]
 800127e:	f005 fff3 	bl	8007268 <HAL_TIMEx_MasterConfigSynchronization>
 8001282:	b108      	cbz	r0, 8001288 <main+0x208>
 8001284:	b672      	cpsid	i
 8001286:	e7fe      	b.n	8001286 <main+0x206>
 8001288:	2360      	movs	r3, #96	; 0x60
 800128a:	e9cd 300c 	strd	r3, r0, [sp, #48]	; 0x30
 800128e:	e9cd 0010 	strd	r0, r0, [sp, #64]	; 0x40
 8001292:	900e      	str	r0, [sp, #56]	; 0x38
 8001294:	9012      	str	r0, [sp, #72]	; 0x48
 8001296:	220c      	movs	r2, #12
 8001298:	4826      	ldr	r0, [pc, #152]	; (8001334 <main+0x2b4>)
 800129a:	a90c      	add	r1, sp, #48	; 0x30
 800129c:	f005 fd18 	bl	8006cd0 <HAL_TIM_PWM_ConfigChannel>
 80012a0:	b108      	cbz	r0, 80012a6 <main+0x226>
 80012a2:	b672      	cpsid	i
 80012a4:	e7fe      	b.n	80012a4 <main+0x224>
 80012a6:	e9cd 0013 	strd	r0, r0, [sp, #76]	; 0x4c
 80012aa:	e9cd 0015 	strd	r0, r0, [sp, #84]	; 0x54
 80012ae:	9017      	str	r0, [sp, #92]	; 0x5c
 80012b0:	f44f 5300 	mov.w	r3, #8192	; 0x2000
 80012b4:	901a      	str	r0, [sp, #104]	; 0x68
 80012b6:	a913      	add	r1, sp, #76	; 0x4c
 80012b8:	481e      	ldr	r0, [pc, #120]	; (8001334 <main+0x2b4>)
 80012ba:	9318      	str	r3, [sp, #96]	; 0x60
 80012bc:	f006 f812 	bl	80072e4 <HAL_TIMEx_ConfigBreakDeadTime>
 80012c0:	4604      	mov	r4, r0
 80012c2:	b108      	cbz	r0, 80012c8 <main+0x248>
 80012c4:	b672      	cpsid	i
 80012c6:	e7fe      	b.n	80012c6 <main+0x246>
 80012c8:	481a      	ldr	r0, [pc, #104]	; (8001334 <main+0x2b4>)
 80012ca:	4d1c      	ldr	r5, [pc, #112]	; (800133c <main+0x2bc>)
 80012cc:	f003 fa7e 	bl	80047cc <HAL_TIM_MspPostInit>
 80012d0:	481b      	ldr	r0, [pc, #108]	; (8001340 <main+0x2c0>)
 80012d2:	f44f 33e1 	mov.w	r3, #115200	; 0x1c200
 80012d6:	e9c0 5300 	strd	r5, r3, [r0]
 80012da:	230c      	movs	r3, #12
 80012dc:	e9c0 3405 	strd	r3, r4, [r0, #20]
 80012e0:	e9c0 4402 	strd	r4, r4, [r0, #8]
 80012e4:	6104      	str	r4, [r0, #16]
 80012e6:	61c4      	str	r4, [r0, #28]
 80012e8:	f006 f8e6 	bl	80074b8 <HAL_UART_Init>
 80012ec:	4603      	mov	r3, r0
 80012ee:	b108      	cbz	r0, 80012f4 <main+0x274>
 80012f0:	b672      	cpsid	i
 80012f2:	e7fe      	b.n	80012f2 <main+0x272>
 80012f4:	4813      	ldr	r0, [pc, #76]	; (8001344 <main+0x2c4>)
 80012f6:	4914      	ldr	r1, [pc, #80]	; (8001348 <main+0x2c8>)
 80012f8:	4a14      	ldr	r2, [pc, #80]	; (800134c <main+0x2cc>)
 80012fa:	6203      	str	r3, [r0, #32]
 80012fc:	e9c0 1200 	strd	r1, r2, [r0]
 8001300:	f44f 4280 	mov.w	r2, #16384	; 0x4000
 8001304:	e9c0 3302 	strd	r3, r3, [r0, #8]
 8001308:	e9c0 2304 	strd	r2, r3, [r0, #16]
 800130c:	e9c0 3306 	strd	r3, r3, [r0, #24]
 8001310:	f003 fe84 	bl	800501c <HAL_I2C_Init>
 8001314:	4604      	mov	r4, r0
 8001316:	b1d8      	cbz	r0, 8001350 <main+0x2d0>
 8001318:	b672      	cpsid	i
 800131a:	e7fe      	b.n	800131a <main+0x29a>
 800131c:	40023800 	.word	0x40023800
 8001320:	40021000 	.word	0x40021000
 8001324:	40020000 	.word	0x40020000
 8001328:	40020800 	.word	0x40020800
 800132c:	200003c4 	.word	0x200003c4
 8001330:	40010400 	.word	0x40010400
 8001334:	200002a4 	.word	0x200002a4
 8001338:	40010000 	.word	0x40010000
 800133c:	40004800 	.word	0x40004800
 8001340:	2000040c 	.word	0x2000040c
 8001344:	20000250 	.word	0x20000250
 8001348:	40005400 	.word	0x40005400
 800134c:	00061a80 	.word	0x00061a80
 8001350:	4d4a      	ldr	r5, [pc, #296]	; (800147c <main+0x3fc>)
 8001352:	4601      	mov	r1, r0
 8001354:	2220      	movs	r2, #32
 8001356:	a814      	add	r0, sp, #80	; 0x50
 8001358:	f008 faa2 	bl	80098a0 <memset>
 800135c:	2601      	movs	r6, #1
 800135e:	f04f 4380 	mov.w	r3, #1073741824	; 0x40000000
 8001362:	f64f 77ff 	movw	r7, #65535	; 0xffff
 8001366:	a913      	add	r1, sp, #76	; 0x4c
 8001368:	4628      	mov	r0, r5
 800136a:	e9cd 440c 	strd	r4, r4, [sp, #48]	; 0x30
 800136e:	e9c5 3400 	strd	r3, r4, [r5]
 8001372:	e9c5 7403 	strd	r7, r4, [r5, #12]
 8001376:	60ac      	str	r4, [r5, #8]
 8001378:	61ac      	str	r4, [r5, #24]
 800137a:	9613      	str	r6, [sp, #76]	; 0x4c
 800137c:	9615      	str	r6, [sp, #84]	; 0x54
 800137e:	9619      	str	r6, [sp, #100]	; 0x64
 8001380:	f005 fc1a 	bl	8006bb8 <HAL_TIM_Encoder_Init>
 8001384:	b108      	cbz	r0, 800138a <main+0x30a>
 8001386:	b672      	cpsid	i
 8001388:	e7fe      	b.n	8001388 <main+0x308>
 800138a:	e9cd 000c 	strd	r0, r0, [sp, #48]	; 0x30
 800138e:	a90c      	add	r1, sp, #48	; 0x30
 8001390:	4628      	mov	r0, r5
 8001392:	f005 ff69 	bl	8007268 <HAL_TIMEx_MasterConfigSynchronization>
 8001396:	4604      	mov	r4, r0
 8001398:	b108      	cbz	r0, 800139e <main+0x31e>
 800139a:	b672      	cpsid	i
 800139c:	e7fe      	b.n	800139c <main+0x31c>
 800139e:	4d38      	ldr	r5, [pc, #224]	; (8001480 <main+0x400>)
 80013a0:	4601      	mov	r1, r0
 80013a2:	2220      	movs	r2, #32
 80013a4:	a814      	add	r0, sp, #80	; 0x50
 80013a6:	f008 fa7b 	bl	80098a0 <memset>
 80013aa:	4b36      	ldr	r3, [pc, #216]	; (8001484 <main+0x404>)
 80013ac:	612c      	str	r4, [r5, #16]
 80013ae:	a913      	add	r1, sp, #76	; 0x4c
 80013b0:	4628      	mov	r0, r5
 80013b2:	e9cd 440c 	strd	r4, r4, [sp, #48]	; 0x30
 80013b6:	e9c5 3400 	strd	r3, r4, [r5]
 80013ba:	e9c5 4702 	strd	r4, r7, [r5, #8]
 80013be:	61ac      	str	r4, [r5, #24]
 80013c0:	9613      	str	r6, [sp, #76]	; 0x4c
 80013c2:	9615      	str	r6, [sp, #84]	; 0x54
 80013c4:	9619      	str	r6, [sp, #100]	; 0x64
 80013c6:	f005 fbf7 	bl	8006bb8 <HAL_TIM_Encoder_Init>
 80013ca:	b108      	cbz	r0, 80013d0 <main+0x350>
 80013cc:	b672      	cpsid	i
 80013ce:	e7fe      	b.n	80013ce <main+0x34e>
 80013d0:	e9cd 000c 	strd	r0, r0, [sp, #48]	; 0x30
 80013d4:	a90c      	add	r1, sp, #48	; 0x30
 80013d6:	4628      	mov	r0, r5
 80013d8:	f005 ff46 	bl	8007268 <HAL_TIMEx_MasterConfigSynchronization>
 80013dc:	4604      	mov	r4, r0
 80013de:	b108      	cbz	r0, 80013e4 <main+0x364>
 80013e0:	b672      	cpsid	i
 80013e2:	e7fe      	b.n	80013e2 <main+0x362>
 80013e4:	e9cd 000c 	strd	r0, r0, [sp, #48]	; 0x30
 80013e8:	2210      	movs	r2, #16
 80013ea:	4601      	mov	r1, r0
 80013ec:	a813      	add	r0, sp, #76	; 0x4c
 80013ee:	f008 fa57 	bl	80098a0 <memset>
 80013f2:	4825      	ldr	r0, [pc, #148]	; (8001488 <main+0x408>)
 80013f4:	4a25      	ldr	r2, [pc, #148]	; (800148c <main+0x40c>)
 80013f6:	6084      	str	r4, [r0, #8]
 80013f8:	2347      	movs	r3, #71	; 0x47
 80013fa:	e9c0 2300 	strd	r2, r3, [r0]
 80013fe:	f64f 73fe 	movw	r3, #65534	; 0xfffe
 8001402:	e9c0 3403 	strd	r3, r4, [r0, #12]
 8001406:	6184      	str	r4, [r0, #24]
 8001408:	f005 fbaa 	bl	8006b60 <HAL_TIM_IC_Init>
 800140c:	b108      	cbz	r0, 8001412 <main+0x392>
 800140e:	b672      	cpsid	i
 8001410:	e7fe      	b.n	8001410 <main+0x390>
 8001412:	2300      	movs	r3, #0
 8001414:	481c      	ldr	r0, [pc, #112]	; (8001488 <main+0x408>)
 8001416:	a90c      	add	r1, sp, #48	; 0x30
 8001418:	e9cd 330c 	strd	r3, r3, [sp, #48]	; 0x30
 800141c:	f005 ff24 	bl	8007268 <HAL_TIMEx_MasterConfigSynchronization>
 8001420:	4602      	mov	r2, r0
 8001422:	b108      	cbz	r0, 8001428 <main+0x3a8>
 8001424:	b672      	cpsid	i
 8001426:	e7fe      	b.n	8001426 <main+0x3a6>
 8001428:	2301      	movs	r3, #1
 800142a:	e9cd 3014 	strd	r3, r0, [sp, #80]	; 0x50
 800142e:	9013      	str	r0, [sp, #76]	; 0x4c
 8001430:	9016      	str	r0, [sp, #88]	; 0x58
 8001432:	a913      	add	r1, sp, #76	; 0x4c
 8001434:	4814      	ldr	r0, [pc, #80]	; (8001488 <main+0x408>)
 8001436:	f005 fce1 	bl	8006dfc <HAL_TIM_IC_ConfigChannel>
 800143a:	b108      	cbz	r0, 8001440 <main+0x3c0>
 800143c:	b672      	cpsid	i
 800143e:	e7fe      	b.n	800143e <main+0x3be>
 8001440:	9001      	str	r0, [sp, #4]
 8001442:	f008 f96d 	bl	8009720 <OLED_Init>
 8001446:	f006 fa9f 	bl	8007988 <osKernelInitialize>
 800144a:	4a11      	ldr	r2, [pc, #68]	; (8001490 <main+0x410>)
 800144c:	9901      	ldr	r1, [sp, #4]
 800144e:	4811      	ldr	r0, [pc, #68]	; (8001494 <main+0x414>)
 8001450:	f006 fac6 	bl	80079e0 <osThreadNew>
 8001454:	4b10      	ldr	r3, [pc, #64]	; (8001498 <main+0x418>)
 8001456:	4a11      	ldr	r2, [pc, #68]	; (800149c <main+0x41c>)
 8001458:	6018      	str	r0, [r3, #0]
 800145a:	9901      	ldr	r1, [sp, #4]
 800145c:	4810      	ldr	r0, [pc, #64]	; (80014a0 <main+0x420>)
 800145e:	f006 fabf 	bl	80079e0 <osThreadNew>
 8001462:	4b10      	ldr	r3, [pc, #64]	; (80014a4 <main+0x424>)
 8001464:	4a10      	ldr	r2, [pc, #64]	; (80014a8 <main+0x428>)
 8001466:	6018      	str	r0, [r3, #0]
 8001468:	9901      	ldr	r1, [sp, #4]
 800146a:	4810      	ldr	r0, [pc, #64]	; (80014ac <main+0x42c>)
 800146c:	f006 fab8 	bl	80079e0 <osThreadNew>
 8001470:	4b0f      	ldr	r3, [pc, #60]	; (80014b0 <main+0x430>)
 8001472:	6018      	str	r0, [r3, #0]
 8001474:	f006 fa9a 	bl	80079ac <osKernelStart>
 8001478:	e7fe      	b.n	8001478 <main+0x3f8>
 800147a:	bf00      	nop
 800147c:	200002ec 	.word	0x200002ec
 8001480:	2000037c 	.word	0x2000037c
 8001484:	40000800 	.word	0x40000800
 8001488:	20000334 	.word	0x20000334
 800148c:	40000400 	.word	0x40000400
 8001490:	0800e25c 	.word	0x0800e25c
 8001494:	0800419d 	.word	0x0800419d
 8001498:	2000024c 	.word	0x2000024c
 800149c:	0800e214 	.word	0x0800e214
 80014a0:	080043f9 	.word	0x080043f9
 80014a4:	2000020c 	.word	0x2000020c
 80014a8:	0800e238 	.word	0x0800e238
 80014ac:	0800157d 	.word	0x0800157d
 80014b0:	2000021c 	.word	0x2000021c

080014b4 <HAL_UART_RxCpltCallback>:
 80014b4:	b5f0      	push	{r4, r5, r6, r7, lr}
 80014b6:	4c17      	ldr	r4, [pc, #92]	; (8001514 <HAL_UART_RxCpltCallback+0x60>)
 80014b8:	4a17      	ldr	r2, [pc, #92]	; (8001518 <HAL_UART_RxCpltCallback+0x64>)
 80014ba:	7823      	ldrb	r3, [r4, #0]
 80014bc:	4d17      	ldr	r5, [pc, #92]	; (800151c <HAL_UART_RxCpltCallback+0x68>)
 80014be:	4e18      	ldr	r6, [pc, #96]	; (8001520 <HAL_UART_RxCpltCallback+0x6c>)
 80014c0:	4f18      	ldr	r7, [pc, #96]	; (8001524 <HAL_UART_RxCpltCallback+0x70>)
 80014c2:	2b6e      	cmp	r3, #110	; 0x6e
 80014c4:	b089      	sub	sp, #36	; 0x24
 80014c6:	d11b      	bne.n	8001500 <HAL_UART_RxCpltCallback+0x4c>
 80014c8:	2300      	movs	r3, #0
 80014ca:	6013      	str	r3, [r2, #0]
 80014cc:	2301      	movs	r3, #1
 80014ce:	702b      	strb	r3, [r5, #0]
 80014d0:	4910      	ldr	r1, [pc, #64]	; (8001514 <HAL_UART_RxCpltCallback+0x60>)
 80014d2:	4815      	ldr	r0, [pc, #84]	; (8001528 <HAL_UART_RxCpltCallback+0x74>)
 80014d4:	2201      	movs	r2, #1
 80014d6:	f006 fa3e 	bl	8007956 <HAL_UART_Receive_IT>
 80014da:	683b      	ldr	r3, [r7, #0]
 80014dc:	9301      	str	r3, [sp, #4]
 80014de:	7833      	ldrb	r3, [r6, #0]
 80014e0:	7822      	ldrb	r2, [r4, #0]
 80014e2:	9300      	str	r3, [sp, #0]
 80014e4:	4911      	ldr	r1, [pc, #68]	; (800152c <HAL_UART_RxCpltCallback+0x78>)
 80014e6:	782b      	ldrb	r3, [r5, #0]
 80014e8:	a803      	add	r0, sp, #12
 80014ea:	f009 f861 	bl	800a5b0 <siprintf>
 80014ee:	aa03      	add	r2, sp, #12
 80014f0:	2128      	movs	r1, #40	; 0x28
 80014f2:	200a      	movs	r0, #10
 80014f4:	f008 f8f4 	bl	80096e0 <OLED_ShowString>
 80014f8:	f008 f856 	bl	80095a8 <OLED_Refresh_Gram>
 80014fc:	b009      	add	sp, #36	; 0x24
 80014fe:	bdf0      	pop	{r4, r5, r6, r7, pc}
 8001500:	6811      	ldr	r1, [r2, #0]
 8001502:	2900      	cmp	r1, #0
 8001504:	d103      	bne.n	800150e <HAL_UART_RxCpltCallback+0x5a>
 8001506:	7033      	strb	r3, [r6, #0]
 8001508:	2301      	movs	r3, #1
 800150a:	6013      	str	r3, [r2, #0]
 800150c:	e7e0      	b.n	80014d0 <HAL_UART_RxCpltCallback+0x1c>
 800150e:	bfc8      	it	gt
 8001510:	603b      	strgt	r3, [r7, #0]
 8001512:	e7dd      	b.n	80014d0 <HAL_UART_RxCpltCallback+0x1c>
 8001514:	20000220 	.word	0x20000220
 8001518:	20000450 	.word	0x20000450
 800151c:	20000456 	.word	0x20000456
 8001520:	20000244 	.word	0x20000244
 8001524:	20000248 	.word	0x20000248
 8001528:	2000040c 	.word	0x2000040c
 800152c:	0800e188 	.word	0x0800e188

08001530 <delay>:
 8001530:	4b03      	ldr	r3, [pc, #12]	; (8001540 <delay+0x10>)
 8001532:	681b      	ldr	r3, [r3, #0]
 8001534:	2200      	movs	r2, #0
 8001536:	625a      	str	r2, [r3, #36]	; 0x24
 8001538:	6a5a      	ldr	r2, [r3, #36]	; 0x24
 800153a:	4282      	cmp	r2, r0
 800153c:	d3fc      	bcc.n	8001538 <delay+0x8>
 800153e:	4770      	bx	lr
 8001540:	20000334 	.word	0x20000334

08001544 <HCSR04_Read>:
 8001544:	b510      	push	{r4, lr}
 8001546:	4c0b      	ldr	r4, [pc, #44]	; (8001574 <HCSR04_Read+0x30>)
 8001548:	2201      	movs	r2, #1
 800154a:	f44f 7100 	mov.w	r1, #512	; 0x200
 800154e:	4620      	mov	r0, r4
 8001550:	f003 fc54 	bl	8004dfc <HAL_GPIO_WritePin>
 8001554:	200a      	movs	r0, #10
 8001556:	f7ff ffeb 	bl	8001530 <delay>
 800155a:	f44f 7100 	mov.w	r1, #512	; 0x200
 800155e:	2200      	movs	r2, #0
 8001560:	4620      	mov	r0, r4
 8001562:	f003 fc4b 	bl	8004dfc <HAL_GPIO_WritePin>
 8001566:	4b04      	ldr	r3, [pc, #16]	; (8001578 <HCSR04_Read+0x34>)
 8001568:	681a      	ldr	r2, [r3, #0]
 800156a:	68d3      	ldr	r3, [r2, #12]
 800156c:	f043 0302 	orr.w	r3, r3, #2
 8001570:	60d3      	str	r3, [r2, #12]
 8001572:	bd10      	pop	{r4, pc}
 8001574:	40021000 	.word	0x40021000
 8001578:	20000334 	.word	0x20000334

0800157c <servoMotor>:
 800157c:	2100      	movs	r1, #0
 800157e:	b508      	push	{r3, lr}
 8001580:	4806      	ldr	r0, [pc, #24]	; (800159c <servoMotor+0x20>)
 8001582:	f005 fded 	bl	8007160 <HAL_TIM_IC_Start_IT>
 8001586:	4806      	ldr	r0, [pc, #24]	; (80015a0 <servoMotor+0x24>)
 8001588:	210c      	movs	r1, #12
 800158a:	f005 fde7 	bl	800715c <HAL_TIM_PWM_Start>
 800158e:	f7ff ffd9 	bl	8001544 <HCSR04_Read>
 8001592:	20c8      	movs	r0, #200	; 0xc8
 8001594:	f003 fa84 	bl	8004aa0 <HAL_Delay>
 8001598:	e7f9      	b.n	800158e <servoMotor+0x12>
 800159a:	bf00      	nop
 800159c:	20000334 	.word	0x20000334
 80015a0:	200002a4 	.word	0x200002a4
 80015a4:	00000000 	.word	0x00000000

080015a8 <HAL_TIM_IC_CaptureCallback>:
 80015a8:	b570      	push	{r4, r5, r6, lr}
 80015aa:	7f06      	ldrb	r6, [r0, #28]
 80015ac:	2e01      	cmp	r6, #1
 80015ae:	4604      	mov	r4, r0
 80015b0:	d110      	bne.n	80015d4 <HAL_TIM_IC_CaptureCallback+0x2c>
 80015b2:	4d27      	ldr	r5, [pc, #156]	; (8001650 <HAL_TIM_IC_CaptureCallback+0xa8>)
 80015b4:	7829      	ldrb	r1, [r5, #0]
 80015b6:	b971      	cbnz	r1, 80015d6 <HAL_TIM_IC_CaptureCallback+0x2e>
 80015b8:	f005 f958 	bl	800686c <HAL_TIM_ReadCapturedValue>
 80015bc:	4b25      	ldr	r3, [pc, #148]	; (8001654 <HAL_TIM_IC_CaptureCallback+0xac>)
 80015be:	702e      	strb	r6, [r5, #0]
 80015c0:	6018      	str	r0, [r3, #0]
 80015c2:	6823      	ldr	r3, [r4, #0]
 80015c4:	6a1a      	ldr	r2, [r3, #32]
 80015c6:	f022 020a 	bic.w	r2, r2, #10
 80015ca:	621a      	str	r2, [r3, #32]
 80015cc:	6a1a      	ldr	r2, [r3, #32]
 80015ce:	f042 0202 	orr.w	r2, r2, #2
 80015d2:	621a      	str	r2, [r3, #32]
 80015d4:	bd70      	pop	{r4, r5, r6, pc}
 80015d6:	2901      	cmp	r1, #1
 80015d8:	d1fc      	bne.n	80015d4 <HAL_TIM_IC_CaptureCallback+0x2c>
 80015da:	2100      	movs	r1, #0
 80015dc:	f005 f946 	bl	800686c <HAL_TIM_ReadCapturedValue>
 80015e0:	4b1d      	ldr	r3, [pc, #116]	; (8001658 <HAL_TIM_IC_CaptureCallback+0xb0>)
 80015e2:	6018      	str	r0, [r3, #0]
 80015e4:	6823      	ldr	r3, [r4, #0]
 80015e6:	2200      	movs	r2, #0
 80015e8:	625a      	str	r2, [r3, #36]	; 0x24
 80015ea:	4b1a      	ldr	r3, [pc, #104]	; (8001654 <HAL_TIM_IC_CaptureCallback+0xac>)
 80015ec:	4a1b      	ldr	r2, [pc, #108]	; (800165c <HAL_TIM_IC_CaptureCallback+0xb4>)
 80015ee:	681b      	ldr	r3, [r3, #0]
 80015f0:	4298      	cmp	r0, r3
 80015f2:	d921      	bls.n	8001638 <HAL_TIM_IC_CaptureCallback+0x90>
 80015f4:	1ac3      	subs	r3, r0, r3
 80015f6:	6013      	str	r3, [r2, #0]
 80015f8:	6810      	ldr	r0, [r2, #0]
 80015fa:	f7fe ff83 	bl	8000504 <__aeabi_ui2d>
 80015fe:	a312      	add	r3, pc, #72	; (adr r3, 8001648 <HAL_TIM_IC_CaptureCallback+0xa0>)
 8001600:	e9d3 2300 	ldrd	r2, r3, [r3]
 8001604:	f7fe fff8 	bl	80005f8 <__aeabi_dmul>
 8001608:	4b15      	ldr	r3, [pc, #84]	; (8001660 <HAL_TIM_IC_CaptureCallback+0xb8>)
 800160a:	2200      	movs	r2, #0
 800160c:	f7fe fff4 	bl	80005f8 <__aeabi_dmul>
 8001610:	f7ff faea 	bl	8000be8 <__aeabi_d2f>
 8001614:	4b13      	ldr	r3, [pc, #76]	; (8001664 <HAL_TIM_IC_CaptureCallback+0xbc>)
 8001616:	6018      	str	r0, [r3, #0]
 8001618:	2300      	movs	r3, #0
 800161a:	702b      	strb	r3, [r5, #0]
 800161c:	6823      	ldr	r3, [r4, #0]
 800161e:	6a1a      	ldr	r2, [r3, #32]
 8001620:	f022 020a 	bic.w	r2, r2, #10
 8001624:	621a      	str	r2, [r3, #32]
 8001626:	6a1a      	ldr	r2, [r3, #32]
 8001628:	621a      	str	r2, [r3, #32]
 800162a:	4b0f      	ldr	r3, [pc, #60]	; (8001668 <HAL_TIM_IC_CaptureCallback+0xc0>)
 800162c:	681a      	ldr	r2, [r3, #0]
 800162e:	68d3      	ldr	r3, [r2, #12]
 8001630:	f023 0302 	bic.w	r3, r3, #2
 8001634:	60d3      	str	r3, [r2, #12]
 8001636:	e7cd      	b.n	80015d4 <HAL_TIM_IC_CaptureCallback+0x2c>
 8001638:	d2de      	bcs.n	80015f8 <HAL_TIM_IC_CaptureCallback+0x50>
 800163a:	f5c3 437f 	rsb	r3, r3, #65280	; 0xff00
 800163e:	33ff      	adds	r3, #255	; 0xff
 8001640:	4403      	add	r3, r0
 8001642:	e7d8      	b.n	80015f6 <HAL_TIM_IC_CaptureCallback+0x4e>
 8001644:	f3af 8000 	nop.w
 8001648:	b020c49c 	.word	0xb020c49c
 800164c:	3fa16872 	.word	0x3fa16872
 8001650:	20000218 	.word	0x20000218
 8001654:	20000210 	.word	0x20000210
 8001658:	20000214 	.word	0x20000214
 800165c:	20000204 	.word	0x20000204
 8001660:	3fe00000 	.word	0x3fe00000
 8001664:	20000208 	.word	0x20000208
 8001668:	200002a4 	.word	0x200002a4

0800166c <sendToRPI>:
 800166c:	b507      	push	{r0, r1, r2, lr}
 800166e:	9001      	str	r0, [sp, #4]
 8001670:	f7fe fdae 	bl	80001d0 <strlen>
 8001674:	9901      	ldr	r1, [sp, #4]
 8001676:	b282      	uxth	r2, r0
 8001678:	4803      	ldr	r0, [pc, #12]	; (8001688 <sendToRPI+0x1c>)
 800167a:	f64f 73ff 	movw	r3, #65535	; 0xffff
 800167e:	b003      	add	sp, #12
 8001680:	f85d eb04 	ldr.w	lr, [sp], #4
 8001684:	f005 bf46 	b.w	8007514 <HAL_UART_Transmit>
 8001688:	2000040c 	.word	0x2000040c

0800168c <moveGyroPID>:
 800168c:	e92d 4ff0 	stmdb	sp!, {r4, r5, r6, r7, r8, r9, sl, fp, lr}
 8001690:	ed2d 8b06 	vpush	{d8-d10}
 8001694:	b097      	sub	sp, #92	; 0x5c
 8001696:	4da9      	ldr	r5, [pc, #676]	; (800193c <moveGyroPID+0x2b0>)
 8001698:	9001      	str	r0, [sp, #4]
 800169a:	2100      	movs	r1, #0
 800169c:	48a8      	ldr	r0, [pc, #672]	; (8001940 <moveGyroPID+0x2b4>)
 800169e:	ed9f aaa9 	vldr	s20, [pc, #676]	; 8001944 <moveGyroPID+0x2b8>
 80016a2:	f8df a2d0 	ldr.w	sl, [pc, #720]	; 8001974 <moveGyroPID+0x2e8>
 80016a6:	eef0 8a40 	vmov.f32	s17, s0
 80016aa:	f005 fd57 	bl	800715c <HAL_TIM_PWM_Start>
 80016ae:	2108      	movs	r1, #8
 80016b0:	48a3      	ldr	r0, [pc, #652]	; (8001940 <moveGyroPID+0x2b4>)
 80016b2:	f005 fd53 	bl	800715c <HAL_TIM_PWM_Start>
 80016b6:	210c      	movs	r1, #12
 80016b8:	4628      	mov	r0, r5
 80016ba:	f005 fd4f 	bl	800715c <HAL_TIM_PWM_Start>
 80016be:	682b      	ldr	r3, [r5, #0]
 80016c0:	2293      	movs	r2, #147	; 0x93
 80016c2:	641a      	str	r2, [r3, #64]	; 0x40
 80016c4:	2064      	movs	r0, #100	; 0x64
 80016c6:	f006 f9d6 	bl	8007a76 <osDelay>
 80016ca:	2220      	movs	r2, #32
 80016cc:	2100      	movs	r1, #0
 80016ce:	a805      	add	r0, sp, #20
 80016d0:	f008 f8e6 	bl	80098a0 <memset>
 80016d4:	f640 3454 	movw	r4, #2900	; 0xb54
 80016d8:	2220      	movs	r2, #32
 80016da:	2100      	movs	r1, #0
 80016dc:	f04f 577e 	mov.w	r7, #1065353216	; 0x3f800000
 80016e0:	f240 56aa 	movw	r6, #1450	; 0x5aa
 80016e4:	a80e      	add	r0, sp, #56	; 0x38
 80016e6:	e9cd 6406 	strd	r6, r4, [sp, #24]
 80016ea:	9704      	str	r7, [sp, #16]
 80016ec:	ed8d aa08 	vstr	s20, [sp, #32]
 80016f0:	f008 f8d6 	bl	80098a0 <memset>
 80016f4:	a804      	add	r0, sp, #16
 80016f6:	e9cd 640f 	strd	r6, r4, [sp, #60]	; 0x3c
 80016fa:	970d      	str	r7, [sp, #52]	; 0x34
 80016fc:	ed8d aa11 	vstr	s20, [sp, #68]	; 0x44
 8001700:	f007 feb6 	bl	8009470 <PIDController_Init>
 8001704:	a80d      	add	r0, sp, #52	; 0x34
 8001706:	f007 feb3 	bl	8009470 <PIDController_Init>
 800170a:	213c      	movs	r1, #60	; 0x3c
 800170c:	4650      	mov	r0, sl
 800170e:	f005 f852 	bl	80067b6 <HAL_TIM_Encoder_Start>
 8001712:	213c      	movs	r1, #60	; 0x3c
 8001714:	488c      	ldr	r0, [pc, #560]	; (8001948 <moveGyroPID+0x2bc>)
 8001716:	f005 f84e 	bl	80067b6 <HAL_TIM_Encoder_Start>
 800171a:	f8da 3000 	ldr.w	r3, [sl]
 800171e:	6a5c      	ldr	r4, [r3, #36]	; 0x24
 8001720:	4b89      	ldr	r3, [pc, #548]	; (8001948 <moveGyroPID+0x2bc>)
 8001722:	681b      	ldr	r3, [r3, #0]
 8001724:	f8d3 b024 	ldr.w	fp, [r3, #36]	; 0x24
 8001728:	f003 f9b4 	bl	8004a94 <HAL_GetTick>
 800172c:	9b01      	ldr	r3, [sp, #4]
 800172e:	9002      	str	r0, [sp, #8]
 8001730:	2b00      	cmp	r3, #0
 8001732:	f000 80c2 	beq.w	80018ba <moveGyroPID+0x22e>
 8001736:	4885      	ldr	r0, [pc, #532]	; (800194c <moveGyroPID+0x2c0>)
 8001738:	2201      	movs	r2, #1
 800173a:	2108      	movs	r1, #8
 800173c:	f003 fb5e 	bl	8004dfc <HAL_GPIO_WritePin>
 8001740:	4882      	ldr	r0, [pc, #520]	; (800194c <moveGyroPID+0x2c0>)
 8001742:	2200      	movs	r2, #0
 8001744:	2104      	movs	r1, #4
 8001746:	f003 fb59 	bl	8004dfc <HAL_GPIO_WritePin>
 800174a:	2201      	movs	r2, #1
 800174c:	4880      	ldr	r0, [pc, #512]	; (8001950 <moveGyroPID+0x2c4>)
 800174e:	f44f 5180 	mov.w	r1, #4096	; 0x1000
 8001752:	f003 fb53 	bl	8004dfc <HAL_GPIO_WritePin>
 8001756:	2200      	movs	r2, #0
 8001758:	487e      	ldr	r0, [pc, #504]	; (8001954 <moveGyroPID+0x2c8>)
 800175a:	ed9f 9a7f 	vldr	s18, [pc, #508]	; 8001958 <moveGyroPID+0x2cc>
 800175e:	2120      	movs	r1, #32
 8001760:	f003 fb4c 	bl	8004dfc <HAL_GPIO_WritePin>
 8001764:	eef0 9a49 	vmov.f32	s19, s18
 8001768:	f04f 0800 	mov.w	r8, #0
 800176c:	f04f 0900 	mov.w	r9, #0
 8001770:	4e7a      	ldr	r6, [pc, #488]	; (800195c <moveGyroPID+0x2d0>)
 8001772:	4b73      	ldr	r3, [pc, #460]	; (8001940 <moveGyroPID+0x2b4>)
 8001774:	681a      	ldr	r2, [r3, #0]
 8001776:	f44f 61fa 	mov.w	r1, #2000	; 0x7d0
 800177a:	6351      	str	r1, [r2, #52]	; 0x34
 800177c:	63d1      	str	r1, [r2, #60]	; 0x3c
 800177e:	f003 f989 	bl	8004a94 <HAL_GetTick>
 8001782:	2201      	movs	r2, #1
 8001784:	7032      	strb	r2, [r6, #0]
 8001786:	9a02      	ldr	r2, [sp, #8]
 8001788:	9003      	str	r0, [sp, #12]
 800178a:	1a82      	subs	r2, r0, r2
 800178c:	2a3c      	cmp	r2, #60	; 0x3c
 800178e:	d9f0      	bls.n	8001772 <moveGyroPID+0xe6>
 8001790:	4b6d      	ldr	r3, [pc, #436]	; (8001948 <moveGyroPID+0x2bc>)
 8001792:	f8da 2000 	ldr.w	r2, [sl]
 8001796:	6819      	ldr	r1, [r3, #0]
 8001798:	6a56      	ldr	r6, [r2, #36]	; 0x24
 800179a:	6a4f      	ldr	r7, [r1, #36]	; 0x24
 800179c:	6812      	ldr	r2, [r2, #0]
 800179e:	06d2      	lsls	r2, r2, #27
 80017a0:	f140 80a2 	bpl.w	80018e8 <moveGyroPID+0x25c>
 80017a4:	42b4      	cmp	r4, r6
 80017a6:	bfdb      	ittet	le
 80017a8:	f5c6 427f 	rsble	r2, r6, #65280	; 0xff00
 80017ac:	32ff      	addle	r2, #255	; 0xff
 80017ae:	1ba4      	subgt	r4, r4, r6
 80017b0:	18a4      	addle	r4, r4, r2
 80017b2:	680a      	ldr	r2, [r1, #0]
 80017b4:	06d3      	lsls	r3, r2, #27
 80017b6:	f140 809f 	bpl.w	80018f8 <moveGyroPID+0x26c>
 80017ba:	45bb      	cmp	fp, r7
 80017bc:	bfdb      	ittet	le
 80017be:	f5c7 427f 	rsble	r2, r7, #65280	; 0xff00
 80017c2:	32ff      	addle	r2, #255	; 0xff
 80017c4:	ebab 0307 	subgt.w	r3, fp, r7
 80017c8:	eb02 030b 	addle.w	r3, r2, fp
 80017cc:	ee07 4a90 	vmov	s15, r4
 80017d0:	ed9f 7a63 	vldr	s14, [pc, #396]	; 8001960 <moveGyroPID+0x2d4>
 80017d4:	ed9f 6a63 	vldr	s12, [pc, #396]	; 8001964 <moveGyroPID+0x2d8>
 80017d8:	4c63      	ldr	r4, [pc, #396]	; (8001968 <moveGyroPID+0x2dc>)
 80017da:	eef8 7ae7 	vcvt.f32.s32	s15, s15
 80017de:	e9d4 0100 	ldrd	r0, r1, [r4]
 80017e2:	eec7 6a87 	vdiv.f32	s13, s15, s14
 80017e6:	ee07 3a90 	vmov	s15, r3
 80017ea:	ed9f 7a60 	vldr	s14, [pc, #384]	; 800196c <moveGyroPID+0x2e0>
 80017ee:	9b01      	ldr	r3, [sp, #4]
 80017f0:	eef8 7ae7 	vcvt.f32.s32	s15, s15
 80017f4:	eee6 9a87 	vfma.f32	s19, s13, s14
 80017f8:	eec7 6a86 	vdiv.f32	s13, s15, s12
 80017fc:	eea6 9a87 	vfma.f32	s18, s13, s14
 8001800:	2b00      	cmp	r3, #0
 8001802:	f000 8082 	beq.w	800190a <moveGyroPID+0x27e>
 8001806:	ed9f 8a5a 	vldr	s16, [pc, #360]	; 8001970 <moveGyroPID+0x2e4>
 800180a:	4642      	mov	r2, r8
 800180c:	464b      	mov	r3, r9
 800180e:	ee28 8a88 	vmul.f32	s16, s17, s16
 8001812:	f7ff f963 	bl	8000adc <__aeabi_dcmplt>
 8001816:	b128      	cbz	r0, 8001824 <moveGyroPID+0x198>
 8001818:	682b      	ldr	r3, [r5, #0]
 800181a:	2280      	movs	r2, #128	; 0x80
 800181c:	641a      	str	r2, [r3, #64]	; 0x40
 800181e:	200a      	movs	r0, #10
 8001820:	f006 f929 	bl	8007a76 <osDelay>
 8001824:	e9d4 0100 	ldrd	r0, r1, [r4]
 8001828:	4642      	mov	r2, r8
 800182a:	464b      	mov	r3, r9
 800182c:	f7ff f974 	bl	8000b18 <__aeabi_dcmpgt>
 8001830:	b128      	cbz	r0, 800183e <moveGyroPID+0x1b2>
 8001832:	682b      	ldr	r3, [r5, #0]
 8001834:	22af      	movs	r2, #175	; 0xaf
 8001836:	641a      	str	r2, [r3, #64]	; 0x40
 8001838:	200a      	movs	r0, #10
 800183a:	f006 f91c 	bl	8007a76 <osDelay>
 800183e:	e9d4 0100 	ldrd	r0, r1, [r4]
 8001842:	4642      	mov	r2, r8
 8001844:	464b      	mov	r3, r9
 8001846:	f7ff f93f 	bl	8000ac8 <__aeabi_dcmpeq>
 800184a:	b128      	cbz	r0, 8001858 <moveGyroPID+0x1cc>
 800184c:	682b      	ldr	r3, [r5, #0]
 800184e:	2293      	movs	r2, #147	; 0x93
 8001850:	641a      	str	r2, [r3, #64]	; 0x40
 8001852:	200a      	movs	r0, #10
 8001854:	f006 f90f 	bl	8007a76 <osDelay>
 8001858:	ee38 8a88 	vadd.f32	s16, s17, s16
 800185c:	eeb4 8ae9 	vcmpe.f32	s16, s19
 8001860:	eef1 fa10 	vmrs	APSR_nzcv, fpscr
 8001864:	d904      	bls.n	8001870 <moveGyroPID+0x1e4>
 8001866:	eeb4 8ac9 	vcmpe.f32	s16, s18
 800186a:	eef1 fa10 	vmrs	APSR_nzcv, fpscr
 800186e:	d836      	bhi.n	80018de <moveGyroPID+0x252>
 8001870:	4b33      	ldr	r3, [pc, #204]	; (8001940 <moveGyroPID+0x2b4>)
 8001872:	4836      	ldr	r0, [pc, #216]	; (800194c <moveGyroPID+0x2c0>)
 8001874:	681b      	ldr	r3, [r3, #0]
 8001876:	2400      	movs	r4, #0
 8001878:	635c      	str	r4, [r3, #52]	; 0x34
 800187a:	2201      	movs	r2, #1
 800187c:	63dc      	str	r4, [r3, #60]	; 0x3c
 800187e:	2108      	movs	r1, #8
 8001880:	f003 fabc 	bl	8004dfc <HAL_GPIO_WritePin>
 8001884:	4622      	mov	r2, r4
 8001886:	4831      	ldr	r0, [pc, #196]	; (800194c <moveGyroPID+0x2c0>)
 8001888:	2104      	movs	r1, #4
 800188a:	f003 fab7 	bl	8004dfc <HAL_GPIO_WritePin>
 800188e:	4830      	ldr	r0, [pc, #192]	; (8001950 <moveGyroPID+0x2c4>)
 8001890:	2201      	movs	r2, #1
 8001892:	f44f 5180 	mov.w	r1, #4096	; 0x1000
 8001896:	f003 fab1 	bl	8004dfc <HAL_GPIO_WritePin>
 800189a:	4622      	mov	r2, r4
 800189c:	2120      	movs	r1, #32
 800189e:	482d      	ldr	r0, [pc, #180]	; (8001954 <moveGyroPID+0x2c8>)
 80018a0:	f003 faac 	bl	8004dfc <HAL_GPIO_WritePin>
 80018a4:	682b      	ldr	r3, [r5, #0]
 80018a6:	2293      	movs	r2, #147	; 0x93
 80018a8:	641a      	str	r2, [r3, #64]	; 0x40
 80018aa:	200a      	movs	r0, #10
 80018ac:	f006 f8e3 	bl	8007a76 <osDelay>
 80018b0:	b017      	add	sp, #92	; 0x5c
 80018b2:	ecbd 8b06 	vpop	{d8-d10}
 80018b6:	e8bd 8ff0 	ldmia.w	sp!, {r4, r5, r6, r7, r8, r9, sl, fp, pc}
 80018ba:	9a01      	ldr	r2, [sp, #4]
 80018bc:	4823      	ldr	r0, [pc, #140]	; (800194c <moveGyroPID+0x2c0>)
 80018be:	2108      	movs	r1, #8
 80018c0:	f003 fa9c 	bl	8004dfc <HAL_GPIO_WritePin>
 80018c4:	4821      	ldr	r0, [pc, #132]	; (800194c <moveGyroPID+0x2c0>)
 80018c6:	2201      	movs	r2, #1
 80018c8:	2104      	movs	r1, #4
 80018ca:	f003 fa97 	bl	8004dfc <HAL_GPIO_WritePin>
 80018ce:	9a01      	ldr	r2, [sp, #4]
 80018d0:	481f      	ldr	r0, [pc, #124]	; (8001950 <moveGyroPID+0x2c4>)
 80018d2:	f44f 5180 	mov.w	r1, #4096	; 0x1000
 80018d6:	f003 fa91 	bl	8004dfc <HAL_GPIO_WritePin>
 80018da:	2201      	movs	r2, #1
 80018dc:	e73c      	b.n	8001758 <moveGyroPID+0xcc>
 80018de:	9b03      	ldr	r3, [sp, #12]
 80018e0:	9302      	str	r3, [sp, #8]
 80018e2:	46bb      	mov	fp, r7
 80018e4:	4634      	mov	r4, r6
 80018e6:	e743      	b.n	8001770 <moveGyroPID+0xe4>
 80018e8:	42b4      	cmp	r4, r6
 80018ea:	bfa5      	ittet	ge
 80018ec:	f5c4 447f 	rsbge	r4, r4, #65280	; 0xff00
 80018f0:	34ff      	addge	r4, #255	; 0xff
 80018f2:	1b34      	sublt	r4, r6, r4
 80018f4:	19a4      	addge	r4, r4, r6
 80018f6:	e75c      	b.n	80017b2 <moveGyroPID+0x126>
 80018f8:	45bb      	cmp	fp, r7
 80018fa:	bfa5      	ittet	ge
 80018fc:	f5cb 437f 	rsbge	r3, fp, #65280	; 0xff00
 8001900:	33ff      	addge	r3, #255	; 0xff
 8001902:	eba7 030b 	sublt.w	r3, r7, fp
 8001906:	19db      	addge	r3, r3, r7
 8001908:	e760      	b.n	80017cc <moveGyroPID+0x140>
 800190a:	4642      	mov	r2, r8
 800190c:	464b      	mov	r3, r9
 800190e:	ee28 8a8a 	vmul.f32	s16, s17, s20
 8001912:	f7ff f901 	bl	8000b18 <__aeabi_dcmpgt>
 8001916:	b128      	cbz	r0, 8001924 <moveGyroPID+0x298>
 8001918:	682b      	ldr	r3, [r5, #0]
 800191a:	2287      	movs	r2, #135	; 0x87
 800191c:	641a      	str	r2, [r3, #64]	; 0x40
 800191e:	200a      	movs	r0, #10
 8001920:	f006 f8a9 	bl	8007a76 <osDelay>
 8001924:	e9d4 0100 	ldrd	r0, r1, [r4]
 8001928:	4642      	mov	r2, r8
 800192a:	464b      	mov	r3, r9
 800192c:	f7ff f8d6 	bl	8000adc <__aeabi_dcmplt>
 8001930:	2800      	cmp	r0, #0
 8001932:	d084      	beq.n	800183e <moveGyroPID+0x1b2>
 8001934:	682b      	ldr	r3, [r5, #0]
 8001936:	2298      	movs	r2, #152	; 0x98
 8001938:	e77d      	b.n	8001836 <moveGyroPID+0x1aa>
 800193a:	bf00      	nop
 800193c:	200002a4 	.word	0x200002a4
 8001940:	200003c4 	.word	0x200003c4
 8001944:	3d4ccccd 	.word	0x3d4ccccd
 8001948:	2000037c 	.word	0x2000037c
 800194c:	40020000 	.word	0x40020000
 8001950:	40021000 	.word	0x40021000
 8001954:	40020800 	.word	0x40020800
 8001958:	00000000 	.word	0x00000000
 800195c:	20000455 	.word	0x20000455
 8001960:	44440000 	.word	0x44440000
 8001964:	4442c000 	.word	0x4442c000
 8001968:	20000228 	.word	0x20000228
 800196c:	41b33333 	.word	0x41b33333
 8001970:	3d3851ec 	.word	0x3d3851ec
 8001974:	200002ec 	.word	0x200002ec

08001978 <moveGyroPIDOld>:
 8001978:	e92d 4ff0 	stmdb	sp!, {r4, r5, r6, r7, r8, r9, sl, fp, lr}
 800197c:	ed2d 8b06 	vpush	{d8-d10}
 8001980:	4cbb      	ldr	r4, [pc, #748]	; (8001c70 <moveGyroPIDOld+0x2f8>)
 8001982:	ed9f aabc 	vldr	s20, [pc, #752]	; 8001c74 <moveGyroPIDOld+0x2fc>
 8001986:	f8df a328 	ldr.w	sl, [pc, #808]	; 8001cb0 <moveGyroPIDOld+0x338>
 800198a:	f8df b328 	ldr.w	fp, [pc, #808]	; 8001cb4 <moveGyroPIDOld+0x33c>
 800198e:	b09f      	sub	sp, #124	; 0x7c
 8001990:	2100      	movs	r1, #0
 8001992:	4680      	mov	r8, r0
 8001994:	48b8      	ldr	r0, [pc, #736]	; (8001c78 <moveGyroPIDOld+0x300>)
 8001996:	eeb0 9a40 	vmov.f32	s18, s0
 800199a:	f005 fbdf 	bl	800715c <HAL_TIM_PWM_Start>
 800199e:	2108      	movs	r1, #8
 80019a0:	48b5      	ldr	r0, [pc, #724]	; (8001c78 <moveGyroPIDOld+0x300>)
 80019a2:	f005 fbdb 	bl	800715c <HAL_TIM_PWM_Start>
 80019a6:	210c      	movs	r1, #12
 80019a8:	4620      	mov	r0, r4
 80019aa:	f005 fbd7 	bl	800715c <HAL_TIM_PWM_Start>
 80019ae:	6823      	ldr	r3, [r4, #0]
 80019b0:	2293      	movs	r2, #147	; 0x93
 80019b2:	641a      	str	r2, [r3, #64]	; 0x40
 80019b4:	2064      	movs	r0, #100	; 0x64
 80019b6:	f006 f85e 	bl	8007a76 <osDelay>
 80019ba:	2220      	movs	r2, #32
 80019bc:	2100      	movs	r1, #0
 80019be:	a80d      	add	r0, sp, #52	; 0x34
 80019c0:	f007 ff6e 	bl	80098a0 <memset>
 80019c4:	f640 3554 	movw	r5, #2900	; 0xb54
 80019c8:	2220      	movs	r2, #32
 80019ca:	2100      	movs	r1, #0
 80019cc:	f04f 577e 	mov.w	r7, #1065353216	; 0x3f800000
 80019d0:	f240 56aa 	movw	r6, #1450	; 0x5aa
 80019d4:	a816      	add	r0, sp, #88	; 0x58
 80019d6:	e9cd 650e 	strd	r6, r5, [sp, #56]	; 0x38
 80019da:	970c      	str	r7, [sp, #48]	; 0x30
 80019dc:	ed8d aa10 	vstr	s20, [sp, #64]	; 0x40
 80019e0:	f007 ff5e 	bl	80098a0 <memset>
 80019e4:	a80c      	add	r0, sp, #48	; 0x30
 80019e6:	e9cd 6517 	strd	r6, r5, [sp, #92]	; 0x5c
 80019ea:	9715      	str	r7, [sp, #84]	; 0x54
 80019ec:	ed8d aa19 	vstr	s20, [sp, #100]	; 0x64
 80019f0:	f007 fd3e 	bl	8009470 <PIDController_Init>
 80019f4:	a815      	add	r0, sp, #84	; 0x54
 80019f6:	f007 fd3b 	bl	8009470 <PIDController_Init>
 80019fa:	213c      	movs	r1, #60	; 0x3c
 80019fc:	4650      	mov	r0, sl
 80019fe:	f004 feda 	bl	80067b6 <HAL_TIM_Encoder_Start>
 8001a02:	213c      	movs	r1, #60	; 0x3c
 8001a04:	4658      	mov	r0, fp
 8001a06:	f004 fed6 	bl	80067b6 <HAL_TIM_Encoder_Start>
 8001a0a:	f8da 3000 	ldr.w	r3, [sl]
 8001a0e:	6a5d      	ldr	r5, [r3, #36]	; 0x24
 8001a10:	f8db 3000 	ldr.w	r3, [fp]
 8001a14:	f8d3 9024 	ldr.w	r9, [r3, #36]	; 0x24
 8001a18:	f003 f83c 	bl	8004a94 <HAL_GetTick>
 8001a1c:	9000      	str	r0, [sp, #0]
 8001a1e:	f1b8 0f00 	cmp.w	r8, #0
 8001a22:	f000 80ee 	beq.w	8001c02 <moveGyroPIDOld+0x28a>
 8001a26:	4895      	ldr	r0, [pc, #596]	; (8001c7c <moveGyroPIDOld+0x304>)
 8001a28:	2201      	movs	r2, #1
 8001a2a:	2108      	movs	r1, #8
 8001a2c:	f003 f9e6 	bl	8004dfc <HAL_GPIO_WritePin>
 8001a30:	4892      	ldr	r0, [pc, #584]	; (8001c7c <moveGyroPIDOld+0x304>)
 8001a32:	2200      	movs	r2, #0
 8001a34:	2104      	movs	r1, #4
 8001a36:	f003 f9e1 	bl	8004dfc <HAL_GPIO_WritePin>
 8001a3a:	2201      	movs	r2, #1
 8001a3c:	4890      	ldr	r0, [pc, #576]	; (8001c80 <moveGyroPIDOld+0x308>)
 8001a3e:	f44f 5180 	mov.w	r1, #4096	; 0x1000
 8001a42:	f003 f9db 	bl	8004dfc <HAL_GPIO_WritePin>
 8001a46:	2200      	movs	r2, #0
 8001a48:	488e      	ldr	r0, [pc, #568]	; (8001c84 <moveGyroPIDOld+0x30c>)
 8001a4a:	eddf 8a8f 	vldr	s17, [pc, #572]	; 8001c88 <moveGyroPIDOld+0x310>
 8001a4e:	2120      	movs	r1, #32
 8001a50:	f003 f9d4 	bl	8004dfc <HAL_GPIO_WritePin>
 8001a54:	eef0 9a68 	vmov.f32	s19, s17
 8001a58:	4e8c      	ldr	r6, [pc, #560]	; (8001c8c <moveGyroPIDOld+0x314>)
 8001a5a:	4b87      	ldr	r3, [pc, #540]	; (8001c78 <moveGyroPIDOld+0x300>)
 8001a5c:	681a      	ldr	r2, [r3, #0]
 8001a5e:	f44f 61fa 	mov.w	r1, #2000	; 0x7d0
 8001a62:	6351      	str	r1, [r2, #52]	; 0x34
 8001a64:	63d1      	str	r1, [r2, #60]	; 0x3c
 8001a66:	f003 f815 	bl	8004a94 <HAL_GetTick>
 8001a6a:	2201      	movs	r2, #1
 8001a6c:	7032      	strb	r2, [r6, #0]
 8001a6e:	9a00      	ldr	r2, [sp, #0]
 8001a70:	9001      	str	r0, [sp, #4]
 8001a72:	1a82      	subs	r2, r0, r2
 8001a74:	2a3c      	cmp	r2, #60	; 0x3c
 8001a76:	d9f0      	bls.n	8001a5a <moveGyroPIDOld+0xe2>
 8001a78:	f8da 2000 	ldr.w	r2, [sl]
 8001a7c:	f8db 1000 	ldr.w	r1, [fp]
 8001a80:	6a56      	ldr	r6, [r2, #36]	; 0x24
 8001a82:	6a4f      	ldr	r7, [r1, #36]	; 0x24
 8001a84:	6812      	ldr	r2, [r2, #0]
 8001a86:	06d2      	lsls	r2, r2, #27
 8001a88:	f140 80cd 	bpl.w	8001c26 <moveGyroPIDOld+0x2ae>
 8001a8c:	42b5      	cmp	r5, r6
 8001a8e:	bfdb      	ittet	le
 8001a90:	f5c6 427f 	rsble	r2, r6, #65280	; 0xff00
 8001a94:	32ff      	addle	r2, #255	; 0xff
 8001a96:	1bad      	subgt	r5, r5, r6
 8001a98:	18ad      	addle	r5, r5, r2
 8001a9a:	680a      	ldr	r2, [r1, #0]
 8001a9c:	06d3      	lsls	r3, r2, #27
 8001a9e:	f140 80ca 	bpl.w	8001c36 <moveGyroPIDOld+0x2be>
 8001aa2:	45b9      	cmp	r9, r7
 8001aa4:	bfdb      	ittet	le
 8001aa6:	f5c7 427f 	rsble	r2, r7, #65280	; 0xff00
 8001aaa:	32ff      	addle	r2, #255	; 0xff
 8001aac:	eba9 0307 	subgt.w	r3, r9, r7
 8001ab0:	eb02 0309 	addle.w	r3, r2, r9
 8001ab4:	ee07 5a90 	vmov	s15, r5
 8001ab8:	ed9f 7a75 	vldr	s14, [pc, #468]	; 8001c90 <moveGyroPIDOld+0x318>
 8001abc:	ed9f 6a75 	vldr	s12, [pc, #468]	; 8001c94 <moveGyroPIDOld+0x31c>
 8001ac0:	4d75      	ldr	r5, [pc, #468]	; (8001c98 <moveGyroPIDOld+0x320>)
 8001ac2:	eef8 7ae7 	vcvt.f32.s32	s15, s15
 8001ac6:	e9d5 0100 	ldrd	r0, r1, [r5]
 8001aca:	eec7 6a87 	vdiv.f32	s13, s15, s14
 8001ace:	ee07 3a90 	vmov	s15, r3
 8001ad2:	ed9f 7a72 	vldr	s14, [pc, #456]	; 8001c9c <moveGyroPIDOld+0x324>
 8001ad6:	eef8 7ae7 	vcvt.f32.s32	s15, s15
 8001ada:	eee6 9a87 	vfma.f32	s19, s13, s14
 8001ade:	eec7 6a86 	vdiv.f32	s13, s15, s12
 8001ae2:	eee6 8a87 	vfma.f32	s17, s13, s14
 8001ae6:	f1b8 0f00 	cmp.w	r8, #0
 8001aea:	f000 80ad 	beq.w	8001c48 <moveGyroPIDOld+0x2d0>
 8001aee:	2200      	movs	r2, #0
 8001af0:	ed9f 8a6b 	vldr	s16, [pc, #428]	; 8001ca0 <moveGyroPIDOld+0x328>
 8001af4:	2300      	movs	r3, #0
 8001af6:	ee29 8a08 	vmul.f32	s16, s18, s16
 8001afa:	f7fe ffef 	bl	8000adc <__aeabi_dcmplt>
 8001afe:	b128      	cbz	r0, 8001b0c <moveGyroPIDOld+0x194>
 8001b00:	6823      	ldr	r3, [r4, #0]
 8001b02:	228a      	movs	r2, #138	; 0x8a
 8001b04:	641a      	str	r2, [r3, #64]	; 0x40
 8001b06:	200a      	movs	r0, #10
 8001b08:	f005 ffb5 	bl	8007a76 <osDelay>
 8001b0c:	e9d5 0100 	ldrd	r0, r1, [r5]
 8001b10:	2200      	movs	r2, #0
 8001b12:	2300      	movs	r3, #0
 8001b14:	f7ff f800 	bl	8000b18 <__aeabi_dcmpgt>
 8001b18:	b128      	cbz	r0, 8001b26 <moveGyroPIDOld+0x1ae>
 8001b1a:	6823      	ldr	r3, [r4, #0]
 8001b1c:	2298      	movs	r2, #152	; 0x98
 8001b1e:	641a      	str	r2, [r3, #64]	; 0x40
 8001b20:	200a      	movs	r0, #10
 8001b22:	f005 ffa8 	bl	8007a76 <osDelay>
 8001b26:	e9d5 0100 	ldrd	r0, r1, [r5]
 8001b2a:	2200      	movs	r2, #0
 8001b2c:	2300      	movs	r3, #0
 8001b2e:	f7fe ffcb 	bl	8000ac8 <__aeabi_dcmpeq>
 8001b32:	b128      	cbz	r0, 8001b40 <moveGyroPIDOld+0x1c8>
 8001b34:	6823      	ldr	r3, [r4, #0]
 8001b36:	2293      	movs	r2, #147	; 0x93
 8001b38:	641a      	str	r2, [r3, #64]	; 0x40
 8001b3a:	200a      	movs	r0, #10
 8001b3c:	f005 ff9b 	bl	8007a76 <osDelay>
 8001b40:	ee39 8a08 	vadd.f32	s16, s18, s16
 8001b44:	ee19 0a10 	vmov	r0, s18
 8001b48:	f7fe fcfe 	bl	8000548 <__aeabi_f2d>
 8001b4c:	eeb4 8ae9 	vcmpe.f32	s16, s19
 8001b50:	eef1 fa10 	vmrs	APSR_nzcv, fpscr
 8001b54:	4602      	mov	r2, r0
 8001b56:	460b      	mov	r3, r1
 8001b58:	d905      	bls.n	8001b66 <moveGyroPIDOld+0x1ee>
 8001b5a:	eeb4 8ae8 	vcmpe.f32	s16, s17
 8001b5e:	eef1 fa10 	vmrs	APSR_nzcv, fpscr
 8001b62:	f200 80a9 	bhi.w	8001cb8 <moveGyroPIDOld+0x340>
 8001b66:	4944      	ldr	r1, [pc, #272]	; (8001c78 <moveGyroPIDOld+0x300>)
 8001b68:	6809      	ldr	r1, [r1, #0]
 8001b6a:	2500      	movs	r5, #0
 8001b6c:	634d      	str	r5, [r1, #52]	; 0x34
 8001b6e:	a802      	add	r0, sp, #8
 8001b70:	63cd      	str	r5, [r1, #60]	; 0x3c
 8001b72:	494c      	ldr	r1, [pc, #304]	; (8001ca4 <moveGyroPIDOld+0x32c>)
 8001b74:	f008 fd1c 	bl	800a5b0 <siprintf>
 8001b78:	210a      	movs	r1, #10
 8001b7a:	aa02      	add	r2, sp, #8
 8001b7c:	4608      	mov	r0, r1
 8001b7e:	f007 fdaf 	bl	80096e0 <OLED_ShowString>
 8001b82:	ee19 0a90 	vmov	r0, s19
 8001b86:	f7fe fcdf 	bl	8000548 <__aeabi_f2d>
 8001b8a:	460b      	mov	r3, r1
 8001b8c:	4602      	mov	r2, r0
 8001b8e:	4946      	ldr	r1, [pc, #280]	; (8001ca8 <moveGyroPIDOld+0x330>)
 8001b90:	a802      	add	r0, sp, #8
 8001b92:	f008 fd0d 	bl	800a5b0 <siprintf>
 8001b96:	aa02      	add	r2, sp, #8
 8001b98:	211e      	movs	r1, #30
 8001b9a:	200a      	movs	r0, #10
 8001b9c:	f007 fda0 	bl	80096e0 <OLED_ShowString>
 8001ba0:	ee18 0a90 	vmov	r0, s17
 8001ba4:	f7fe fcd0 	bl	8000548 <__aeabi_f2d>
 8001ba8:	460b      	mov	r3, r1
 8001baa:	4602      	mov	r2, r0
 8001bac:	493f      	ldr	r1, [pc, #252]	; (8001cac <moveGyroPIDOld+0x334>)
 8001bae:	a807      	add	r0, sp, #28
 8001bb0:	f008 fcfe 	bl	800a5b0 <siprintf>
 8001bb4:	aa07      	add	r2, sp, #28
 8001bb6:	2132      	movs	r1, #50	; 0x32
 8001bb8:	200a      	movs	r0, #10
 8001bba:	f007 fd91 	bl	80096e0 <OLED_ShowString>
 8001bbe:	f007 fcf3 	bl	80095a8 <OLED_Refresh_Gram>
 8001bc2:	482e      	ldr	r0, [pc, #184]	; (8001c7c <moveGyroPIDOld+0x304>)
 8001bc4:	2201      	movs	r2, #1
 8001bc6:	2108      	movs	r1, #8
 8001bc8:	f003 f918 	bl	8004dfc <HAL_GPIO_WritePin>
 8001bcc:	462a      	mov	r2, r5
 8001bce:	482b      	ldr	r0, [pc, #172]	; (8001c7c <moveGyroPIDOld+0x304>)
 8001bd0:	2104      	movs	r1, #4
 8001bd2:	f003 f913 	bl	8004dfc <HAL_GPIO_WritePin>
 8001bd6:	482a      	ldr	r0, [pc, #168]	; (8001c80 <moveGyroPIDOld+0x308>)
 8001bd8:	2201      	movs	r2, #1
 8001bda:	f44f 5180 	mov.w	r1, #4096	; 0x1000
 8001bde:	f003 f90d 	bl	8004dfc <HAL_GPIO_WritePin>
 8001be2:	462a      	mov	r2, r5
 8001be4:	2120      	movs	r1, #32
 8001be6:	4827      	ldr	r0, [pc, #156]	; (8001c84 <moveGyroPIDOld+0x30c>)
 8001be8:	f003 f908 	bl	8004dfc <HAL_GPIO_WritePin>
 8001bec:	6823      	ldr	r3, [r4, #0]
 8001bee:	2293      	movs	r2, #147	; 0x93
 8001bf0:	641a      	str	r2, [r3, #64]	; 0x40
 8001bf2:	200a      	movs	r0, #10
 8001bf4:	f005 ff3f 	bl	8007a76 <osDelay>
 8001bf8:	b01f      	add	sp, #124	; 0x7c
 8001bfa:	ecbd 8b06 	vpop	{d8-d10}
 8001bfe:	e8bd 8ff0 	ldmia.w	sp!, {r4, r5, r6, r7, r8, r9, sl, fp, pc}
 8001c02:	481e      	ldr	r0, [pc, #120]	; (8001c7c <moveGyroPIDOld+0x304>)
 8001c04:	4642      	mov	r2, r8
 8001c06:	2108      	movs	r1, #8
 8001c08:	f003 f8f8 	bl	8004dfc <HAL_GPIO_WritePin>
 8001c0c:	481b      	ldr	r0, [pc, #108]	; (8001c7c <moveGyroPIDOld+0x304>)
 8001c0e:	2201      	movs	r2, #1
 8001c10:	2104      	movs	r1, #4
 8001c12:	f003 f8f3 	bl	8004dfc <HAL_GPIO_WritePin>
 8001c16:	4642      	mov	r2, r8
 8001c18:	4819      	ldr	r0, [pc, #100]	; (8001c80 <moveGyroPIDOld+0x308>)
 8001c1a:	f44f 5180 	mov.w	r1, #4096	; 0x1000
 8001c1e:	f003 f8ed 	bl	8004dfc <HAL_GPIO_WritePin>
 8001c22:	2201      	movs	r2, #1
 8001c24:	e710      	b.n	8001a48 <moveGyroPIDOld+0xd0>
 8001c26:	42b5      	cmp	r5, r6
 8001c28:	bfa5      	ittet	ge
 8001c2a:	f5c5 457f 	rsbge	r5, r5, #65280	; 0xff00
 8001c2e:	35ff      	addge	r5, #255	; 0xff
 8001c30:	1b75      	sublt	r5, r6, r5
 8001c32:	19ad      	addge	r5, r5, r6
 8001c34:	e731      	b.n	8001a9a <moveGyroPIDOld+0x122>
 8001c36:	45b9      	cmp	r9, r7
 8001c38:	bfa5      	ittet	ge
 8001c3a:	f5c9 437f 	rsbge	r3, r9, #65280	; 0xff00
 8001c3e:	33ff      	addge	r3, #255	; 0xff
 8001c40:	eba7 0309 	sublt.w	r3, r7, r9
 8001c44:	19db      	addge	r3, r3, r7
 8001c46:	e735      	b.n	8001ab4 <moveGyroPIDOld+0x13c>
 8001c48:	2200      	movs	r2, #0
 8001c4a:	2300      	movs	r3, #0
 8001c4c:	ee29 8a0a 	vmul.f32	s16, s18, s20
 8001c50:	f7fe ff62 	bl	8000b18 <__aeabi_dcmpgt>
 8001c54:	b128      	cbz	r0, 8001c62 <moveGyroPIDOld+0x2ea>
 8001c56:	6823      	ldr	r3, [r4, #0]
 8001c58:	2287      	movs	r2, #135	; 0x87
 8001c5a:	641a      	str	r2, [r3, #64]	; 0x40
 8001c5c:	200a      	movs	r0, #10
 8001c5e:	f005 ff0a 	bl	8007a76 <osDelay>
 8001c62:	e9d5 0100 	ldrd	r0, r1, [r5]
 8001c66:	2200      	movs	r2, #0
 8001c68:	2300      	movs	r3, #0
 8001c6a:	f7fe ff37 	bl	8000adc <__aeabi_dcmplt>
 8001c6e:	e753      	b.n	8001b18 <moveGyroPIDOld+0x1a0>
 8001c70:	200002a4 	.word	0x200002a4
 8001c74:	3d4ccccd 	.word	0x3d4ccccd
 8001c78:	200003c4 	.word	0x200003c4
 8001c7c:	40020000 	.word	0x40020000
 8001c80:	40021000 	.word	0x40021000
 8001c84:	40020800 	.word	0x40020800
 8001c88:	00000000 	.word	0x00000000
 8001c8c:	20000455 	.word	0x20000455
 8001c90:	44440000 	.word	0x44440000
 8001c94:	4442c000 	.word	0x4442c000
 8001c98:	20000458 	.word	0x20000458
 8001c9c:	41b33333 	.word	0x41b33333
 8001ca0:	3d3851ec 	.word	0x3d3851ec
 8001ca4:	0800e195 	.word	0x0800e195
 8001ca8:	0800e1a1 	.word	0x0800e1a1
 8001cac:	0800e1ae 	.word	0x0800e1ae
 8001cb0:	200002ec 	.word	0x200002ec
 8001cb4:	2000037c 	.word	0x2000037c
 8001cb8:	4916      	ldr	r1, [pc, #88]	; (8001d14 <moveGyroPIDOld+0x39c>)
 8001cba:	a802      	add	r0, sp, #8
 8001cbc:	f008 fc78 	bl	800a5b0 <siprintf>
 8001cc0:	210a      	movs	r1, #10
 8001cc2:	aa02      	add	r2, sp, #8
 8001cc4:	4608      	mov	r0, r1
 8001cc6:	f007 fd0b 	bl	80096e0 <OLED_ShowString>
 8001cca:	ee19 0a90 	vmov	r0, s19
 8001cce:	f7fe fc3b 	bl	8000548 <__aeabi_f2d>
 8001cd2:	460b      	mov	r3, r1
 8001cd4:	4602      	mov	r2, r0
 8001cd6:	4910      	ldr	r1, [pc, #64]	; (8001d18 <moveGyroPIDOld+0x3a0>)
 8001cd8:	a802      	add	r0, sp, #8
 8001cda:	f008 fc69 	bl	800a5b0 <siprintf>
 8001cde:	aa02      	add	r2, sp, #8
 8001ce0:	211e      	movs	r1, #30
 8001ce2:	200a      	movs	r0, #10
 8001ce4:	f007 fcfc 	bl	80096e0 <OLED_ShowString>
 8001ce8:	ee18 0a90 	vmov	r0, s17
 8001cec:	f7fe fc2c 	bl	8000548 <__aeabi_f2d>
 8001cf0:	460b      	mov	r3, r1
 8001cf2:	4602      	mov	r2, r0
 8001cf4:	4909      	ldr	r1, [pc, #36]	; (8001d1c <moveGyroPIDOld+0x3a4>)
 8001cf6:	a807      	add	r0, sp, #28
 8001cf8:	f008 fc5a 	bl	800a5b0 <siprintf>
 8001cfc:	aa07      	add	r2, sp, #28
 8001cfe:	2132      	movs	r1, #50	; 0x32
 8001d00:	200a      	movs	r0, #10
 8001d02:	f007 fced 	bl	80096e0 <OLED_ShowString>
 8001d06:	f007 fc4f 	bl	80095a8 <OLED_Refresh_Gram>
 8001d0a:	9b01      	ldr	r3, [sp, #4]
 8001d0c:	9300      	str	r3, [sp, #0]
 8001d0e:	46b9      	mov	r9, r7
 8001d10:	4635      	mov	r5, r6
 8001d12:	e6a1      	b.n	8001a58 <moveGyroPIDOld+0xe0>
 8001d14:	0800e195 	.word	0x0800e195
 8001d18:	0800e1a1 	.word	0x0800e1a1
 8001d1c:	0800e1ae 	.word	0x0800e1ae

08001d20 <move>:
 8001d20:	e92d 4ff0 	stmdb	sp!, {r4, r5, r6, r7, r8, r9, sl, fp, lr}
 8001d24:	ed2d 8b06 	vpush	{d8-d10}
 8001d28:	f8df 92c4 	ldr.w	r9, [pc, #708]	; 8001ff0 <move+0x2d0>
 8001d2c:	ed9f aaa2 	vldr	s20, [pc, #648]	; 8001fb8 <move+0x298>
 8001d30:	f8df a2c0 	ldr.w	sl, [pc, #704]	; 8001ff4 <move+0x2d4>
 8001d34:	b097      	sub	sp, #92	; 0x5c
 8001d36:	2100      	movs	r1, #0
 8001d38:	4680      	mov	r8, r0
 8001d3a:	48a0      	ldr	r0, [pc, #640]	; (8001fbc <move+0x29c>)
 8001d3c:	eeb0 9a40 	vmov.f32	s18, s0
 8001d40:	f005 fa0c 	bl	800715c <HAL_TIM_PWM_Start>
 8001d44:	2108      	movs	r1, #8
 8001d46:	489d      	ldr	r0, [pc, #628]	; (8001fbc <move+0x29c>)
 8001d48:	f005 fa08 	bl	800715c <HAL_TIM_PWM_Start>
 8001d4c:	210c      	movs	r1, #12
 8001d4e:	4648      	mov	r0, r9
 8001d50:	f005 fa04 	bl	800715c <HAL_TIM_PWM_Start>
 8001d54:	f8d9 3000 	ldr.w	r3, [r9]
 8001d58:	2293      	movs	r2, #147	; 0x93
 8001d5a:	641a      	str	r2, [r3, #64]	; 0x40
 8001d5c:	2064      	movs	r0, #100	; 0x64
 8001d5e:	f005 fe8a 	bl	8007a76 <osDelay>
 8001d62:	2220      	movs	r2, #32
 8001d64:	2100      	movs	r1, #0
 8001d66:	a805      	add	r0, sp, #20
 8001d68:	f007 fd9a 	bl	80098a0 <memset>
 8001d6c:	f44f 75fa 	mov.w	r5, #500	; 0x1f4
 8001d70:	2220      	movs	r2, #32
 8001d72:	2100      	movs	r1, #0
 8001d74:	f240 54dc 	movw	r4, #1500	; 0x5dc
 8001d78:	f04f 567e 	mov.w	r6, #1065353216	; 0x3f800000
 8001d7c:	a80e      	add	r0, sp, #56	; 0x38
 8001d7e:	e9cd 5406 	strd	r5, r4, [sp, #24]
 8001d82:	9604      	str	r6, [sp, #16]
 8001d84:	ed8d aa08 	vstr	s20, [sp, #32]
 8001d88:	f007 fd8a 	bl	80098a0 <memset>
 8001d8c:	a804      	add	r0, sp, #16
 8001d8e:	e9cd 540f 	strd	r5, r4, [sp, #60]	; 0x3c
 8001d92:	960d      	str	r6, [sp, #52]	; 0x34
 8001d94:	4d8a      	ldr	r5, [pc, #552]	; (8001fc0 <move+0x2a0>)
 8001d96:	ed8d aa11 	vstr	s20, [sp, #68]	; 0x44
 8001d9a:	f007 fb69 	bl	8009470 <PIDController_Init>
 8001d9e:	a80d      	add	r0, sp, #52	; 0x34
 8001da0:	f007 fb66 	bl	8009470 <PIDController_Init>
 8001da4:	213c      	movs	r1, #60	; 0x3c
 8001da6:	4650      	mov	r0, sl
 8001da8:	f004 fd05 	bl	80067b6 <HAL_TIM_Encoder_Start>
 8001dac:	213c      	movs	r1, #60	; 0x3c
 8001dae:	4628      	mov	r0, r5
 8001db0:	f004 fd01 	bl	80067b6 <HAL_TIM_Encoder_Start>
 8001db4:	f8da 3000 	ldr.w	r3, [sl]
 8001db8:	6a5c      	ldr	r4, [r3, #36]	; 0x24
 8001dba:	682b      	ldr	r3, [r5, #0]
 8001dbc:	6a5d      	ldr	r5, [r3, #36]	; 0x24
 8001dbe:	f002 fe69 	bl	8004a94 <HAL_GetTick>
 8001dc2:	9001      	str	r0, [sp, #4]
 8001dc4:	f1b8 0f00 	cmp.w	r8, #0
 8001dc8:	f000 80b3 	beq.w	8001f32 <move+0x212>
 8001dcc:	487d      	ldr	r0, [pc, #500]	; (8001fc4 <move+0x2a4>)
 8001dce:	2201      	movs	r2, #1
 8001dd0:	2108      	movs	r1, #8
 8001dd2:	f003 f813 	bl	8004dfc <HAL_GPIO_WritePin>
 8001dd6:	487b      	ldr	r0, [pc, #492]	; (8001fc4 <move+0x2a4>)
 8001dd8:	2200      	movs	r2, #0
 8001dda:	2104      	movs	r1, #4
 8001ddc:	f003 f80e 	bl	8004dfc <HAL_GPIO_WritePin>
 8001de0:	2201      	movs	r2, #1
 8001de2:	4879      	ldr	r0, [pc, #484]	; (8001fc8 <move+0x2a8>)
 8001de4:	f44f 5180 	mov.w	r1, #4096	; 0x1000
 8001de8:	f003 f808 	bl	8004dfc <HAL_GPIO_WritePin>
 8001dec:	2200      	movs	r2, #0
 8001dee:	4877      	ldr	r0, [pc, #476]	; (8001fcc <move+0x2ac>)
 8001df0:	ed9f 8a77 	vldr	s16, [pc, #476]	; 8001fd0 <move+0x2b0>
 8001df4:	f8df b1c4 	ldr.w	fp, [pc, #452]	; 8001fbc <move+0x29c>
 8001df8:	2120      	movs	r1, #32
 8001dfa:	f002 ffff 	bl	8004dfc <HAL_GPIO_WritePin>
 8001dfe:	f44f 66fa 	mov.w	r6, #2000	; 0x7d0
 8001e02:	4637      	mov	r7, r6
 8001e04:	eef0 8a48 	vmov.f32	s17, s16
 8001e08:	f8db 3000 	ldr.w	r3, [fp]
 8001e0c:	635f      	str	r7, [r3, #52]	; 0x34
 8001e0e:	63de      	str	r6, [r3, #60]	; 0x3c
 8001e10:	f002 fe40 	bl	8004a94 <HAL_GetTick>
 8001e14:	4a6f      	ldr	r2, [pc, #444]	; (8001fd4 <move+0x2b4>)
 8001e16:	9002      	str	r0, [sp, #8]
 8001e18:	2301      	movs	r3, #1
 8001e1a:	7013      	strb	r3, [r2, #0]
 8001e1c:	9a01      	ldr	r2, [sp, #4]
 8001e1e:	1a83      	subs	r3, r0, r2
 8001e20:	2b3c      	cmp	r3, #60	; 0x3c
 8001e22:	d9f1      	bls.n	8001e08 <move+0xe8>
 8001e24:	4a66      	ldr	r2, [pc, #408]	; (8001fc0 <move+0x2a0>)
 8001e26:	f8da 1000 	ldr.w	r1, [sl]
 8001e2a:	6810      	ldr	r0, [r2, #0]
 8001e2c:	6a4b      	ldr	r3, [r1, #36]	; 0x24
 8001e2e:	6a42      	ldr	r2, [r0, #36]	; 0x24
 8001e30:	6809      	ldr	r1, [r1, #0]
 8001e32:	06c9      	lsls	r1, r1, #27
 8001e34:	f140 8094 	bpl.w	8001f60 <move+0x240>
 8001e38:	429c      	cmp	r4, r3
 8001e3a:	bfdb      	ittet	le
 8001e3c:	f5c3 417f 	rsble	r1, r3, #65280	; 0xff00
 8001e40:	31ff      	addle	r1, #255	; 0xff
 8001e42:	1ae4      	subgt	r4, r4, r3
 8001e44:	1864      	addle	r4, r4, r1
 8001e46:	6801      	ldr	r1, [r0, #0]
 8001e48:	06c9      	lsls	r1, r1, #27
 8001e4a:	f140 8091 	bpl.w	8001f70 <move+0x250>
 8001e4e:	4295      	cmp	r5, r2
 8001e50:	bfdb      	ittet	le
 8001e52:	f5c2 417f 	rsble	r1, r2, #65280	; 0xff00
 8001e56:	31ff      	addle	r1, #255	; 0xff
 8001e58:	1aad      	subgt	r5, r5, r2
 8001e5a:	186d      	addle	r5, r5, r1
 8001e5c:	ee07 4a90 	vmov	s15, r4
 8001e60:	ed9f 7a5d 	vldr	s14, [pc, #372]	; 8001fd8 <move+0x2b8>
 8001e64:	ed9f 6a5d 	vldr	s12, [pc, #372]	; 8001fdc <move+0x2bc>
 8001e68:	9203      	str	r2, [sp, #12]
 8001e6a:	eef8 7ae7 	vcvt.f32.s32	s15, s15
 8001e6e:	9301      	str	r3, [sp, #4]
 8001e70:	eec7 6a87 	vdiv.f32	s13, s15, s14
 8001e74:	ee07 5a90 	vmov	s15, r5
 8001e78:	ed9f 7a59 	vldr	s14, [pc, #356]	; 8001fe0 <move+0x2c0>
 8001e7c:	eef8 7ae7 	vcvt.f32.s32	s15, s15
 8001e80:	eee6 8a87 	vfma.f32	s17, s13, s14
 8001e84:	eec7 6a86 	vdiv.f32	s13, s15, s12
 8001e88:	eea6 8a87 	vfma.f32	s16, s13, s14
 8001e8c:	f1b8 0f00 	cmp.w	r8, #0
 8001e90:	d076      	beq.n	8001f80 <move+0x260>
 8001e92:	4639      	mov	r1, r7
 8001e94:	eddf 9a53 	vldr	s19, [pc, #332]	; 8001fe4 <move+0x2c4>
 8001e98:	ee68 9a29 	vmul.f32	s19, s16, s19
 8001e9c:	eef0 0a68 	vmov.f32	s1, s17
 8001ea0:	eeb0 0a69 	vmov.f32	s0, s19
 8001ea4:	a804      	add	r0, sp, #16
 8001ea6:	f007 faeb 	bl	8009480 <PIDController_Update>
 8001eaa:	4631      	mov	r1, r6
 8001eac:	b287      	uxth	r7, r0
 8001eae:	eef0 0a69 	vmov.f32	s1, s19
 8001eb2:	eeb0 0a68 	vmov.f32	s0, s17
 8001eb6:	a80d      	add	r0, sp, #52	; 0x34
 8001eb8:	f007 fae2 	bl	8009480 <PIDController_Update>
 8001ebc:	eddf 7a4a 	vldr	s15, [pc, #296]	; 8001fe8 <move+0x2c8>
 8001ec0:	9b01      	ldr	r3, [sp, #4]
 8001ec2:	9a03      	ldr	r2, [sp, #12]
 8001ec4:	ee69 7a27 	vmul.f32	s15, s18, s15
 8001ec8:	b286      	uxth	r6, r0
 8001eca:	ee77 7a89 	vadd.f32	s15, s15, s18
 8001ece:	eef4 7ae8 	vcmpe.f32	s15, s17
 8001ed2:	eef1 fa10 	vmrs	APSR_nzcv, fpscr
 8001ed6:	d904      	bls.n	8001ee2 <move+0x1c2>
 8001ed8:	eef4 7ac8 	vcmpe.f32	s15, s16
 8001edc:	eef1 fa10 	vmrs	APSR_nzcv, fpscr
 8001ee0:	d839      	bhi.n	8001f56 <move+0x236>
 8001ee2:	f8db 3000 	ldr.w	r3, [fp]
 8001ee6:	4837      	ldr	r0, [pc, #220]	; (8001fc4 <move+0x2a4>)
 8001ee8:	2400      	movs	r4, #0
 8001eea:	635c      	str	r4, [r3, #52]	; 0x34
 8001eec:	63dc      	str	r4, [r3, #60]	; 0x3c
 8001eee:	4b39      	ldr	r3, [pc, #228]	; (8001fd4 <move+0x2b4>)
 8001ef0:	2201      	movs	r2, #1
 8001ef2:	2108      	movs	r1, #8
 8001ef4:	701c      	strb	r4, [r3, #0]
 8001ef6:	f002 ff81 	bl	8004dfc <HAL_GPIO_WritePin>
 8001efa:	4622      	mov	r2, r4
 8001efc:	4831      	ldr	r0, [pc, #196]	; (8001fc4 <move+0x2a4>)
 8001efe:	2104      	movs	r1, #4
 8001f00:	f002 ff7c 	bl	8004dfc <HAL_GPIO_WritePin>
 8001f04:	4830      	ldr	r0, [pc, #192]	; (8001fc8 <move+0x2a8>)
 8001f06:	2201      	movs	r2, #1
 8001f08:	f44f 5180 	mov.w	r1, #4096	; 0x1000
 8001f0c:	f002 ff76 	bl	8004dfc <HAL_GPIO_WritePin>
 8001f10:	4622      	mov	r2, r4
 8001f12:	2120      	movs	r1, #32
 8001f14:	482d      	ldr	r0, [pc, #180]	; (8001fcc <move+0x2ac>)
 8001f16:	f002 ff71 	bl	8004dfc <HAL_GPIO_WritePin>
 8001f1a:	f8d9 3000 	ldr.w	r3, [r9]
 8001f1e:	2293      	movs	r2, #147	; 0x93
 8001f20:	641a      	str	r2, [r3, #64]	; 0x40
 8001f22:	200a      	movs	r0, #10
 8001f24:	f005 fda7 	bl	8007a76 <osDelay>
 8001f28:	b017      	add	sp, #92	; 0x5c
 8001f2a:	ecbd 8b06 	vpop	{d8-d10}
 8001f2e:	e8bd 8ff0 	ldmia.w	sp!, {r4, r5, r6, r7, r8, r9, sl, fp, pc}
 8001f32:	4824      	ldr	r0, [pc, #144]	; (8001fc4 <move+0x2a4>)
 8001f34:	4642      	mov	r2, r8
 8001f36:	2108      	movs	r1, #8
 8001f38:	f002 ff60 	bl	8004dfc <HAL_GPIO_WritePin>
 8001f3c:	4821      	ldr	r0, [pc, #132]	; (8001fc4 <move+0x2a4>)
 8001f3e:	2201      	movs	r2, #1
 8001f40:	2104      	movs	r1, #4
 8001f42:	f002 ff5b 	bl	8004dfc <HAL_GPIO_WritePin>
 8001f46:	4642      	mov	r2, r8
 8001f48:	481f      	ldr	r0, [pc, #124]	; (8001fc8 <move+0x2a8>)
 8001f4a:	f44f 5180 	mov.w	r1, #4096	; 0x1000
 8001f4e:	f002 ff55 	bl	8004dfc <HAL_GPIO_WritePin>
 8001f52:	2201      	movs	r2, #1
 8001f54:	e74b      	b.n	8001dee <move+0xce>
 8001f56:	9902      	ldr	r1, [sp, #8]
 8001f58:	9101      	str	r1, [sp, #4]
 8001f5a:	4615      	mov	r5, r2
 8001f5c:	461c      	mov	r4, r3
 8001f5e:	e753      	b.n	8001e08 <move+0xe8>
 8001f60:	429c      	cmp	r4, r3
 8001f62:	bfa5      	ittet	ge
 8001f64:	f5c4 447f 	rsbge	r4, r4, #65280	; 0xff00
 8001f68:	34ff      	addge	r4, #255	; 0xff
 8001f6a:	1b1c      	sublt	r4, r3, r4
 8001f6c:	18e4      	addge	r4, r4, r3
 8001f6e:	e76a      	b.n	8001e46 <move+0x126>
 8001f70:	4295      	cmp	r5, r2
 8001f72:	bfa5      	ittet	ge
 8001f74:	f5c5 457f 	rsbge	r5, r5, #65280	; 0xff00
 8001f78:	35ff      	addge	r5, #255	; 0xff
 8001f7a:	1b55      	sublt	r5, r2, r5
 8001f7c:	18ad      	addge	r5, r5, r2
 8001f7e:	e76d      	b.n	8001e5c <move+0x13c>
 8001f80:	eddf 9a1a 	vldr	s19, [pc, #104]	; 8001fec <move+0x2cc>
 8001f84:	ee68 9aa9 	vmul.f32	s19, s17, s19
 8001f88:	4639      	mov	r1, r7
 8001f8a:	eef0 0a69 	vmov.f32	s1, s19
 8001f8e:	eeb0 0a48 	vmov.f32	s0, s16
 8001f92:	a804      	add	r0, sp, #16
 8001f94:	f007 fa74 	bl	8009480 <PIDController_Update>
 8001f98:	4631      	mov	r1, r6
 8001f9a:	b287      	uxth	r7, r0
 8001f9c:	eef0 0a48 	vmov.f32	s1, s16
 8001fa0:	eeb0 0a69 	vmov.f32	s0, s19
 8001fa4:	a80d      	add	r0, sp, #52	; 0x34
 8001fa6:	f007 fa6b 	bl	8009480 <PIDController_Update>
 8001faa:	ee69 7a0a 	vmul.f32	s15, s18, s20
 8001fae:	9a03      	ldr	r2, [sp, #12]
 8001fb0:	9b01      	ldr	r3, [sp, #4]
 8001fb2:	b286      	uxth	r6, r0
 8001fb4:	e789      	b.n	8001eca <move+0x1aa>
 8001fb6:	bf00      	nop
 8001fb8:	3d4ccccd 	.word	0x3d4ccccd
 8001fbc:	200003c4 	.word	0x200003c4
 8001fc0:	2000037c 	.word	0x2000037c
 8001fc4:	40020000 	.word	0x40020000
 8001fc8:	40021000 	.word	0x40021000
 8001fcc:	40020800 	.word	0x40020800
 8001fd0:	00000000 	.word	0x00000000
 8001fd4:	20000455 	.word	0x20000455
 8001fd8:	44440000 	.word	0x44440000
 8001fdc:	4442c000 	.word	0x4442c000
 8001fe0:	41b33333 	.word	0x41b33333
 8001fe4:	3f8597f6 	.word	0x3f8597f6
 8001fe8:	3d3851ec 	.word	0x3d3851ec
 8001fec:	3f7fe5c9 	.word	0x3f7fe5c9
 8001ff0:	200002a4 	.word	0x200002a4
 8001ff4:	200002ec 	.word	0x200002ec

08001ff8 <moveUltra>:
 8001ff8:	e92d 4ff0 	stmdb	sp!, {r4, r5, r6, r7, r8, r9, sl, fp, lr}
 8001ffc:	2100      	movs	r1, #0
 8001ffe:	b099      	sub	sp, #100	; 0x64
 8002000:	4c70      	ldr	r4, [pc, #448]	; (80021c4 <moveUltra+0x1cc>)
 8002002:	4871      	ldr	r0, [pc, #452]	; (80021c8 <moveUltra+0x1d0>)
 8002004:	4d71      	ldr	r5, [pc, #452]	; (80021cc <moveUltra+0x1d4>)
 8002006:	f8df a1e4 	ldr.w	sl, [pc, #484]	; 80021ec <moveUltra+0x1f4>
 800200a:	f8df b1e4 	ldr.w	fp, [pc, #484]	; 80021f0 <moveUltra+0x1f8>
 800200e:	f005 f8a5 	bl	800715c <HAL_TIM_PWM_Start>
 8002012:	2108      	movs	r1, #8
 8002014:	486c      	ldr	r0, [pc, #432]	; (80021c8 <moveUltra+0x1d0>)
 8002016:	f005 f8a1 	bl	800715c <HAL_TIM_PWM_Start>
 800201a:	210c      	movs	r1, #12
 800201c:	4620      	mov	r0, r4
 800201e:	f005 f89d 	bl	800715c <HAL_TIM_PWM_Start>
 8002022:	6823      	ldr	r3, [r4, #0]
 8002024:	2293      	movs	r2, #147	; 0x93
 8002026:	641a      	str	r2, [r3, #64]	; 0x40
 8002028:	2064      	movs	r0, #100	; 0x64
 800202a:	f005 fd24 	bl	8007a76 <osDelay>
 800202e:	2220      	movs	r2, #32
 8002030:	2100      	movs	r1, #0
 8002032:	a807      	add	r0, sp, #28
 8002034:	f007 fc34 	bl	80098a0 <memset>
 8002038:	f04f 587e 	mov.w	r8, #1065353216	; 0x3f800000
 800203c:	2220      	movs	r2, #32
 800203e:	2100      	movs	r1, #0
 8002040:	f240 57aa 	movw	r7, #1450	; 0x5aa
 8002044:	f640 3654 	movw	r6, #2900	; 0xb54
 8002048:	a810      	add	r0, sp, #64	; 0x40
 800204a:	e9cd 7608 	strd	r7, r6, [sp, #32]
 800204e:	f8cd 8018 	str.w	r8, [sp, #24]
 8002052:	950a      	str	r5, [sp, #40]	; 0x28
 8002054:	f007 fc24 	bl	80098a0 <memset>
 8002058:	a806      	add	r0, sp, #24
 800205a:	e9cd 7611 	strd	r7, r6, [sp, #68]	; 0x44
 800205e:	f8cd 803c 	str.w	r8, [sp, #60]	; 0x3c
 8002062:	9513      	str	r5, [sp, #76]	; 0x4c
 8002064:	f007 fa04 	bl	8009470 <PIDController_Init>
 8002068:	a80f      	add	r0, sp, #60	; 0x3c
 800206a:	f007 fa01 	bl	8009470 <PIDController_Init>
 800206e:	213c      	movs	r1, #60	; 0x3c
 8002070:	4650      	mov	r0, sl
 8002072:	f004 fba0 	bl	80067b6 <HAL_TIM_Encoder_Start>
 8002076:	213c      	movs	r1, #60	; 0x3c
 8002078:	4658      	mov	r0, fp
 800207a:	f004 fb9c 	bl	80067b6 <HAL_TIM_Encoder_Start>
 800207e:	f8da 3000 	ldr.w	r3, [sl]
 8002082:	4f53      	ldr	r7, [pc, #332]	; (80021d0 <moveUltra+0x1d8>)
 8002084:	6a5b      	ldr	r3, [r3, #36]	; 0x24
 8002086:	f8db 3000 	ldr.w	r3, [fp]
 800208a:	6a5b      	ldr	r3, [r3, #36]	; 0x24
 800208c:	f002 fd02 	bl	8004a94 <HAL_GetTick>
 8002090:	2201      	movs	r2, #1
 8002092:	2108      	movs	r1, #8
 8002094:	4605      	mov	r5, r0
 8002096:	484f      	ldr	r0, [pc, #316]	; (80021d4 <moveUltra+0x1dc>)
 8002098:	f002 feb0 	bl	8004dfc <HAL_GPIO_WritePin>
 800209c:	484d      	ldr	r0, [pc, #308]	; (80021d4 <moveUltra+0x1dc>)
 800209e:	2200      	movs	r2, #0
 80020a0:	2104      	movs	r1, #4
 80020a2:	f002 feab 	bl	8004dfc <HAL_GPIO_WritePin>
 80020a6:	484c      	ldr	r0, [pc, #304]	; (80021d8 <moveUltra+0x1e0>)
 80020a8:	2201      	movs	r2, #1
 80020aa:	f44f 5180 	mov.w	r1, #4096	; 0x1000
 80020ae:	f002 fea5 	bl	8004dfc <HAL_GPIO_WritePin>
 80020b2:	484a      	ldr	r0, [pc, #296]	; (80021dc <moveUltra+0x1e4>)
 80020b4:	2200      	movs	r2, #0
 80020b6:	2120      	movs	r1, #32
 80020b8:	f002 fea0 	bl	8004dfc <HAL_GPIO_WritePin>
 80020bc:	f04f 0800 	mov.w	r8, #0
 80020c0:	f04f 0900 	mov.w	r9, #0
 80020c4:	4940      	ldr	r1, [pc, #256]	; (80021c8 <moveUltra+0x1d0>)
 80020c6:	f640 33b8 	movw	r3, #3000	; 0xbb8
 80020ca:	6808      	ldr	r0, [r1, #0]
 80020cc:	6343      	str	r3, [r0, #52]	; 0x34
 80020ce:	63c3      	str	r3, [r0, #60]	; 0x3c
 80020d0:	f002 fce0 	bl	8004a94 <HAL_GetTick>
 80020d4:	4a42      	ldr	r2, [pc, #264]	; (80021e0 <moveUltra+0x1e8>)
 80020d6:	493c      	ldr	r1, [pc, #240]	; (80021c8 <moveUltra+0x1d0>)
 80020d8:	4606      	mov	r6, r0
 80020da:	2001      	movs	r0, #1
 80020dc:	7010      	strb	r0, [r2, #0]
 80020de:	1b70      	subs	r0, r6, r5
 80020e0:	283c      	cmp	r0, #60	; 0x3c
 80020e2:	f640 33b8 	movw	r3, #3000	; 0xbb8
 80020e6:	d9f0      	bls.n	80020ca <moveUltra+0xd2>
 80020e8:	f8da 2000 	ldr.w	r2, [sl]
 80020ec:	6a53      	ldr	r3, [r2, #36]	; 0x24
 80020ee:	f8db 3000 	ldr.w	r3, [fp]
 80020f2:	6a59      	ldr	r1, [r3, #36]	; 0x24
 80020f4:	6812      	ldr	r2, [r2, #0]
 80020f6:	681b      	ldr	r3, [r3, #0]
 80020f8:	e9d7 0100 	ldrd	r0, r1, [r7]
 80020fc:	4642      	mov	r2, r8
 80020fe:	464b      	mov	r3, r9
 8002100:	f7fe fcec 	bl	8000adc <__aeabi_dcmplt>
 8002104:	b128      	cbz	r0, 8002112 <moveUltra+0x11a>
 8002106:	6823      	ldr	r3, [r4, #0]
 8002108:	228a      	movs	r2, #138	; 0x8a
 800210a:	641a      	str	r2, [r3, #64]	; 0x40
 800210c:	200a      	movs	r0, #10
 800210e:	f005 fcb2 	bl	8007a76 <osDelay>
 8002112:	e9d7 0100 	ldrd	r0, r1, [r7]
 8002116:	4642      	mov	r2, r8
 8002118:	464b      	mov	r3, r9
 800211a:	f7fe fcfd 	bl	8000b18 <__aeabi_dcmpgt>
 800211e:	b128      	cbz	r0, 800212c <moveUltra+0x134>
 8002120:	6823      	ldr	r3, [r4, #0]
 8002122:	2298      	movs	r2, #152	; 0x98
 8002124:	641a      	str	r2, [r3, #64]	; 0x40
 8002126:	200a      	movs	r0, #10
 8002128:	f005 fca5 	bl	8007a76 <osDelay>
 800212c:	e9d7 0100 	ldrd	r0, r1, [r7]
 8002130:	4642      	mov	r2, r8
 8002132:	464b      	mov	r3, r9
 8002134:	f7fe fcc8 	bl	8000ac8 <__aeabi_dcmpeq>
 8002138:	b128      	cbz	r0, 8002146 <moveUltra+0x14e>
 800213a:	6823      	ldr	r3, [r4, #0]
 800213c:	2293      	movs	r2, #147	; 0x93
 800213e:	641a      	str	r2, [r3, #64]	; 0x40
 8002140:	200a      	movs	r0, #10
 8002142:	f005 fc98 	bl	8007a76 <osDelay>
 8002146:	4b27      	ldr	r3, [pc, #156]	; (80021e4 <moveUltra+0x1ec>)
 8002148:	ed93 7a00 	vldr	s14, [r3]
 800214c:	eef2 7a0e 	vmov.f32	s15, #46	; 0x41700000  15.0
 8002150:	eeb4 7ae7 	vcmpe.f32	s14, s15
 8002154:	eef1 fa10 	vmrs	APSR_nzcv, fpscr
 8002158:	d411      	bmi.n	800217e <moveUltra+0x186>
 800215a:	e9d7 0100 	ldrd	r0, r1, [r7]
 800215e:	f7fe fcfb 	bl	8000b58 <__aeabi_d2iz>
 8002162:	4921      	ldr	r1, [pc, #132]	; (80021e8 <moveUltra+0x1f0>)
 8002164:	4602      	mov	r2, r0
 8002166:	a801      	add	r0, sp, #4
 8002168:	f008 fa22 	bl	800a5b0 <siprintf>
 800216c:	aa01      	add	r2, sp, #4
 800216e:	2114      	movs	r1, #20
 8002170:	200a      	movs	r0, #10
 8002172:	f007 fab5 	bl	80096e0 <OLED_ShowString>
 8002176:	4635      	mov	r5, r6
 8002178:	f007 fa16 	bl	80095a8 <OLED_Refresh_Gram>
 800217c:	e7a2      	b.n	80020c4 <moveUltra+0xcc>
 800217e:	eeb7 0a00 	vmov.f32	s0, #112	; 0x3f800000  1.0
 8002182:	2000      	movs	r0, #0
 8002184:	f7ff fdcc 	bl	8001d20 <move>
 8002188:	4812      	ldr	r0, [pc, #72]	; (80021d4 <moveUltra+0x1dc>)
 800218a:	2201      	movs	r2, #1
 800218c:	2108      	movs	r1, #8
 800218e:	f002 fe35 	bl	8004dfc <HAL_GPIO_WritePin>
 8002192:	4810      	ldr	r0, [pc, #64]	; (80021d4 <moveUltra+0x1dc>)
 8002194:	2200      	movs	r2, #0
 8002196:	2104      	movs	r1, #4
 8002198:	f002 fe30 	bl	8004dfc <HAL_GPIO_WritePin>
 800219c:	480e      	ldr	r0, [pc, #56]	; (80021d8 <moveUltra+0x1e0>)
 800219e:	2201      	movs	r2, #1
 80021a0:	f44f 5180 	mov.w	r1, #4096	; 0x1000
 80021a4:	f002 fe2a 	bl	8004dfc <HAL_GPIO_WritePin>
 80021a8:	2120      	movs	r1, #32
 80021aa:	480c      	ldr	r0, [pc, #48]	; (80021dc <moveUltra+0x1e4>)
 80021ac:	2200      	movs	r2, #0
 80021ae:	f002 fe25 	bl	8004dfc <HAL_GPIO_WritePin>
 80021b2:	6823      	ldr	r3, [r4, #0]
 80021b4:	2293      	movs	r2, #147	; 0x93
 80021b6:	641a      	str	r2, [r3, #64]	; 0x40
 80021b8:	200a      	movs	r0, #10
 80021ba:	f005 fc5c 	bl	8007a76 <osDelay>
 80021be:	b019      	add	sp, #100	; 0x64
 80021c0:	e8bd 8ff0 	ldmia.w	sp!, {r4, r5, r6, r7, r8, r9, sl, fp, pc}
 80021c4:	200002a4 	.word	0x200002a4
 80021c8:	200003c4 	.word	0x200003c4
 80021cc:	3d4ccccd 	.word	0x3d4ccccd
 80021d0:	20000228 	.word	0x20000228
 80021d4:	40020000 	.word	0x40020000
 80021d8:	40021000 	.word	0x40021000
 80021dc:	40020800 	.word	0x40020800
 80021e0:	20000455 	.word	0x20000455
 80021e4:	20000208 	.word	0x20000208
 80021e8:	0800e1bc 	.word	0x0800e1bc
 80021ec:	200002ec 	.word	0x200002ec
 80021f0:	2000037c 	.word	0x2000037c

080021f4 <moveUltraEnd>:
 80021f4:	e92d 4ff0 	stmdb	sp!, {r4, r5, r6, r7, r8, r9, sl, fp, lr}
 80021f8:	2100      	movs	r1, #0
 80021fa:	b099      	sub	sp, #100	; 0x64
 80021fc:	4c71      	ldr	r4, [pc, #452]	; (80023c4 <moveUltraEnd+0x1d0>)
 80021fe:	4872      	ldr	r0, [pc, #456]	; (80023c8 <moveUltraEnd+0x1d4>)
 8002200:	4d72      	ldr	r5, [pc, #456]	; (80023cc <moveUltraEnd+0x1d8>)
 8002202:	f8df 91e8 	ldr.w	r9, [pc, #488]	; 80023ec <moveUltraEnd+0x1f8>
 8002206:	f004 ffa9 	bl	800715c <HAL_TIM_PWM_Start>
 800220a:	2108      	movs	r1, #8
 800220c:	486e      	ldr	r0, [pc, #440]	; (80023c8 <moveUltraEnd+0x1d4>)
 800220e:	f004 ffa5 	bl	800715c <HAL_TIM_PWM_Start>
 8002212:	210c      	movs	r1, #12
 8002214:	4620      	mov	r0, r4
 8002216:	f004 ffa1 	bl	800715c <HAL_TIM_PWM_Start>
 800221a:	6823      	ldr	r3, [r4, #0]
 800221c:	2293      	movs	r2, #147	; 0x93
 800221e:	641a      	str	r2, [r3, #64]	; 0x40
 8002220:	2064      	movs	r0, #100	; 0x64
 8002222:	f005 fc28 	bl	8007a76 <osDelay>
 8002226:	2220      	movs	r2, #32
 8002228:	2100      	movs	r1, #0
 800222a:	a807      	add	r0, sp, #28
 800222c:	f007 fb38 	bl	80098a0 <memset>
 8002230:	f04f 587e 	mov.w	r8, #1065353216	; 0x3f800000
 8002234:	2220      	movs	r2, #32
 8002236:	2100      	movs	r1, #0
 8002238:	f640 3654 	movw	r6, #2900	; 0xb54
 800223c:	f240 57aa 	movw	r7, #1450	; 0x5aa
 8002240:	a810      	add	r0, sp, #64	; 0x40
 8002242:	e9cd 7608 	strd	r7, r6, [sp, #32]
 8002246:	f8cd 8018 	str.w	r8, [sp, #24]
 800224a:	950a      	str	r5, [sp, #40]	; 0x28
 800224c:	f007 fb28 	bl	80098a0 <memset>
 8002250:	f8cd 803c 	str.w	r8, [sp, #60]	; 0x3c
 8002254:	a806      	add	r0, sp, #24
 8002256:	f8df 8198 	ldr.w	r8, [pc, #408]	; 80023f0 <moveUltraEnd+0x1fc>
 800225a:	9513      	str	r5, [sp, #76]	; 0x4c
 800225c:	e9cd 7611 	strd	r7, r6, [sp, #68]	; 0x44
 8002260:	f007 f906 	bl	8009470 <PIDController_Init>
 8002264:	a80f      	add	r0, sp, #60	; 0x3c
 8002266:	f007 f903 	bl	8009470 <PIDController_Init>
 800226a:	213c      	movs	r1, #60	; 0x3c
 800226c:	4640      	mov	r0, r8
 800226e:	f004 faa2 	bl	80067b6 <HAL_TIM_Encoder_Start>
 8002272:	213c      	movs	r1, #60	; 0x3c
 8002274:	4648      	mov	r0, r9
 8002276:	f004 fa9e 	bl	80067b6 <HAL_TIM_Encoder_Start>
 800227a:	f8d8 3000 	ldr.w	r3, [r8]
 800227e:	4d54      	ldr	r5, [pc, #336]	; (80023d0 <moveUltraEnd+0x1dc>)
 8002280:	6a5b      	ldr	r3, [r3, #36]	; 0x24
 8002282:	f8d9 3000 	ldr.w	r3, [r9]
 8002286:	6a5b      	ldr	r3, [r3, #36]	; 0x24
 8002288:	f002 fc04 	bl	8004a94 <HAL_GetTick>
 800228c:	f04f 0a00 	mov.w	sl, #0
 8002290:	2201      	movs	r2, #1
 8002292:	2108      	movs	r1, #8
 8002294:	4606      	mov	r6, r0
 8002296:	f04f 0b00 	mov.w	fp, #0
 800229a:	484e      	ldr	r0, [pc, #312]	; (80023d4 <moveUltraEnd+0x1e0>)
 800229c:	e9c5 ab00 	strd	sl, fp, [r5]
 80022a0:	f002 fdac 	bl	8004dfc <HAL_GPIO_WritePin>
 80022a4:	484b      	ldr	r0, [pc, #300]	; (80023d4 <moveUltraEnd+0x1e0>)
 80022a6:	2200      	movs	r2, #0
 80022a8:	2104      	movs	r1, #4
 80022aa:	f002 fda7 	bl	8004dfc <HAL_GPIO_WritePin>
 80022ae:	484a      	ldr	r0, [pc, #296]	; (80023d8 <moveUltraEnd+0x1e4>)
 80022b0:	2201      	movs	r2, #1
 80022b2:	f44f 5180 	mov.w	r1, #4096	; 0x1000
 80022b6:	f002 fda1 	bl	8004dfc <HAL_GPIO_WritePin>
 80022ba:	4848      	ldr	r0, [pc, #288]	; (80023dc <moveUltraEnd+0x1e8>)
 80022bc:	2200      	movs	r2, #0
 80022be:	2120      	movs	r1, #32
 80022c0:	f002 fd9c 	bl	8004dfc <HAL_GPIO_WritePin>
 80022c4:	f640 32b8 	movw	r2, #3000	; 0xbb8
 80022c8:	4b3f      	ldr	r3, [pc, #252]	; (80023c8 <moveUltraEnd+0x1d4>)
 80022ca:	681b      	ldr	r3, [r3, #0]
 80022cc:	635a      	str	r2, [r3, #52]	; 0x34
 80022ce:	63da      	str	r2, [r3, #60]	; 0x3c
 80022d0:	f002 fbe0 	bl	8004a94 <HAL_GetTick>
 80022d4:	4a42      	ldr	r2, [pc, #264]	; (80023e0 <moveUltraEnd+0x1ec>)
 80022d6:	2301      	movs	r3, #1
 80022d8:	7013      	strb	r3, [r2, #0]
 80022da:	1b83      	subs	r3, r0, r6
 80022dc:	2b3c      	cmp	r3, #60	; 0x3c
 80022de:	4607      	mov	r7, r0
 80022e0:	f640 32b8 	movw	r2, #3000	; 0xbb8
 80022e4:	d9f0      	bls.n	80022c8 <moveUltraEnd+0xd4>
 80022e6:	f8d8 2000 	ldr.w	r2, [r8]
 80022ea:	6a53      	ldr	r3, [r2, #36]	; 0x24
 80022ec:	f8d9 3000 	ldr.w	r3, [r9]
 80022f0:	6a59      	ldr	r1, [r3, #36]	; 0x24
 80022f2:	6812      	ldr	r2, [r2, #0]
 80022f4:	681b      	ldr	r3, [r3, #0]
 80022f6:	e9d5 0100 	ldrd	r0, r1, [r5]
 80022fa:	4652      	mov	r2, sl
 80022fc:	465b      	mov	r3, fp
 80022fe:	f7fe fbed 	bl	8000adc <__aeabi_dcmplt>
 8002302:	b128      	cbz	r0, 8002310 <moveUltraEnd+0x11c>
 8002304:	6823      	ldr	r3, [r4, #0]
 8002306:	228a      	movs	r2, #138	; 0x8a
 8002308:	641a      	str	r2, [r3, #64]	; 0x40
 800230a:	200a      	movs	r0, #10
 800230c:	f005 fbb3 	bl	8007a76 <osDelay>
 8002310:	e9d5 0100 	ldrd	r0, r1, [r5]
 8002314:	4652      	mov	r2, sl
 8002316:	465b      	mov	r3, fp
 8002318:	f7fe fbfe 	bl	8000b18 <__aeabi_dcmpgt>
 800231c:	b128      	cbz	r0, 800232a <moveUltraEnd+0x136>
 800231e:	6823      	ldr	r3, [r4, #0]
 8002320:	2298      	movs	r2, #152	; 0x98
 8002322:	641a      	str	r2, [r3, #64]	; 0x40
 8002324:	200a      	movs	r0, #10
 8002326:	f005 fba6 	bl	8007a76 <osDelay>
 800232a:	e9d5 0100 	ldrd	r0, r1, [r5]
 800232e:	4652      	mov	r2, sl
 8002330:	465b      	mov	r3, fp
 8002332:	f7fe fbc9 	bl	8000ac8 <__aeabi_dcmpeq>
 8002336:	b128      	cbz	r0, 8002344 <moveUltraEnd+0x150>
 8002338:	6823      	ldr	r3, [r4, #0]
 800233a:	2293      	movs	r2, #147	; 0x93
 800233c:	641a      	str	r2, [r3, #64]	; 0x40
 800233e:	200a      	movs	r0, #10
 8002340:	f005 fb99 	bl	8007a76 <osDelay>
 8002344:	4b27      	ldr	r3, [pc, #156]	; (80023e4 <moveUltraEnd+0x1f0>)
 8002346:	ed93 7a00 	vldr	s14, [r3]
 800234a:	eef2 7a00 	vmov.f32	s15, #32	; 0x41000000  8.0
 800234e:	eeb4 7ae7 	vcmpe.f32	s14, s15
 8002352:	eef1 fa10 	vmrs	APSR_nzcv, fpscr
 8002356:	d411      	bmi.n	800237c <moveUltraEnd+0x188>
 8002358:	e9d5 0100 	ldrd	r0, r1, [r5]
 800235c:	f7fe fbfc 	bl	8000b58 <__aeabi_d2iz>
 8002360:	4921      	ldr	r1, [pc, #132]	; (80023e8 <moveUltraEnd+0x1f4>)
 8002362:	4602      	mov	r2, r0
 8002364:	a801      	add	r0, sp, #4
 8002366:	f008 f923 	bl	800a5b0 <siprintf>
 800236a:	aa01      	add	r2, sp, #4
 800236c:	2114      	movs	r1, #20
 800236e:	200a      	movs	r0, #10
 8002370:	f007 f9b6 	bl	80096e0 <OLED_ShowString>
 8002374:	463e      	mov	r6, r7
 8002376:	f007 f917 	bl	80095a8 <OLED_Refresh_Gram>
 800237a:	e7a3      	b.n	80022c4 <moveUltraEnd+0xd0>
 800237c:	eeb7 0a00 	vmov.f32	s0, #112	; 0x3f800000  1.0
 8002380:	2000      	movs	r0, #0
 8002382:	f7ff fccd 	bl	8001d20 <move>
 8002386:	4813      	ldr	r0, [pc, #76]	; (80023d4 <moveUltraEnd+0x1e0>)
 8002388:	2201      	movs	r2, #1
 800238a:	2108      	movs	r1, #8
 800238c:	f002 fd36 	bl	8004dfc <HAL_GPIO_WritePin>
 8002390:	4810      	ldr	r0, [pc, #64]	; (80023d4 <moveUltraEnd+0x1e0>)
 8002392:	2200      	movs	r2, #0
 8002394:	2104      	movs	r1, #4
 8002396:	f002 fd31 	bl	8004dfc <HAL_GPIO_WritePin>
 800239a:	480f      	ldr	r0, [pc, #60]	; (80023d8 <moveUltraEnd+0x1e4>)
 800239c:	2201      	movs	r2, #1
 800239e:	f44f 5180 	mov.w	r1, #4096	; 0x1000
 80023a2:	f002 fd2b 	bl	8004dfc <HAL_GPIO_WritePin>
 80023a6:	2120      	movs	r1, #32
 80023a8:	480c      	ldr	r0, [pc, #48]	; (80023dc <moveUltraEnd+0x1e8>)
 80023aa:	2200      	movs	r2, #0
 80023ac:	f002 fd26 	bl	8004dfc <HAL_GPIO_WritePin>
 80023b0:	6823      	ldr	r3, [r4, #0]
 80023b2:	2293      	movs	r2, #147	; 0x93
 80023b4:	641a      	str	r2, [r3, #64]	; 0x40
 80023b6:	200a      	movs	r0, #10
 80023b8:	f005 fb5d 	bl	8007a76 <osDelay>
 80023bc:	b019      	add	sp, #100	; 0x64
 80023be:	e8bd 8ff0 	ldmia.w	sp!, {r4, r5, r6, r7, r8, r9, sl, fp, pc}
 80023c2:	bf00      	nop
 80023c4:	200002a4 	.word	0x200002a4
 80023c8:	200003c4 	.word	0x200003c4
 80023cc:	3d4ccccd 	.word	0x3d4ccccd
 80023d0:	20000228 	.word	0x20000228
 80023d4:	40020000 	.word	0x40020000
 80023d8:	40021000 	.word	0x40021000
 80023dc:	40020800 	.word	0x40020800
 80023e0:	20000455 	.word	0x20000455
 80023e4:	20000208 	.word	0x20000208
 80023e8:	0800e1bc 	.word	0x0800e1bc
 80023ec:	2000037c 	.word	0x2000037c
 80023f0:	200002ec 	.word	0x200002ec

080023f4 <moveUltraEndLeft>:
 80023f4:	e92d 4ff0 	stmdb	sp!, {r4, r5, r6, r7, r8, r9, sl, fp, lr}
 80023f8:	2100      	movs	r1, #0
 80023fa:	b099      	sub	sp, #100	; 0x64
 80023fc:	4c71      	ldr	r4, [pc, #452]	; (80025c4 <moveUltraEndLeft+0x1d0>)
 80023fe:	4872      	ldr	r0, [pc, #456]	; (80025c8 <moveUltraEndLeft+0x1d4>)
 8002400:	4d72      	ldr	r5, [pc, #456]	; (80025cc <moveUltraEndLeft+0x1d8>)
 8002402:	f8df 91ec 	ldr.w	r9, [pc, #492]	; 80025f0 <moveUltraEndLeft+0x1fc>
 8002406:	f004 fea9 	bl	800715c <HAL_TIM_PWM_Start>
 800240a:	2108      	movs	r1, #8
 800240c:	486e      	ldr	r0, [pc, #440]	; (80025c8 <moveUltraEndLeft+0x1d4>)
 800240e:	f004 fea5 	bl	800715c <HAL_TIM_PWM_Start>
 8002412:	210c      	movs	r1, #12
 8002414:	4620      	mov	r0, r4
 8002416:	f004 fea1 	bl	800715c <HAL_TIM_PWM_Start>
 800241a:	6823      	ldr	r3, [r4, #0]
 800241c:	2293      	movs	r2, #147	; 0x93
 800241e:	641a      	str	r2, [r3, #64]	; 0x40
 8002420:	2064      	movs	r0, #100	; 0x64
 8002422:	f005 fb28 	bl	8007a76 <osDelay>
 8002426:	2220      	movs	r2, #32
 8002428:	2100      	movs	r1, #0
 800242a:	a807      	add	r0, sp, #28
 800242c:	f007 fa38 	bl	80098a0 <memset>
 8002430:	f04f 587e 	mov.w	r8, #1065353216	; 0x3f800000
 8002434:	2220      	movs	r2, #32
 8002436:	2100      	movs	r1, #0
 8002438:	f240 57aa 	movw	r7, #1450	; 0x5aa
 800243c:	f640 3654 	movw	r6, #2900	; 0xb54
 8002440:	a810      	add	r0, sp, #64	; 0x40
 8002442:	e9cd 7608 	strd	r7, r6, [sp, #32]
 8002446:	f8cd 8018 	str.w	r8, [sp, #24]
 800244a:	950a      	str	r5, [sp, #40]	; 0x28
 800244c:	f007 fa28 	bl	80098a0 <memset>
 8002450:	f8cd 803c 	str.w	r8, [sp, #60]	; 0x3c
 8002454:	a806      	add	r0, sp, #24
 8002456:	f8df 819c 	ldr.w	r8, [pc, #412]	; 80025f4 <moveUltraEndLeft+0x200>
 800245a:	9513      	str	r5, [sp, #76]	; 0x4c
 800245c:	e9cd 7611 	strd	r7, r6, [sp, #68]	; 0x44
 8002460:	f007 f806 	bl	8009470 <PIDController_Init>
 8002464:	a80f      	add	r0, sp, #60	; 0x3c
 8002466:	f007 f803 	bl	8009470 <PIDController_Init>
 800246a:	213c      	movs	r1, #60	; 0x3c
 800246c:	4640      	mov	r0, r8
 800246e:	f004 f9a2 	bl	80067b6 <HAL_TIM_Encoder_Start>
 8002472:	213c      	movs	r1, #60	; 0x3c
 8002474:	4648      	mov	r0, r9
 8002476:	f004 f99e 	bl	80067b6 <HAL_TIM_Encoder_Start>
 800247a:	f8d8 3000 	ldr.w	r3, [r8]
 800247e:	4f54      	ldr	r7, [pc, #336]	; (80025d0 <moveUltraEndLeft+0x1dc>)
 8002480:	6a5b      	ldr	r3, [r3, #36]	; 0x24
 8002482:	f8d9 3000 	ldr.w	r3, [r9]
 8002486:	6a5b      	ldr	r3, [r3, #36]	; 0x24
 8002488:	f002 fb04 	bl	8004a94 <HAL_GetTick>
 800248c:	2201      	movs	r2, #1
 800248e:	2108      	movs	r1, #8
 8002490:	4605      	mov	r5, r0
 8002492:	4850      	ldr	r0, [pc, #320]	; (80025d4 <moveUltraEndLeft+0x1e0>)
 8002494:	f002 fcb2 	bl	8004dfc <HAL_GPIO_WritePin>
 8002498:	484e      	ldr	r0, [pc, #312]	; (80025d4 <moveUltraEndLeft+0x1e0>)
 800249a:	2200      	movs	r2, #0
 800249c:	2104      	movs	r1, #4
 800249e:	f002 fcad 	bl	8004dfc <HAL_GPIO_WritePin>
 80024a2:	484d      	ldr	r0, [pc, #308]	; (80025d8 <moveUltraEndLeft+0x1e4>)
 80024a4:	2201      	movs	r2, #1
 80024a6:	f44f 5180 	mov.w	r1, #4096	; 0x1000
 80024aa:	f002 fca7 	bl	8004dfc <HAL_GPIO_WritePin>
 80024ae:	f04f 0a00 	mov.w	sl, #0
 80024b2:	484a      	ldr	r0, [pc, #296]	; (80025dc <moveUltraEndLeft+0x1e8>)
 80024b4:	2200      	movs	r2, #0
 80024b6:	2120      	movs	r1, #32
 80024b8:	f04f 0b00 	mov.w	fp, #0
 80024bc:	f002 fc9e 	bl	8004dfc <HAL_GPIO_WritePin>
 80024c0:	e9c7 ab00 	strd	sl, fp, [r7]
 80024c4:	f640 32b8 	movw	r2, #3000	; 0xbb8
 80024c8:	4b3f      	ldr	r3, [pc, #252]	; (80025c8 <moveUltraEndLeft+0x1d4>)
 80024ca:	681b      	ldr	r3, [r3, #0]
 80024cc:	635a      	str	r2, [r3, #52]	; 0x34
 80024ce:	63da      	str	r2, [r3, #60]	; 0x3c
 80024d0:	f002 fae0 	bl	8004a94 <HAL_GetTick>
 80024d4:	4a42      	ldr	r2, [pc, #264]	; (80025e0 <moveUltraEndLeft+0x1ec>)
 80024d6:	2301      	movs	r3, #1
 80024d8:	7013      	strb	r3, [r2, #0]
 80024da:	1b43      	subs	r3, r0, r5
 80024dc:	2b3c      	cmp	r3, #60	; 0x3c
 80024de:	4606      	mov	r6, r0
 80024e0:	f640 32b8 	movw	r2, #3000	; 0xbb8
 80024e4:	d9f0      	bls.n	80024c8 <moveUltraEndLeft+0xd4>
 80024e6:	f8d8 2000 	ldr.w	r2, [r8]
 80024ea:	6a53      	ldr	r3, [r2, #36]	; 0x24
 80024ec:	f8d9 3000 	ldr.w	r3, [r9]
 80024f0:	6a59      	ldr	r1, [r3, #36]	; 0x24
 80024f2:	6812      	ldr	r2, [r2, #0]
 80024f4:	681b      	ldr	r3, [r3, #0]
 80024f6:	e9d7 0100 	ldrd	r0, r1, [r7]
 80024fa:	4652      	mov	r2, sl
 80024fc:	465b      	mov	r3, fp
 80024fe:	f7fe faed 	bl	8000adc <__aeabi_dcmplt>
 8002502:	b128      	cbz	r0, 8002510 <moveUltraEndLeft+0x11c>
 8002504:	6823      	ldr	r3, [r4, #0]
 8002506:	228a      	movs	r2, #138	; 0x8a
 8002508:	641a      	str	r2, [r3, #64]	; 0x40
 800250a:	200a      	movs	r0, #10
 800250c:	f005 fab3 	bl	8007a76 <osDelay>
 8002510:	e9d7 0100 	ldrd	r0, r1, [r7]
 8002514:	4652      	mov	r2, sl
 8002516:	465b      	mov	r3, fp
 8002518:	f7fe fafe 	bl	8000b18 <__aeabi_dcmpgt>
 800251c:	b128      	cbz	r0, 800252a <moveUltraEndLeft+0x136>
 800251e:	6823      	ldr	r3, [r4, #0]
 8002520:	2298      	movs	r2, #152	; 0x98
 8002522:	641a      	str	r2, [r3, #64]	; 0x40
 8002524:	200a      	movs	r0, #10
 8002526:	f005 faa6 	bl	8007a76 <osDelay>
 800252a:	e9d7 0100 	ldrd	r0, r1, [r7]
 800252e:	4652      	mov	r2, sl
 8002530:	465b      	mov	r3, fp
 8002532:	f7fe fac9 	bl	8000ac8 <__aeabi_dcmpeq>
 8002536:	b128      	cbz	r0, 8002544 <moveUltraEndLeft+0x150>
 8002538:	6823      	ldr	r3, [r4, #0]
 800253a:	2293      	movs	r2, #147	; 0x93
 800253c:	641a      	str	r2, [r3, #64]	; 0x40
 800253e:	200a      	movs	r0, #10
 8002540:	f005 fa99 	bl	8007a76 <osDelay>
 8002544:	4b27      	ldr	r3, [pc, #156]	; (80025e4 <moveUltraEndLeft+0x1f0>)
 8002546:	ed93 7a00 	vldr	s14, [r3]
 800254a:	eef2 7a00 	vmov.f32	s15, #32	; 0x41000000  8.0
 800254e:	eeb4 7ae7 	vcmpe.f32	s14, s15
 8002552:	eef1 fa10 	vmrs	APSR_nzcv, fpscr
 8002556:	d412      	bmi.n	800257e <moveUltraEndLeft+0x18a>
 8002558:	4b23      	ldr	r3, [pc, #140]	; (80025e8 <moveUltraEndLeft+0x1f4>)
 800255a:	e9d3 0100 	ldrd	r0, r1, [r3]
 800255e:	f7fe fafb 	bl	8000b58 <__aeabi_d2iz>
 8002562:	4922      	ldr	r1, [pc, #136]	; (80025ec <moveUltraEndLeft+0x1f8>)
 8002564:	4602      	mov	r2, r0
 8002566:	a801      	add	r0, sp, #4
 8002568:	f008 f822 	bl	800a5b0 <siprintf>
 800256c:	aa01      	add	r2, sp, #4
 800256e:	2114      	movs	r1, #20
 8002570:	200a      	movs	r0, #10
 8002572:	f007 f8b5 	bl	80096e0 <OLED_ShowString>
 8002576:	4635      	mov	r5, r6
 8002578:	f007 f816 	bl	80095a8 <OLED_Refresh_Gram>
 800257c:	e7a2      	b.n	80024c4 <moveUltraEndLeft+0xd0>
 800257e:	eeb7 0a00 	vmov.f32	s0, #112	; 0x3f800000  1.0
 8002582:	2000      	movs	r0, #0
 8002584:	f7ff fbcc 	bl	8001d20 <move>
 8002588:	4812      	ldr	r0, [pc, #72]	; (80025d4 <moveUltraEndLeft+0x1e0>)
 800258a:	2201      	movs	r2, #1
 800258c:	2108      	movs	r1, #8
 800258e:	f002 fc35 	bl	8004dfc <HAL_GPIO_WritePin>
 8002592:	4810      	ldr	r0, [pc, #64]	; (80025d4 <moveUltraEndLeft+0x1e0>)
 8002594:	2200      	movs	r2, #0
 8002596:	2104      	movs	r1, #4
 8002598:	f002 fc30 	bl	8004dfc <HAL_GPIO_WritePin>
 800259c:	480e      	ldr	r0, [pc, #56]	; (80025d8 <moveUltraEndLeft+0x1e4>)
 800259e:	2201      	movs	r2, #1
 80025a0:	f44f 5180 	mov.w	r1, #4096	; 0x1000
 80025a4:	f002 fc2a 	bl	8004dfc <HAL_GPIO_WritePin>
 80025a8:	2120      	movs	r1, #32
 80025aa:	480c      	ldr	r0, [pc, #48]	; (80025dc <moveUltraEndLeft+0x1e8>)
 80025ac:	2200      	movs	r2, #0
 80025ae:	f002 fc25 	bl	8004dfc <HAL_GPIO_WritePin>
 80025b2:	6823      	ldr	r3, [r4, #0]
 80025b4:	2293      	movs	r2, #147	; 0x93
 80025b6:	641a      	str	r2, [r3, #64]	; 0x40
 80025b8:	200a      	movs	r0, #10
 80025ba:	f005 fa5c 	bl	8007a76 <osDelay>
 80025be:	b019      	add	sp, #100	; 0x64
 80025c0:	e8bd 8ff0 	ldmia.w	sp!, {r4, r5, r6, r7, r8, r9, sl, fp, pc}
 80025c4:	200002a4 	.word	0x200002a4
 80025c8:	200003c4 	.word	0x200003c4
 80025cc:	3d4ccccd 	.word	0x3d4ccccd
 80025d0:	20000458 	.word	0x20000458
 80025d4:	40020000 	.word	0x40020000
 80025d8:	40021000 	.word	0x40021000
 80025dc:	40020800 	.word	0x40020800
 80025e0:	20000455 	.word	0x20000455
 80025e4:	20000208 	.word	0x20000208
 80025e8:	20000228 	.word	0x20000228
 80025ec:	0800e1bc 	.word	0x0800e1bc
 80025f0:	2000037c 	.word	0x2000037c
 80025f4:	200002ec 	.word	0x200002ec

080025f8 <task2A2>:
 80025f8:	e92d 43f0 	stmdb	sp!, {r4, r5, r6, r7, r8, r9, lr}
 80025fc:	4dbb      	ldr	r5, [pc, #748]	; (80028ec <task2A2+0x2f4>)
 80025fe:	4ebc      	ldr	r6, [pc, #752]	; (80028f0 <task2A2+0x2f8>)
 8002600:	4cbc      	ldr	r4, [pc, #752]	; (80028f4 <task2A2+0x2fc>)
 8002602:	b09f      	sub	sp, #124	; 0x7c
 8002604:	2100      	movs	r1, #0
 8002606:	4607      	mov	r7, r0
 8002608:	4628      	mov	r0, r5
 800260a:	f004 fda7 	bl	800715c <HAL_TIM_PWM_Start>
 800260e:	2108      	movs	r1, #8
 8002610:	4628      	mov	r0, r5
 8002612:	f004 fda3 	bl	800715c <HAL_TIM_PWM_Start>
 8002616:	210c      	movs	r1, #12
 8002618:	4630      	mov	r0, r6
 800261a:	f004 fd9f 	bl	800715c <HAL_TIM_PWM_Start>
 800261e:	48b6      	ldr	r0, [pc, #728]	; (80028f8 <task2A2+0x300>)
 8002620:	2201      	movs	r2, #1
 8002622:	2108      	movs	r1, #8
 8002624:	f002 fbea 	bl	8004dfc <HAL_GPIO_WritePin>
 8002628:	48b3      	ldr	r0, [pc, #716]	; (80028f8 <task2A2+0x300>)
 800262a:	2200      	movs	r2, #0
 800262c:	2104      	movs	r1, #4
 800262e:	f002 fbe5 	bl	8004dfc <HAL_GPIO_WritePin>
 8002632:	48b2      	ldr	r0, [pc, #712]	; (80028fc <task2A2+0x304>)
 8002634:	2201      	movs	r2, #1
 8002636:	f44f 5180 	mov.w	r1, #4096	; 0x1000
 800263a:	f002 fbdf 	bl	8004dfc <HAL_GPIO_WritePin>
 800263e:	2200      	movs	r2, #0
 8002640:	48af      	ldr	r0, [pc, #700]	; (8002900 <task2A2+0x308>)
 8002642:	2120      	movs	r1, #32
 8002644:	f002 fbda 	bl	8004dfc <HAL_GPIO_WritePin>
 8002648:	2300      	movs	r3, #0
 800264a:	7023      	strb	r3, [r4, #0]
 800264c:	4bad      	ldr	r3, [pc, #692]	; (8002904 <task2A2+0x30c>)
 800264e:	6832      	ldr	r2, [r6, #0]
 8002650:	781b      	ldrb	r3, [r3, #0]
 8002652:	2b00      	cmp	r3, #0
 8002654:	f000 8166 	beq.w	8002924 <task2A2+0x32c>
 8002658:	2f6c      	cmp	r7, #108	; 0x6c
 800265a:	682b      	ldr	r3, [r5, #0]
 800265c:	f040 80b3 	bne.w	80027c6 <task2A2+0x1ce>
 8002660:	2169      	movs	r1, #105	; 0x69
 8002662:	6411      	str	r1, [r2, #64]	; 0x40
 8002664:	f44f 727a 	mov.w	r2, #1000	; 0x3e8
 8002668:	635a      	str	r2, [r3, #52]	; 0x34
 800266a:	f640 32b8 	movw	r2, #3000	; 0xbb8
 800266e:	63da      	str	r2, [r3, #60]	; 0x3c
 8002670:	f8df 82a0 	ldr.w	r8, [pc, #672]	; 8002914 <task2A2+0x31c>
 8002674:	4fa4      	ldr	r7, [pc, #656]	; (8002908 <task2A2+0x310>)
 8002676:	2301      	movs	r3, #1
 8002678:	7023      	strb	r3, [r4, #0]
 800267a:	e9d8 0100 	ldrd	r0, r1, [r8]
 800267e:	f7fe fa6b 	bl	8000b58 <__aeabi_d2iz>
 8002682:	283b      	cmp	r0, #59	; 0x3b
 8002684:	dd65      	ble.n	8002752 <task2A2+0x15a>
 8002686:	682b      	ldr	r3, [r5, #0]
 8002688:	ed9f 0aa0 	vldr	s0, [pc, #640]	; 800290c <task2A2+0x314>
 800268c:	f8df 9288 	ldr.w	r9, [pc, #648]	; 8002918 <task2A2+0x320>
 8002690:	2200      	movs	r2, #0
 8002692:	635a      	str	r2, [r3, #52]	; 0x34
 8002694:	2001      	movs	r0, #1
 8002696:	63da      	str	r2, [r3, #60]	; 0x3c
 8002698:	f7fe fff8 	bl	800168c <moveGyroPID>
 800269c:	6833      	ldr	r3, [r6, #0]
 800269e:	f44f 7287 	mov.w	r2, #270	; 0x10e
 80026a2:	641a      	str	r2, [r3, #64]	; 0x40
 80026a4:	682b      	ldr	r3, [r5, #0]
 80026a6:	f640 32b8 	movw	r2, #3000	; 0xbb8
 80026aa:	635a      	str	r2, [r3, #52]	; 0x34
 80026ac:	f44f 727a 	mov.w	r2, #1000	; 0x3e8
 80026b0:	63da      	str	r2, [r3, #60]	; 0x3c
 80026b2:	7823      	ldrb	r3, [r4, #0]
 80026b4:	2b00      	cmp	r3, #0
 80026b6:	d160      	bne.n	800277a <task2A2+0x182>
 80026b8:	f04f 0800 	mov.w	r8, #0
 80026bc:	2001      	movs	r0, #1
 80026be:	ed9f 0a94 	vldr	s0, [pc, #592]	; 8002910 <task2A2+0x318>
 80026c2:	f884 8000 	strb.w	r8, [r4]
 80026c6:	f7ff f957 	bl	8001978 <moveGyroPIDOld>
 80026ca:	6833      	ldr	r3, [r6, #0]
 80026cc:	f884 8000 	strb.w	r8, [r4]
 80026d0:	f44f 7287 	mov.w	r2, #270	; 0x10e
 80026d4:	641a      	str	r2, [r3, #64]	; 0x40
 80026d6:	682b      	ldr	r3, [r5, #0]
 80026d8:	f8df 823c 	ldr.w	r8, [pc, #572]	; 8002918 <task2A2+0x320>
 80026dc:	f640 32b8 	movw	r2, #3000	; 0xbb8
 80026e0:	635a      	str	r2, [r3, #52]	; 0x34
 80026e2:	f44f 727a 	mov.w	r2, #1000	; 0x3e8
 80026e6:	63da      	str	r2, [r3, #60]	; 0x3c
 80026e8:	2064      	movs	r0, #100	; 0x64
 80026ea:	f7fe ff21 	bl	8001530 <delay>
 80026ee:	2301      	movs	r3, #1
 80026f0:	7023      	strb	r3, [r4, #0]
 80026f2:	e9d7 0100 	ldrd	r0, r1, [r7]
 80026f6:	f7fe fa2f 	bl	8000b58 <__aeabi_d2iz>
 80026fa:	f110 0f63 	cmn.w	r0, #99	; 0x63
 80026fe:	4602      	mov	r2, r0
 8002700:	da52      	bge.n	80027a8 <task2A2+0x1b0>
 8002702:	4b84      	ldr	r3, [pc, #528]	; (8002914 <task2A2+0x31c>)
 8002704:	2000      	movs	r0, #0
 8002706:	2100      	movs	r1, #0
 8002708:	e9c3 0100 	strd	r0, r1, [r3]
 800270c:	2300      	movs	r3, #0
 800270e:	7023      	strb	r3, [r4, #0]
 8002710:	f7ff fe70 	bl	80023f4 <moveUltraEndLeft>
 8002714:	682b      	ldr	r3, [r5, #0]
 8002716:	4878      	ldr	r0, [pc, #480]	; (80028f8 <task2A2+0x300>)
 8002718:	2400      	movs	r4, #0
 800271a:	635c      	str	r4, [r3, #52]	; 0x34
 800271c:	63dc      	str	r4, [r3, #60]	; 0x3c
 800271e:	6833      	ldr	r3, [r6, #0]
 8002720:	2293      	movs	r2, #147	; 0x93
 8002722:	641a      	str	r2, [r3, #64]	; 0x40
 8002724:	2108      	movs	r1, #8
 8002726:	2201      	movs	r2, #1
 8002728:	f002 fb68 	bl	8004dfc <HAL_GPIO_WritePin>
 800272c:	4622      	mov	r2, r4
 800272e:	4872      	ldr	r0, [pc, #456]	; (80028f8 <task2A2+0x300>)
 8002730:	2104      	movs	r1, #4
 8002732:	f002 fb63 	bl	8004dfc <HAL_GPIO_WritePin>
 8002736:	4871      	ldr	r0, [pc, #452]	; (80028fc <task2A2+0x304>)
 8002738:	2201      	movs	r2, #1
 800273a:	f44f 5180 	mov.w	r1, #4096	; 0x1000
 800273e:	f002 fb5d 	bl	8004dfc <HAL_GPIO_WritePin>
 8002742:	486f      	ldr	r0, [pc, #444]	; (8002900 <task2A2+0x308>)
 8002744:	4622      	mov	r2, r4
 8002746:	2120      	movs	r1, #32
 8002748:	f002 fb58 	bl	8004dfc <HAL_GPIO_WritePin>
 800274c:	b01f      	add	sp, #124	; 0x7c
 800274e:	e8bd 83f0 	ldmia.w	sp!, {r4, r5, r6, r7, r8, r9, pc}
 8002752:	e9d7 0100 	ldrd	r0, r1, [r7]
 8002756:	f7fe f9ff 	bl	8000b58 <__aeabi_d2iz>
 800275a:	496f      	ldr	r1, [pc, #444]	; (8002918 <task2A2+0x320>)
 800275c:	4602      	mov	r2, r0
 800275e:	4668      	mov	r0, sp
 8002760:	f007 ff26 	bl	800a5b0 <siprintf>
 8002764:	466a      	mov	r2, sp
 8002766:	2114      	movs	r1, #20
 8002768:	200a      	movs	r0, #10
 800276a:	f006 ffb9 	bl	80096e0 <OLED_ShowString>
 800276e:	f006 ff1b 	bl	80095a8 <OLED_Refresh_Gram>
 8002772:	7823      	ldrb	r3, [r4, #0]
 8002774:	2b00      	cmp	r3, #0
 8002776:	d180      	bne.n	800267a <task2A2+0x82>
 8002778:	e785      	b.n	8002686 <task2A2+0x8e>
 800277a:	e9d8 0100 	ldrd	r0, r1, [r8]
 800277e:	f7fe f9eb 	bl	8000b58 <__aeabi_d2iz>
 8002782:	3052      	adds	r0, #82	; 0x52
 8002784:	db98      	blt.n	80026b8 <task2A2+0xc0>
 8002786:	e9d7 0100 	ldrd	r0, r1, [r7]
 800278a:	f7fe f9e5 	bl	8000b58 <__aeabi_d2iz>
 800278e:	4649      	mov	r1, r9
 8002790:	4602      	mov	r2, r0
 8002792:	4668      	mov	r0, sp
 8002794:	f007 ff0c 	bl	800a5b0 <siprintf>
 8002798:	466a      	mov	r2, sp
 800279a:	2114      	movs	r1, #20
 800279c:	200a      	movs	r0, #10
 800279e:	f006 ff9f 	bl	80096e0 <OLED_ShowString>
 80027a2:	f006 ff01 	bl	80095a8 <OLED_Refresh_Gram>
 80027a6:	e784      	b.n	80026b2 <task2A2+0xba>
 80027a8:	4641      	mov	r1, r8
 80027aa:	4668      	mov	r0, sp
 80027ac:	f007 ff00 	bl	800a5b0 <siprintf>
 80027b0:	466a      	mov	r2, sp
 80027b2:	2114      	movs	r1, #20
 80027b4:	200a      	movs	r0, #10
 80027b6:	f006 ff93 	bl	80096e0 <OLED_ShowString>
 80027ba:	f006 fef5 	bl	80095a8 <OLED_Refresh_Gram>
 80027be:	7823      	ldrb	r3, [r4, #0]
 80027c0:	2b00      	cmp	r3, #0
 80027c2:	d196      	bne.n	80026f2 <task2A2+0xfa>
 80027c4:	e79d      	b.n	8002702 <task2A2+0x10a>
 80027c6:	2f72      	cmp	r7, #114	; 0x72
 80027c8:	d1a4      	bne.n	8002714 <task2A2+0x11c>
 80027ca:	f44f 7187 	mov.w	r1, #270	; 0x10e
 80027ce:	6411      	str	r1, [r2, #64]	; 0x40
 80027d0:	f640 32b8 	movw	r2, #3000	; 0xbb8
 80027d4:	635a      	str	r2, [r3, #52]	; 0x34
 80027d6:	f44f 727a 	mov.w	r2, #1000	; 0x3e8
 80027da:	63da      	str	r2, [r3, #60]	; 0x3c
 80027dc:	4f4a      	ldr	r7, [pc, #296]	; (8002908 <task2A2+0x310>)
 80027de:	f8df 8138 	ldr.w	r8, [pc, #312]	; 8002918 <task2A2+0x320>
 80027e2:	2301      	movs	r3, #1
 80027e4:	7023      	strb	r3, [r4, #0]
 80027e6:	e9d7 0100 	ldrd	r0, r1, [r7]
 80027ea:	f7fe f9b5 	bl	8000b58 <__aeabi_d2iz>
 80027ee:	f110 0f27 	cmn.w	r0, #39	; 0x27
 80027f2:	4602      	mov	r2, r0
 80027f4:	da44      	bge.n	8002880 <task2A2+0x288>
 80027f6:	682b      	ldr	r3, [r5, #0]
 80027f8:	ed9f 0a48 	vldr	s0, [pc, #288]	; 800291c <task2A2+0x324>
 80027fc:	f8df 8114 	ldr.w	r8, [pc, #276]	; 8002914 <task2A2+0x31c>
 8002800:	f8df 9114 	ldr.w	r9, [pc, #276]	; 8002918 <task2A2+0x320>
 8002804:	2200      	movs	r2, #0
 8002806:	635a      	str	r2, [r3, #52]	; 0x34
 8002808:	2001      	movs	r0, #1
 800280a:	63da      	str	r2, [r3, #60]	; 0x3c
 800280c:	f7fe ff3e 	bl	800168c <moveGyroPID>
 8002810:	6833      	ldr	r3, [r6, #0]
 8002812:	226e      	movs	r2, #110	; 0x6e
 8002814:	641a      	str	r2, [r3, #64]	; 0x40
 8002816:	682b      	ldr	r3, [r5, #0]
 8002818:	f44f 727a 	mov.w	r2, #1000	; 0x3e8
 800281c:	635a      	str	r2, [r3, #52]	; 0x34
 800281e:	f640 32b8 	movw	r2, #3000	; 0xbb8
 8002822:	63da      	str	r2, [r3, #60]	; 0x3c
 8002824:	7823      	ldrb	r3, [r4, #0]
 8002826:	2b00      	cmp	r3, #0
 8002828:	d139      	bne.n	800289e <task2A2+0x2a6>
 800282a:	f04f 0800 	mov.w	r8, #0
 800282e:	2001      	movs	r0, #1
 8002830:	ed9f 0a3b 	vldr	s0, [pc, #236]	; 8002920 <task2A2+0x328>
 8002834:	f884 8000 	strb.w	r8, [r4]
 8002838:	f7ff f89e 	bl	8001978 <moveGyroPIDOld>
 800283c:	6833      	ldr	r3, [r6, #0]
 800283e:	f884 8000 	strb.w	r8, [r4]
 8002842:	2273      	movs	r2, #115	; 0x73
 8002844:	641a      	str	r2, [r3, #64]	; 0x40
 8002846:	682b      	ldr	r3, [r5, #0]
 8002848:	f8df 80cc 	ldr.w	r8, [pc, #204]	; 8002918 <task2A2+0x320>
 800284c:	f44f 727a 	mov.w	r2, #1000	; 0x3e8
 8002850:	635a      	str	r2, [r3, #52]	; 0x34
 8002852:	f640 32b8 	movw	r2, #3000	; 0xbb8
 8002856:	63da      	str	r2, [r3, #60]	; 0x3c
 8002858:	2064      	movs	r0, #100	; 0x64
 800285a:	f7fe fe69 	bl	8001530 <delay>
 800285e:	2301      	movs	r3, #1
 8002860:	7023      	strb	r3, [r4, #0]
 8002862:	e9d7 0100 	ldrd	r0, r1, [r7]
 8002866:	f7fe f977 	bl	8000b58 <__aeabi_d2iz>
 800286a:	285c      	cmp	r0, #92	; 0x5c
 800286c:	4602      	mov	r2, r0
 800286e:	dd2d      	ble.n	80028cc <task2A2+0x2d4>
 8002870:	4b28      	ldr	r3, [pc, #160]	; (8002914 <task2A2+0x31c>)
 8002872:	2000      	movs	r0, #0
 8002874:	2100      	movs	r1, #0
 8002876:	e9c3 0100 	strd	r0, r1, [r3]
 800287a:	f7ff fcbb 	bl	80021f4 <moveUltraEnd>
 800287e:	e749      	b.n	8002714 <task2A2+0x11c>
 8002880:	4641      	mov	r1, r8
 8002882:	4668      	mov	r0, sp
 8002884:	f007 fe94 	bl	800a5b0 <siprintf>
 8002888:	466a      	mov	r2, sp
 800288a:	2114      	movs	r1, #20
 800288c:	200a      	movs	r0, #10
 800288e:	f006 ff27 	bl	80096e0 <OLED_ShowString>
 8002892:	f006 fe89 	bl	80095a8 <OLED_Refresh_Gram>
 8002896:	7823      	ldrb	r3, [r4, #0]
 8002898:	2b00      	cmp	r3, #0
 800289a:	d1a4      	bne.n	80027e6 <task2A2+0x1ee>
 800289c:	e7ab      	b.n	80027f6 <task2A2+0x1fe>
 800289e:	e9d8 0100 	ldrd	r0, r1, [r8]
 80028a2:	f7fe f959 	bl	8000b58 <__aeabi_d2iz>
 80028a6:	2854      	cmp	r0, #84	; 0x54
 80028a8:	dcbf      	bgt.n	800282a <task2A2+0x232>
 80028aa:	e9d7 0100 	ldrd	r0, r1, [r7]
 80028ae:	f7fe f953 	bl	8000b58 <__aeabi_d2iz>
 80028b2:	4649      	mov	r1, r9
 80028b4:	4602      	mov	r2, r0
 80028b6:	4668      	mov	r0, sp
 80028b8:	f007 fe7a 	bl	800a5b0 <siprintf>
 80028bc:	466a      	mov	r2, sp
 80028be:	2114      	movs	r1, #20
 80028c0:	200a      	movs	r0, #10
 80028c2:	f006 ff0d 	bl	80096e0 <OLED_ShowString>
 80028c6:	f006 fe6f 	bl	80095a8 <OLED_Refresh_Gram>
 80028ca:	e7ab      	b.n	8002824 <task2A2+0x22c>
 80028cc:	4641      	mov	r1, r8
 80028ce:	4668      	mov	r0, sp
 80028d0:	f007 fe6e 	bl	800a5b0 <siprintf>
 80028d4:	466a      	mov	r2, sp
 80028d6:	2114      	movs	r1, #20
 80028d8:	200a      	movs	r0, #10
 80028da:	f006 ff01 	bl	80096e0 <OLED_ShowString>
 80028de:	f006 fe63 	bl	80095a8 <OLED_Refresh_Gram>
 80028e2:	7823      	ldrb	r3, [r4, #0]
 80028e4:	2b00      	cmp	r3, #0
 80028e6:	d1bc      	bne.n	8002862 <task2A2+0x26a>
 80028e8:	e7c2      	b.n	8002870 <task2A2+0x278>
 80028ea:	bf00      	nop
 80028ec:	200003c4 	.word	0x200003c4
 80028f0:	200002a4 	.word	0x200002a4
 80028f4:	20000455 	.word	0x20000455
 80028f8:	40020000 	.word	0x40020000
 80028fc:	40021000 	.word	0x40021000
 8002900:	40020800 	.word	0x40020800
 8002904:	20000245 	.word	0x20000245
 8002908:	20000458 	.word	0x20000458
 800290c:	42aa0000 	.word	0x42aa0000
 8002910:	42500000 	.word	0x42500000
 8002914:	20000228 	.word	0x20000228
 8002918:	0800e1bc 	.word	0x0800e1bc
 800291c:	42340000 	.word	0x42340000
 8002920:	42480000 	.word	0x42480000
 8002924:	2f6c      	cmp	r7, #108	; 0x6c
 8002926:	682b      	ldr	r3, [r5, #0]
 8002928:	f040 8095 	bne.w	8002a56 <task2A2+0x45e>
 800292c:	2169      	movs	r1, #105	; 0x69
 800292e:	6411      	str	r1, [r2, #64]	; 0x40
 8002930:	f44f 727a 	mov.w	r2, #1000	; 0x3e8
 8002934:	635a      	str	r2, [r3, #52]	; 0x34
 8002936:	f640 32b8 	movw	r2, #3000	; 0xbb8
 800293a:	63da      	str	r2, [r3, #60]	; 0x3c
 800293c:	2001      	movs	r0, #1
 800293e:	f005 f89a 	bl	8007a76 <osDelay>
 8002942:	f8df 824c 	ldr.w	r8, [pc, #588]	; 8002b90 <task2A2+0x598>
 8002946:	4f8c      	ldr	r7, [pc, #560]	; (8002b78 <task2A2+0x580>)
 8002948:	2301      	movs	r3, #1
 800294a:	7023      	strb	r3, [r4, #0]
 800294c:	e9d8 0100 	ldrd	r0, r1, [r8]
 8002950:	f7fe f902 	bl	8000b58 <__aeabi_d2iz>
 8002954:	2836      	cmp	r0, #54	; 0x36
 8002956:	dd53      	ble.n	8002a00 <task2A2+0x408>
 8002958:	682a      	ldr	r2, [r5, #0]
 800295a:	ed9f 0a88 	vldr	s0, [pc, #544]	; 8002b7c <task2A2+0x584>
 800295e:	f8df 9224 	ldr.w	r9, [pc, #548]	; 8002b84 <task2A2+0x58c>
 8002962:	2300      	movs	r3, #0
 8002964:	6353      	str	r3, [r2, #52]	; 0x34
 8002966:	2001      	movs	r0, #1
 8002968:	63d3      	str	r3, [r2, #60]	; 0x3c
 800296a:	7023      	strb	r3, [r4, #0]
 800296c:	f7ff f804 	bl	8001978 <moveGyroPIDOld>
 8002970:	6833      	ldr	r3, [r6, #0]
 8002972:	f44f 7287 	mov.w	r2, #270	; 0x10e
 8002976:	641a      	str	r2, [r3, #64]	; 0x40
 8002978:	682b      	ldr	r3, [r5, #0]
 800297a:	f640 32b8 	movw	r2, #3000	; 0xbb8
 800297e:	635a      	str	r2, [r3, #52]	; 0x34
 8002980:	f44f 727a 	mov.w	r2, #1000	; 0x3e8
 8002984:	63da      	str	r2, [r3, #60]	; 0x3c
 8002986:	7823      	ldrb	r3, [r4, #0]
 8002988:	2b00      	cmp	r3, #0
 800298a:	d14d      	bne.n	8002a28 <task2A2+0x430>
 800298c:	f04f 0800 	mov.w	r8, #0
 8002990:	ed9f 0a7b 	vldr	s0, [pc, #492]	; 8002b80 <task2A2+0x588>
 8002994:	f884 8000 	strb.w	r8, [r4]
 8002998:	2001      	movs	r0, #1
 800299a:	f7fe ffed 	bl	8001978 <moveGyroPIDOld>
 800299e:	6833      	ldr	r3, [r6, #0]
 80029a0:	f884 8000 	strb.w	r8, [r4]
 80029a4:	f44f 7287 	mov.w	r2, #270	; 0x10e
 80029a8:	641a      	str	r2, [r3, #64]	; 0x40
 80029aa:	682b      	ldr	r3, [r5, #0]
 80029ac:	f640 32b8 	movw	r2, #3000	; 0xbb8
 80029b0:	635a      	str	r2, [r3, #52]	; 0x34
 80029b2:	f44f 727a 	mov.w	r2, #1000	; 0x3e8
 80029b6:	63da      	str	r2, [r3, #60]	; 0x3c
 80029b8:	2064      	movs	r0, #100	; 0x64
 80029ba:	f7fe fdb9 	bl	8001530 <delay>
 80029be:	2001      	movs	r0, #1
 80029c0:	f884 8000 	strb.w	r8, [r4]
 80029c4:	f005 f857 	bl	8007a76 <osDelay>
 80029c8:	f8df 81b8 	ldr.w	r8, [pc, #440]	; 8002b84 <task2A2+0x58c>
 80029cc:	2301      	movs	r3, #1
 80029ce:	7023      	strb	r3, [r4, #0]
 80029d0:	e9d7 0100 	ldrd	r0, r1, [r7]
 80029d4:	f7fe f8c0 	bl	8000b58 <__aeabi_d2iz>
 80029d8:	f110 0f65 	cmn.w	r0, #101	; 0x65
 80029dc:	4602      	mov	r2, r0
 80029de:	f6ff ae90 	blt.w	8002702 <task2A2+0x10a>
 80029e2:	4641      	mov	r1, r8
 80029e4:	4668      	mov	r0, sp
 80029e6:	f007 fde3 	bl	800a5b0 <siprintf>
 80029ea:	466a      	mov	r2, sp
 80029ec:	2114      	movs	r1, #20
 80029ee:	200a      	movs	r0, #10
 80029f0:	f006 fe76 	bl	80096e0 <OLED_ShowString>
 80029f4:	f006 fdd8 	bl	80095a8 <OLED_Refresh_Gram>
 80029f8:	7823      	ldrb	r3, [r4, #0]
 80029fa:	2b00      	cmp	r3, #0
 80029fc:	d1e8      	bne.n	80029d0 <task2A2+0x3d8>
 80029fe:	e680      	b.n	8002702 <task2A2+0x10a>
 8002a00:	e9d7 0100 	ldrd	r0, r1, [r7]
 8002a04:	f7fe f8a8 	bl	8000b58 <__aeabi_d2iz>
 8002a08:	495e      	ldr	r1, [pc, #376]	; (8002b84 <task2A2+0x58c>)
 8002a0a:	4602      	mov	r2, r0
 8002a0c:	4668      	mov	r0, sp
 8002a0e:	f007 fdcf 	bl	800a5b0 <siprintf>
 8002a12:	466a      	mov	r2, sp
 8002a14:	2114      	movs	r1, #20
 8002a16:	200a      	movs	r0, #10
 8002a18:	f006 fe62 	bl	80096e0 <OLED_ShowString>
 8002a1c:	f006 fdc4 	bl	80095a8 <OLED_Refresh_Gram>
 8002a20:	7823      	ldrb	r3, [r4, #0]
 8002a22:	2b00      	cmp	r3, #0
 8002a24:	d192      	bne.n	800294c <task2A2+0x354>
 8002a26:	e797      	b.n	8002958 <task2A2+0x360>
 8002a28:	e9d8 0100 	ldrd	r0, r1, [r8]
 8002a2c:	f7fe f894 	bl	8000b58 <__aeabi_d2iz>
 8002a30:	3054      	adds	r0, #84	; 0x54
 8002a32:	dbab      	blt.n	800298c <task2A2+0x394>
 8002a34:	e9d7 0100 	ldrd	r0, r1, [r7]
 8002a38:	f7fe f88e 	bl	8000b58 <__aeabi_d2iz>
 8002a3c:	4649      	mov	r1, r9
 8002a3e:	4602      	mov	r2, r0
 8002a40:	4668      	mov	r0, sp
 8002a42:	f007 fdb5 	bl	800a5b0 <siprintf>
 8002a46:	466a      	mov	r2, sp
 8002a48:	2114      	movs	r1, #20
 8002a4a:	200a      	movs	r0, #10
 8002a4c:	f006 fe48 	bl	80096e0 <OLED_ShowString>
 8002a50:	f006 fdaa 	bl	80095a8 <OLED_Refresh_Gram>
 8002a54:	e797      	b.n	8002986 <task2A2+0x38e>
 8002a56:	2f72      	cmp	r7, #114	; 0x72
 8002a58:	f47f ae5c 	bne.w	8002714 <task2A2+0x11c>
 8002a5c:	f44f 7187 	mov.w	r1, #270	; 0x10e
 8002a60:	6411      	str	r1, [r2, #64]	; 0x40
 8002a62:	f640 32b8 	movw	r2, #3000	; 0xbb8
 8002a66:	635a      	str	r2, [r3, #52]	; 0x34
 8002a68:	f44f 727a 	mov.w	r2, #1000	; 0x3e8
 8002a6c:	63da      	str	r2, [r3, #60]	; 0x3c
 8002a6e:	4f42      	ldr	r7, [pc, #264]	; (8002b78 <task2A2+0x580>)
 8002a70:	f8df 8110 	ldr.w	r8, [pc, #272]	; 8002b84 <task2A2+0x58c>
 8002a74:	2301      	movs	r3, #1
 8002a76:	7023      	strb	r3, [r4, #0]
 8002a78:	e9d7 0100 	ldrd	r0, r1, [r7]
 8002a7c:	f7fe f86c 	bl	8000b58 <__aeabi_d2iz>
 8002a80:	f110 0f15 	cmn.w	r0, #21
 8002a84:	4602      	mov	r2, r0
 8002a86:	da51      	bge.n	8002b2c <task2A2+0x534>
 8002a88:	682b      	ldr	r3, [r5, #0]
 8002a8a:	ed9f 0a3f 	vldr	s0, [pc, #252]	; 8002b88 <task2A2+0x590>
 8002a8e:	f8df 8100 	ldr.w	r8, [pc, #256]	; 8002b90 <task2A2+0x598>
 8002a92:	f8df 90f0 	ldr.w	r9, [pc, #240]	; 8002b84 <task2A2+0x58c>
 8002a96:	2200      	movs	r2, #0
 8002a98:	635a      	str	r2, [r3, #52]	; 0x34
 8002a9a:	2001      	movs	r0, #1
 8002a9c:	63da      	str	r2, [r3, #60]	; 0x3c
 8002a9e:	f7fe fdf5 	bl	800168c <moveGyroPID>
 8002aa2:	6833      	ldr	r3, [r6, #0]
 8002aa4:	226e      	movs	r2, #110	; 0x6e
 8002aa6:	641a      	str	r2, [r3, #64]	; 0x40
 8002aa8:	682b      	ldr	r3, [r5, #0]
 8002aaa:	f44f 727a 	mov.w	r2, #1000	; 0x3e8
 8002aae:	635a      	str	r2, [r3, #52]	; 0x34
 8002ab0:	f44f 62fa 	mov.w	r2, #2000	; 0x7d0
 8002ab4:	63da      	str	r2, [r3, #60]	; 0x3c
 8002ab6:	7823      	ldrb	r3, [r4, #0]
 8002ab8:	2b00      	cmp	r3, #0
 8002aba:	d146      	bne.n	8002b4a <task2A2+0x552>
 8002abc:	f04f 0800 	mov.w	r8, #0
 8002ac0:	ed9f 0a32 	vldr	s0, [pc, #200]	; 8002b8c <task2A2+0x594>
 8002ac4:	f884 8000 	strb.w	r8, [r4]
 8002ac8:	2001      	movs	r0, #1
 8002aca:	f7fe ff55 	bl	8001978 <moveGyroPIDOld>
 8002ace:	6833      	ldr	r3, [r6, #0]
 8002ad0:	f884 8000 	strb.w	r8, [r4]
 8002ad4:	2273      	movs	r2, #115	; 0x73
 8002ad6:	641a      	str	r2, [r3, #64]	; 0x40
 8002ad8:	682b      	ldr	r3, [r5, #0]
 8002ada:	f44f 727a 	mov.w	r2, #1000	; 0x3e8
 8002ade:	635a      	str	r2, [r3, #52]	; 0x34
 8002ae0:	f44f 62fa 	mov.w	r2, #2000	; 0x7d0
 8002ae4:	63da      	str	r2, [r3, #60]	; 0x3c
 8002ae6:	2064      	movs	r0, #100	; 0x64
 8002ae8:	f7fe fd22 	bl	8001530 <delay>
 8002aec:	2001      	movs	r0, #1
 8002aee:	f884 8000 	strb.w	r8, [r4]
 8002af2:	f004 ffc0 	bl	8007a76 <osDelay>
 8002af6:	f8df 808c 	ldr.w	r8, [pc, #140]	; 8002b84 <task2A2+0x58c>
 8002afa:	2301      	movs	r3, #1
 8002afc:	7023      	strb	r3, [r4, #0]
 8002afe:	e9d7 0100 	ldrd	r0, r1, [r7]
 8002b02:	f7fe f829 	bl	8000b58 <__aeabi_d2iz>
 8002b06:	2868      	cmp	r0, #104	; 0x68
 8002b08:	4602      	mov	r2, r0
 8002b0a:	f73f aeb1 	bgt.w	8002870 <task2A2+0x278>
 8002b0e:	4641      	mov	r1, r8
 8002b10:	4668      	mov	r0, sp
 8002b12:	f007 fd4d 	bl	800a5b0 <siprintf>
 8002b16:	466a      	mov	r2, sp
 8002b18:	2114      	movs	r1, #20
 8002b1a:	200a      	movs	r0, #10
 8002b1c:	f006 fde0 	bl	80096e0 <OLED_ShowString>
 8002b20:	f006 fd42 	bl	80095a8 <OLED_Refresh_Gram>
 8002b24:	7823      	ldrb	r3, [r4, #0]
 8002b26:	2b00      	cmp	r3, #0
 8002b28:	d1e9      	bne.n	8002afe <task2A2+0x506>
 8002b2a:	e6a1      	b.n	8002870 <task2A2+0x278>
 8002b2c:	4641      	mov	r1, r8
 8002b2e:	4668      	mov	r0, sp
 8002b30:	f007 fd3e 	bl	800a5b0 <siprintf>
 8002b34:	466a      	mov	r2, sp
 8002b36:	2114      	movs	r1, #20
 8002b38:	200a      	movs	r0, #10
 8002b3a:	f006 fdd1 	bl	80096e0 <OLED_ShowString>
 8002b3e:	f006 fd33 	bl	80095a8 <OLED_Refresh_Gram>
 8002b42:	7823      	ldrb	r3, [r4, #0]
 8002b44:	2b00      	cmp	r3, #0
 8002b46:	d197      	bne.n	8002a78 <task2A2+0x480>
 8002b48:	e79e      	b.n	8002a88 <task2A2+0x490>
 8002b4a:	e9d8 0100 	ldrd	r0, r1, [r8]
 8002b4e:	f7fe f803 	bl	8000b58 <__aeabi_d2iz>
 8002b52:	2854      	cmp	r0, #84	; 0x54
 8002b54:	dcb2      	bgt.n	8002abc <task2A2+0x4c4>
 8002b56:	e9d7 0100 	ldrd	r0, r1, [r7]
 8002b5a:	f7fd fffd 	bl	8000b58 <__aeabi_d2iz>
 8002b5e:	4649      	mov	r1, r9
 8002b60:	4602      	mov	r2, r0
 8002b62:	4668      	mov	r0, sp
 8002b64:	f007 fd24 	bl	800a5b0 <siprintf>
 8002b68:	466a      	mov	r2, sp
 8002b6a:	2114      	movs	r1, #20
 8002b6c:	200a      	movs	r0, #10
 8002b6e:	f006 fdb7 	bl	80096e0 <OLED_ShowString>
 8002b72:	f006 fd19 	bl	80095a8 <OLED_Refresh_Gram>
 8002b76:	e79e      	b.n	8002ab6 <task2A2+0x4be>
 8002b78:	20000458 	.word	0x20000458
 8002b7c:	42700000 	.word	0x42700000
 8002b80:	42480000 	.word	0x42480000
 8002b84:	0800e1bc 	.word	0x0800e1bc
 8002b88:	42960000 	.word	0x42960000
 8002b8c:	42340000 	.word	0x42340000
 8002b90:	20000228 	.word	0x20000228

08002b94 <task2A2L>:
 8002b94:	e92d 43f0 	stmdb	sp!, {r4, r5, r6, r7, r8, r9, lr}
 8002b98:	4db4      	ldr	r5, [pc, #720]	; (8002e6c <task2A2L+0x2d8>)
 8002b9a:	4eb5      	ldr	r6, [pc, #724]	; (8002e70 <task2A2L+0x2dc>)
 8002b9c:	4cb5      	ldr	r4, [pc, #724]	; (8002e74 <task2A2L+0x2e0>)
 8002b9e:	b09f      	sub	sp, #124	; 0x7c
 8002ba0:	2100      	movs	r1, #0
 8002ba2:	4607      	mov	r7, r0
 8002ba4:	4628      	mov	r0, r5
 8002ba6:	f004 fad9 	bl	800715c <HAL_TIM_PWM_Start>
 8002baa:	2108      	movs	r1, #8
 8002bac:	4628      	mov	r0, r5
 8002bae:	f004 fad5 	bl	800715c <HAL_TIM_PWM_Start>
 8002bb2:	210c      	movs	r1, #12
 8002bb4:	4630      	mov	r0, r6
 8002bb6:	f004 fad1 	bl	800715c <HAL_TIM_PWM_Start>
 8002bba:	48af      	ldr	r0, [pc, #700]	; (8002e78 <task2A2L+0x2e4>)
 8002bbc:	2201      	movs	r2, #1
 8002bbe:	2108      	movs	r1, #8
 8002bc0:	f002 f91c 	bl	8004dfc <HAL_GPIO_WritePin>
 8002bc4:	48ac      	ldr	r0, [pc, #688]	; (8002e78 <task2A2L+0x2e4>)
 8002bc6:	2200      	movs	r2, #0
 8002bc8:	2104      	movs	r1, #4
 8002bca:	f002 f917 	bl	8004dfc <HAL_GPIO_WritePin>
 8002bce:	48ab      	ldr	r0, [pc, #684]	; (8002e7c <task2A2L+0x2e8>)
 8002bd0:	2201      	movs	r2, #1
 8002bd2:	f44f 5180 	mov.w	r1, #4096	; 0x1000
 8002bd6:	f002 f911 	bl	8004dfc <HAL_GPIO_WritePin>
 8002bda:	2200      	movs	r2, #0
 8002bdc:	48a8      	ldr	r0, [pc, #672]	; (8002e80 <task2A2L+0x2ec>)
 8002bde:	2120      	movs	r1, #32
 8002be0:	f002 f90c 	bl	8004dfc <HAL_GPIO_WritePin>
 8002be4:	2300      	movs	r3, #0
 8002be6:	7023      	strb	r3, [r4, #0]
 8002be8:	4ba6      	ldr	r3, [pc, #664]	; (8002e84 <task2A2L+0x2f0>)
 8002bea:	6832      	ldr	r2, [r6, #0]
 8002bec:	781b      	ldrb	r3, [r3, #0]
 8002bee:	2b00      	cmp	r3, #0
 8002bf0:	f000 8158 	beq.w	8002ea4 <task2A2L+0x310>
 8002bf4:	2f6c      	cmp	r7, #108	; 0x6c
 8002bf6:	682b      	ldr	r3, [r5, #0]
 8002bf8:	f040 80ac 	bne.w	8002d54 <task2A2L+0x1c0>
 8002bfc:	2175      	movs	r1, #117	; 0x75
 8002bfe:	6411      	str	r1, [r2, #64]	; 0x40
 8002c00:	f44f 727a 	mov.w	r2, #1000	; 0x3e8
 8002c04:	635a      	str	r2, [r3, #52]	; 0x34
 8002c06:	f44f 62fa 	mov.w	r2, #2000	; 0x7d0
 8002c0a:	63da      	str	r2, [r3, #60]	; 0x3c
 8002c0c:	4f9e      	ldr	r7, [pc, #632]	; (8002e88 <task2A2L+0x2f4>)
 8002c0e:	f8df 8290 	ldr.w	r8, [pc, #656]	; 8002ea0 <task2A2L+0x30c>
 8002c12:	2301      	movs	r3, #1
 8002c14:	7023      	strb	r3, [r4, #0]
 8002c16:	e9d7 0100 	ldrd	r0, r1, [r7]
 8002c1a:	f7fd ff9d 	bl	8000b58 <__aeabi_d2iz>
 8002c1e:	283b      	cmp	r0, #59	; 0x3b
 8002c20:	4602      	mov	r2, r0
 8002c22:	dd65      	ble.n	8002cf0 <task2A2L+0x15c>
 8002c24:	682b      	ldr	r3, [r5, #0]
 8002c26:	ed9f 0a99 	vldr	s0, [pc, #612]	; 8002e8c <task2A2L+0x2f8>
 8002c2a:	f8df 8274 	ldr.w	r8, [pc, #628]	; 8002ea0 <task2A2L+0x30c>
 8002c2e:	2200      	movs	r2, #0
 8002c30:	635a      	str	r2, [r3, #52]	; 0x34
 8002c32:	2001      	movs	r0, #1
 8002c34:	63da      	str	r2, [r3, #60]	; 0x3c
 8002c36:	f7fe fd29 	bl	800168c <moveGyroPID>
 8002c3a:	6833      	ldr	r3, [r6, #0]
 8002c3c:	f44f 7287 	mov.w	r2, #270	; 0x10e
 8002c40:	641a      	str	r2, [r3, #64]	; 0x40
 8002c42:	682b      	ldr	r3, [r5, #0]
 8002c44:	f640 32b8 	movw	r2, #3000	; 0xbb8
 8002c48:	635a      	str	r2, [r3, #52]	; 0x34
 8002c4a:	f44f 727a 	mov.w	r2, #1000	; 0x3e8
 8002c4e:	63da      	str	r2, [r3, #60]	; 0x3c
 8002c50:	7823      	ldrb	r3, [r4, #0]
 8002c52:	2b00      	cmp	r3, #0
 8002c54:	d15b      	bne.n	8002d0e <task2A2L+0x17a>
 8002c56:	f04f 0800 	mov.w	r8, #0
 8002c5a:	2001      	movs	r0, #1
 8002c5c:	ed9f 0a8c 	vldr	s0, [pc, #560]	; 8002e90 <task2A2L+0x2fc>
 8002c60:	f884 8000 	strb.w	r8, [r4]
 8002c64:	f7fe fe88 	bl	8001978 <moveGyroPIDOld>
 8002c68:	2064      	movs	r0, #100	; 0x64
 8002c6a:	f884 8000 	strb.w	r8, [r4]
 8002c6e:	f7fe fc5f 	bl	8001530 <delay>
 8002c72:	2301      	movs	r3, #1
 8002c74:	7023      	strb	r3, [r4, #0]
 8002c76:	6833      	ldr	r3, [r6, #0]
 8002c78:	f8df 8224 	ldr.w	r8, [pc, #548]	; 8002ea0 <task2A2L+0x30c>
 8002c7c:	f44f 7287 	mov.w	r2, #270	; 0x10e
 8002c80:	641a      	str	r2, [r3, #64]	; 0x40
 8002c82:	682b      	ldr	r3, [r5, #0]
 8002c84:	f640 32b8 	movw	r2, #3000	; 0xbb8
 8002c88:	635a      	str	r2, [r3, #52]	; 0x34
 8002c8a:	f44f 727a 	mov.w	r2, #1000	; 0x3e8
 8002c8e:	63da      	str	r2, [r3, #60]	; 0x3c
 8002c90:	e9d7 0100 	ldrd	r0, r1, [r7]
 8002c94:	f7fd ff60 	bl	8000b58 <__aeabi_d2iz>
 8002c98:	f110 0f59 	cmn.w	r0, #89	; 0x59
 8002c9c:	4602      	mov	r2, r0
 8002c9e:	da4a      	bge.n	8002d36 <task2A2L+0x1a2>
 8002ca0:	4b7c      	ldr	r3, [pc, #496]	; (8002e94 <task2A2L+0x300>)
 8002ca2:	2000      	movs	r0, #0
 8002ca4:	2100      	movs	r1, #0
 8002ca6:	e9c3 0100 	strd	r0, r1, [r3]
 8002caa:	2300      	movs	r3, #0
 8002cac:	7023      	strb	r3, [r4, #0]
 8002cae:	f7ff fba1 	bl	80023f4 <moveUltraEndLeft>
 8002cb2:	682b      	ldr	r3, [r5, #0]
 8002cb4:	4870      	ldr	r0, [pc, #448]	; (8002e78 <task2A2L+0x2e4>)
 8002cb6:	2400      	movs	r4, #0
 8002cb8:	635c      	str	r4, [r3, #52]	; 0x34
 8002cba:	63dc      	str	r4, [r3, #60]	; 0x3c
 8002cbc:	6833      	ldr	r3, [r6, #0]
 8002cbe:	2293      	movs	r2, #147	; 0x93
 8002cc0:	641a      	str	r2, [r3, #64]	; 0x40
 8002cc2:	2108      	movs	r1, #8
 8002cc4:	2201      	movs	r2, #1
 8002cc6:	f002 f899 	bl	8004dfc <HAL_GPIO_WritePin>
 8002cca:	4622      	mov	r2, r4
 8002ccc:	486a      	ldr	r0, [pc, #424]	; (8002e78 <task2A2L+0x2e4>)
 8002cce:	2104      	movs	r1, #4
 8002cd0:	f002 f894 	bl	8004dfc <HAL_GPIO_WritePin>
 8002cd4:	4869      	ldr	r0, [pc, #420]	; (8002e7c <task2A2L+0x2e8>)
 8002cd6:	2201      	movs	r2, #1
 8002cd8:	f44f 5180 	mov.w	r1, #4096	; 0x1000
 8002cdc:	f002 f88e 	bl	8004dfc <HAL_GPIO_WritePin>
 8002ce0:	4867      	ldr	r0, [pc, #412]	; (8002e80 <task2A2L+0x2ec>)
 8002ce2:	4622      	mov	r2, r4
 8002ce4:	2120      	movs	r1, #32
 8002ce6:	f002 f889 	bl	8004dfc <HAL_GPIO_WritePin>
 8002cea:	b01f      	add	sp, #124	; 0x7c
 8002cec:	e8bd 83f0 	ldmia.w	sp!, {r4, r5, r6, r7, r8, r9, pc}
 8002cf0:	4641      	mov	r1, r8
 8002cf2:	4668      	mov	r0, sp
 8002cf4:	f007 fc5c 	bl	800a5b0 <siprintf>
 8002cf8:	466a      	mov	r2, sp
 8002cfa:	2114      	movs	r1, #20
 8002cfc:	200a      	movs	r0, #10
 8002cfe:	f006 fcef 	bl	80096e0 <OLED_ShowString>
 8002d02:	f006 fc51 	bl	80095a8 <OLED_Refresh_Gram>
 8002d06:	7823      	ldrb	r3, [r4, #0]
 8002d08:	2b00      	cmp	r3, #0
 8002d0a:	d184      	bne.n	8002c16 <task2A2L+0x82>
 8002d0c:	e78a      	b.n	8002c24 <task2A2L+0x90>
 8002d0e:	e9d7 0100 	ldrd	r0, r1, [r7]
 8002d12:	f7fd ff21 	bl	8000b58 <__aeabi_d2iz>
 8002d16:	f110 0f54 	cmn.w	r0, #84	; 0x54
 8002d1a:	4602      	mov	r2, r0
 8002d1c:	db9b      	blt.n	8002c56 <task2A2L+0xc2>
 8002d1e:	4641      	mov	r1, r8
 8002d20:	4668      	mov	r0, sp
 8002d22:	f007 fc45 	bl	800a5b0 <siprintf>
 8002d26:	466a      	mov	r2, sp
 8002d28:	2114      	movs	r1, #20
 8002d2a:	200a      	movs	r0, #10
 8002d2c:	f006 fcd8 	bl	80096e0 <OLED_ShowString>
 8002d30:	f006 fc3a 	bl	80095a8 <OLED_Refresh_Gram>
 8002d34:	e78c      	b.n	8002c50 <task2A2L+0xbc>
 8002d36:	4641      	mov	r1, r8
 8002d38:	4668      	mov	r0, sp
 8002d3a:	f007 fc39 	bl	800a5b0 <siprintf>
 8002d3e:	466a      	mov	r2, sp
 8002d40:	2114      	movs	r1, #20
 8002d42:	200a      	movs	r0, #10
 8002d44:	f006 fccc 	bl	80096e0 <OLED_ShowString>
 8002d48:	f006 fc2e 	bl	80095a8 <OLED_Refresh_Gram>
 8002d4c:	7823      	ldrb	r3, [r4, #0]
 8002d4e:	2b00      	cmp	r3, #0
 8002d50:	d19e      	bne.n	8002c90 <task2A2L+0xfc>
 8002d52:	e7a5      	b.n	8002ca0 <task2A2L+0x10c>
 8002d54:	2f72      	cmp	r7, #114	; 0x72
 8002d56:	d1ac      	bne.n	8002cb2 <task2A2L+0x11e>
 8002d58:	f44f 7187 	mov.w	r1, #270	; 0x10e
 8002d5c:	6411      	str	r1, [r2, #64]	; 0x40
 8002d5e:	f640 32b8 	movw	r2, #3000	; 0xbb8
 8002d62:	635a      	str	r2, [r3, #52]	; 0x34
 8002d64:	f44f 727a 	mov.w	r2, #1000	; 0x3e8
 8002d68:	63da      	str	r2, [r3, #60]	; 0x3c
 8002d6a:	4f47      	ldr	r7, [pc, #284]	; (8002e88 <task2A2L+0x2f4>)
 8002d6c:	f8df 8130 	ldr.w	r8, [pc, #304]	; 8002ea0 <task2A2L+0x30c>
 8002d70:	2301      	movs	r3, #1
 8002d72:	7023      	strb	r3, [r4, #0]
 8002d74:	e9d7 0100 	ldrd	r0, r1, [r7]
 8002d78:	f7fd feee 	bl	8000b58 <__aeabi_d2iz>
 8002d7c:	f110 0f3b 	cmn.w	r0, #59	; 0x3b
 8002d80:	4602      	mov	r2, r0
 8002d82:	da42      	bge.n	8002e0a <task2A2L+0x276>
 8002d84:	682b      	ldr	r3, [r5, #0]
 8002d86:	ed9f 0a44 	vldr	s0, [pc, #272]	; 8002e98 <task2A2L+0x304>
 8002d8a:	f8df 8114 	ldr.w	r8, [pc, #276]	; 8002ea0 <task2A2L+0x30c>
 8002d8e:	2200      	movs	r2, #0
 8002d90:	635a      	str	r2, [r3, #52]	; 0x34
 8002d92:	2001      	movs	r0, #1
 8002d94:	63da      	str	r2, [r3, #60]	; 0x3c
 8002d96:	f7fe fc79 	bl	800168c <moveGyroPID>
 8002d9a:	6833      	ldr	r3, [r6, #0]
 8002d9c:	226e      	movs	r2, #110	; 0x6e
 8002d9e:	641a      	str	r2, [r3, #64]	; 0x40
 8002da0:	682b      	ldr	r3, [r5, #0]
 8002da2:	f44f 727a 	mov.w	r2, #1000	; 0x3e8
 8002da6:	635a      	str	r2, [r3, #52]	; 0x34
 8002da8:	f640 32b8 	movw	r2, #3000	; 0xbb8
 8002dac:	63da      	str	r2, [r3, #60]	; 0x3c
 8002dae:	7823      	ldrb	r3, [r4, #0]
 8002db0:	2b00      	cmp	r3, #0
 8002db2:	d139      	bne.n	8002e28 <task2A2L+0x294>
 8002db4:	f04f 0800 	mov.w	r8, #0
 8002db8:	2001      	movs	r0, #1
 8002dba:	ed9f 0a38 	vldr	s0, [pc, #224]	; 8002e9c <task2A2L+0x308>
 8002dbe:	f884 8000 	strb.w	r8, [r4]
 8002dc2:	f7fe fdd9 	bl	8001978 <moveGyroPIDOld>
 8002dc6:	6833      	ldr	r3, [r6, #0]
 8002dc8:	f884 8000 	strb.w	r8, [r4]
 8002dcc:	2273      	movs	r2, #115	; 0x73
 8002dce:	641a      	str	r2, [r3, #64]	; 0x40
 8002dd0:	682b      	ldr	r3, [r5, #0]
 8002dd2:	f8df 80cc 	ldr.w	r8, [pc, #204]	; 8002ea0 <task2A2L+0x30c>
 8002dd6:	f44f 727a 	mov.w	r2, #1000	; 0x3e8
 8002dda:	635a      	str	r2, [r3, #52]	; 0x34
 8002ddc:	f640 32b8 	movw	r2, #3000	; 0xbb8
 8002de0:	63da      	str	r2, [r3, #60]	; 0x3c
 8002de2:	2064      	movs	r0, #100	; 0x64
 8002de4:	f7fe fba4 	bl	8001530 <delay>
 8002de8:	2301      	movs	r3, #1
 8002dea:	7023      	strb	r3, [r4, #0]
 8002dec:	e9d7 0100 	ldrd	r0, r1, [r7]
 8002df0:	f7fd feb2 	bl	8000b58 <__aeabi_d2iz>
 8002df4:	285b      	cmp	r0, #91	; 0x5b
 8002df6:	4602      	mov	r2, r0
 8002df8:	dd29      	ble.n	8002e4e <task2A2L+0x2ba>
 8002dfa:	4b26      	ldr	r3, [pc, #152]	; (8002e94 <task2A2L+0x300>)
 8002dfc:	2000      	movs	r0, #0
 8002dfe:	2100      	movs	r1, #0
 8002e00:	e9c3 0100 	strd	r0, r1, [r3]
 8002e04:	f7ff f9f6 	bl	80021f4 <moveUltraEnd>
 8002e08:	e753      	b.n	8002cb2 <task2A2L+0x11e>
 8002e0a:	4641      	mov	r1, r8
 8002e0c:	4668      	mov	r0, sp
 8002e0e:	f007 fbcf 	bl	800a5b0 <siprintf>
 8002e12:	466a      	mov	r2, sp
 8002e14:	2114      	movs	r1, #20
 8002e16:	200a      	movs	r0, #10
 8002e18:	f006 fc62 	bl	80096e0 <OLED_ShowString>
 8002e1c:	f006 fbc4 	bl	80095a8 <OLED_Refresh_Gram>
 8002e20:	7823      	ldrb	r3, [r4, #0]
 8002e22:	2b00      	cmp	r3, #0
 8002e24:	d1a6      	bne.n	8002d74 <task2A2L+0x1e0>
 8002e26:	e7ad      	b.n	8002d84 <task2A2L+0x1f0>
 8002e28:	e9d7 0100 	ldrd	r0, r1, [r7]
 8002e2c:	f7fd fe94 	bl	8000b58 <__aeabi_d2iz>
 8002e30:	2854      	cmp	r0, #84	; 0x54
 8002e32:	4602      	mov	r2, r0
 8002e34:	dcbe      	bgt.n	8002db4 <task2A2L+0x220>
 8002e36:	4641      	mov	r1, r8
 8002e38:	4668      	mov	r0, sp
 8002e3a:	f007 fbb9 	bl	800a5b0 <siprintf>
 8002e3e:	466a      	mov	r2, sp
 8002e40:	2114      	movs	r1, #20
 8002e42:	200a      	movs	r0, #10
 8002e44:	f006 fc4c 	bl	80096e0 <OLED_ShowString>
 8002e48:	f006 fbae 	bl	80095a8 <OLED_Refresh_Gram>
 8002e4c:	e7af      	b.n	8002dae <task2A2L+0x21a>
 8002e4e:	4641      	mov	r1, r8
 8002e50:	4668      	mov	r0, sp
 8002e52:	f007 fbad 	bl	800a5b0 <siprintf>
 8002e56:	466a      	mov	r2, sp
 8002e58:	2114      	movs	r1, #20
 8002e5a:	200a      	movs	r0, #10
 8002e5c:	f006 fc40 	bl	80096e0 <OLED_ShowString>
 8002e60:	f006 fba2 	bl	80095a8 <OLED_Refresh_Gram>
 8002e64:	7823      	ldrb	r3, [r4, #0]
 8002e66:	2b00      	cmp	r3, #0
 8002e68:	d1c0      	bne.n	8002dec <task2A2L+0x258>
 8002e6a:	e7c6      	b.n	8002dfa <task2A2L+0x266>
 8002e6c:	200003c4 	.word	0x200003c4
 8002e70:	200002a4 	.word	0x200002a4
 8002e74:	20000455 	.word	0x20000455
 8002e78:	40020000 	.word	0x40020000
 8002e7c:	40021000 	.word	0x40021000
 8002e80:	40020800 	.word	0x40020800
 8002e84:	20000245 	.word	0x20000245
 8002e88:	20000458 	.word	0x20000458
 8002e8c:	42700000 	.word	0x42700000
 8002e90:	42480000 	.word	0x42480000
 8002e94:	20000228 	.word	0x20000228
 8002e98:	42340000 	.word	0x42340000
 8002e9c:	428c0000 	.word	0x428c0000
 8002ea0:	0800e1bc 	.word	0x0800e1bc
 8002ea4:	2f6c      	cmp	r7, #108	; 0x6c
 8002ea6:	682b      	ldr	r3, [r5, #0]
 8002ea8:	f040 8091 	bne.w	8002fce <task2A2L+0x43a>
 8002eac:	2173      	movs	r1, #115	; 0x73
 8002eae:	6411      	str	r1, [r2, #64]	; 0x40
 8002eb0:	f44f 727a 	mov.w	r2, #1000	; 0x3e8
 8002eb4:	635a      	str	r2, [r3, #52]	; 0x34
 8002eb6:	f640 32b8 	movw	r2, #3000	; 0xbb8
 8002eba:	63da      	str	r2, [r3, #60]	; 0x3c
 8002ebc:	f8df 8240 	ldr.w	r8, [pc, #576]	; 8003100 <task2A2L+0x56c>
 8002ec0:	4f89      	ldr	r7, [pc, #548]	; (80030e8 <task2A2L+0x554>)
 8002ec2:	2301      	movs	r3, #1
 8002ec4:	7023      	strb	r3, [r4, #0]
 8002ec6:	e9d8 0100 	ldrd	r0, r1, [r8]
 8002eca:	f7fd fe45 	bl	8000b58 <__aeabi_d2iz>
 8002ece:	2827      	cmp	r0, #39	; 0x27
 8002ed0:	dd52      	ble.n	8002f78 <task2A2L+0x3e4>
 8002ed2:	682b      	ldr	r3, [r5, #0]
 8002ed4:	ed9f 0a85 	vldr	s0, [pc, #532]	; 80030ec <task2A2L+0x558>
 8002ed8:	f8df 9218 	ldr.w	r9, [pc, #536]	; 80030f4 <task2A2L+0x560>
 8002edc:	2200      	movs	r2, #0
 8002ede:	635a      	str	r2, [r3, #52]	; 0x34
 8002ee0:	2001      	movs	r0, #1
 8002ee2:	63da      	str	r2, [r3, #60]	; 0x3c
 8002ee4:	f7fe fbd2 	bl	800168c <moveGyroPID>
 8002ee8:	6833      	ldr	r3, [r6, #0]
 8002eea:	f44f 7287 	mov.w	r2, #270	; 0x10e
 8002eee:	641a      	str	r2, [r3, #64]	; 0x40
 8002ef0:	682b      	ldr	r3, [r5, #0]
 8002ef2:	f640 32b8 	movw	r2, #3000	; 0xbb8
 8002ef6:	635a      	str	r2, [r3, #52]	; 0x34
 8002ef8:	f44f 727a 	mov.w	r2, #1000	; 0x3e8
 8002efc:	63da      	str	r2, [r3, #60]	; 0x3c
 8002efe:	7823      	ldrb	r3, [r4, #0]
 8002f00:	2b00      	cmp	r3, #0
 8002f02:	d14d      	bne.n	8002fa0 <task2A2L+0x40c>
 8002f04:	f04f 0800 	mov.w	r8, #0
 8002f08:	ed9f 0a79 	vldr	s0, [pc, #484]	; 80030f0 <task2A2L+0x55c>
 8002f0c:	f884 8000 	strb.w	r8, [r4]
 8002f10:	2001      	movs	r0, #1
 8002f12:	f7fe fd31 	bl	8001978 <moveGyroPIDOld>
 8002f16:	6833      	ldr	r3, [r6, #0]
 8002f18:	f884 8000 	strb.w	r8, [r4]
 8002f1c:	f44f 7287 	mov.w	r2, #270	; 0x10e
 8002f20:	641a      	str	r2, [r3, #64]	; 0x40
 8002f22:	682b      	ldr	r3, [r5, #0]
 8002f24:	f640 32b8 	movw	r2, #3000	; 0xbb8
 8002f28:	635a      	str	r2, [r3, #52]	; 0x34
 8002f2a:	f44f 727a 	mov.w	r2, #1000	; 0x3e8
 8002f2e:	63da      	str	r2, [r3, #60]	; 0x3c
 8002f30:	2064      	movs	r0, #100	; 0x64
 8002f32:	f7fe fafd 	bl	8001530 <delay>
 8002f36:	2001      	movs	r0, #1
 8002f38:	f884 8000 	strb.w	r8, [r4]
 8002f3c:	f004 fd9b 	bl	8007a76 <osDelay>
 8002f40:	f8df 81b0 	ldr.w	r8, [pc, #432]	; 80030f4 <task2A2L+0x560>
 8002f44:	2301      	movs	r3, #1
 8002f46:	7023      	strb	r3, [r4, #0]
 8002f48:	e9d7 0100 	ldrd	r0, r1, [r7]
 8002f4c:	f7fd fe04 	bl	8000b58 <__aeabi_d2iz>
 8002f50:	f110 0f59 	cmn.w	r0, #89	; 0x59
 8002f54:	4602      	mov	r2, r0
 8002f56:	f6ff aea3 	blt.w	8002ca0 <task2A2L+0x10c>
 8002f5a:	4641      	mov	r1, r8
 8002f5c:	4668      	mov	r0, sp
 8002f5e:	f007 fb27 	bl	800a5b0 <siprintf>
 8002f62:	466a      	mov	r2, sp
 8002f64:	2114      	movs	r1, #20
 8002f66:	200a      	movs	r0, #10
 8002f68:	f006 fbba 	bl	80096e0 <OLED_ShowString>
 8002f6c:	f006 fb1c 	bl	80095a8 <OLED_Refresh_Gram>
 8002f70:	7823      	ldrb	r3, [r4, #0]
 8002f72:	2b00      	cmp	r3, #0
 8002f74:	d1e8      	bne.n	8002f48 <task2A2L+0x3b4>
 8002f76:	e693      	b.n	8002ca0 <task2A2L+0x10c>
 8002f78:	e9d7 0100 	ldrd	r0, r1, [r7]
 8002f7c:	f7fd fdec 	bl	8000b58 <__aeabi_d2iz>
 8002f80:	495c      	ldr	r1, [pc, #368]	; (80030f4 <task2A2L+0x560>)
 8002f82:	4602      	mov	r2, r0
 8002f84:	4668      	mov	r0, sp
 8002f86:	f007 fb13 	bl	800a5b0 <siprintf>
 8002f8a:	466a      	mov	r2, sp
 8002f8c:	2114      	movs	r1, #20
 8002f8e:	200a      	movs	r0, #10
 8002f90:	f006 fba6 	bl	80096e0 <OLED_ShowString>
 8002f94:	f006 fb08 	bl	80095a8 <OLED_Refresh_Gram>
 8002f98:	7823      	ldrb	r3, [r4, #0]
 8002f9a:	2b00      	cmp	r3, #0
 8002f9c:	d193      	bne.n	8002ec6 <task2A2L+0x332>
 8002f9e:	e798      	b.n	8002ed2 <task2A2L+0x33e>
 8002fa0:	e9d8 0100 	ldrd	r0, r1, [r8]
 8002fa4:	f7fd fdd8 	bl	8000b58 <__aeabi_d2iz>
 8002fa8:	3059      	adds	r0, #89	; 0x59
 8002faa:	dbab      	blt.n	8002f04 <task2A2L+0x370>
 8002fac:	e9d7 0100 	ldrd	r0, r1, [r7]
 8002fb0:	f7fd fdd2 	bl	8000b58 <__aeabi_d2iz>
 8002fb4:	4649      	mov	r1, r9
 8002fb6:	4602      	mov	r2, r0
 8002fb8:	4668      	mov	r0, sp
 8002fba:	f007 faf9 	bl	800a5b0 <siprintf>
 8002fbe:	466a      	mov	r2, sp
 8002fc0:	2114      	movs	r1, #20
 8002fc2:	200a      	movs	r0, #10
 8002fc4:	f006 fb8c 	bl	80096e0 <OLED_ShowString>
 8002fc8:	f006 faee 	bl	80095a8 <OLED_Refresh_Gram>
 8002fcc:	e797      	b.n	8002efe <task2A2L+0x36a>
 8002fce:	2f72      	cmp	r7, #114	; 0x72
 8002fd0:	f47f ae6f 	bne.w	8002cb2 <task2A2L+0x11e>
 8002fd4:	f44f 7187 	mov.w	r1, #270	; 0x10e
 8002fd8:	6411      	str	r1, [r2, #64]	; 0x40
 8002fda:	f640 32b8 	movw	r2, #3000	; 0xbb8
 8002fde:	635a      	str	r2, [r3, #52]	; 0x34
 8002fe0:	f44f 727a 	mov.w	r2, #1000	; 0x3e8
 8002fe4:	63da      	str	r2, [r3, #60]	; 0x3c
 8002fe6:	4f40      	ldr	r7, [pc, #256]	; (80030e8 <task2A2L+0x554>)
 8002fe8:	f8df 8108 	ldr.w	r8, [pc, #264]	; 80030f4 <task2A2L+0x560>
 8002fec:	2301      	movs	r3, #1
 8002fee:	7023      	strb	r3, [r4, #0]
 8002ff0:	e9d7 0100 	ldrd	r0, r1, [r7]
 8002ff4:	f7fd fdb0 	bl	8000b58 <__aeabi_d2iz>
 8002ff8:	f110 0f3b 	cmn.w	r0, #59	; 0x3b
 8002ffc:	4602      	mov	r2, r0
 8002ffe:	da4d      	bge.n	800309c <task2A2L+0x508>
 8003000:	682a      	ldr	r2, [r5, #0]
 8003002:	ed9f 0a3d 	vldr	s0, [pc, #244]	; 80030f8 <task2A2L+0x564>
 8003006:	f8df 80f8 	ldr.w	r8, [pc, #248]	; 8003100 <task2A2L+0x56c>
 800300a:	f8df 90e8 	ldr.w	r9, [pc, #232]	; 80030f4 <task2A2L+0x560>
 800300e:	2300      	movs	r3, #0
 8003010:	6353      	str	r3, [r2, #52]	; 0x34
 8003012:	2001      	movs	r0, #1
 8003014:	63d3      	str	r3, [r2, #60]	; 0x3c
 8003016:	7023      	strb	r3, [r4, #0]
 8003018:	f7fe fcae 	bl	8001978 <moveGyroPIDOld>
 800301c:	6833      	ldr	r3, [r6, #0]
 800301e:	226e      	movs	r2, #110	; 0x6e
 8003020:	641a      	str	r2, [r3, #64]	; 0x40
 8003022:	682b      	ldr	r3, [r5, #0]
 8003024:	f44f 727a 	mov.w	r2, #1000	; 0x3e8
 8003028:	635a      	str	r2, [r3, #52]	; 0x34
 800302a:	f640 32b8 	movw	r2, #3000	; 0xbb8
 800302e:	63da      	str	r2, [r3, #60]	; 0x3c
 8003030:	7823      	ldrb	r3, [r4, #0]
 8003032:	2b00      	cmp	r3, #0
 8003034:	d141      	bne.n	80030ba <task2A2L+0x526>
 8003036:	f04f 0800 	mov.w	r8, #0
 800303a:	2001      	movs	r0, #1
 800303c:	ed9f 0a2f 	vldr	s0, [pc, #188]	; 80030fc <task2A2L+0x568>
 8003040:	f884 8000 	strb.w	r8, [r4]
 8003044:	f7fe fc98 	bl	8001978 <moveGyroPIDOld>
 8003048:	6833      	ldr	r3, [r6, #0]
 800304a:	f884 8000 	strb.w	r8, [r4]
 800304e:	2273      	movs	r2, #115	; 0x73
 8003050:	641a      	str	r2, [r3, #64]	; 0x40
 8003052:	682b      	ldr	r3, [r5, #0]
 8003054:	f8df 809c 	ldr.w	r8, [pc, #156]	; 80030f4 <task2A2L+0x560>
 8003058:	f44f 727a 	mov.w	r2, #1000	; 0x3e8
 800305c:	635a      	str	r2, [r3, #52]	; 0x34
 800305e:	f640 32b8 	movw	r2, #3000	; 0xbb8
 8003062:	63da      	str	r2, [r3, #60]	; 0x3c
 8003064:	2064      	movs	r0, #100	; 0x64
 8003066:	f7fe fa63 	bl	8001530 <delay>
 800306a:	2301      	movs	r3, #1
 800306c:	7023      	strb	r3, [r4, #0]
 800306e:	e9d7 0100 	ldrd	r0, r1, [r7]
 8003072:	f7fd fd71 	bl	8000b58 <__aeabi_d2iz>
 8003076:	2868      	cmp	r0, #104	; 0x68
 8003078:	4602      	mov	r2, r0
 800307a:	f73f aebe 	bgt.w	8002dfa <task2A2L+0x266>
 800307e:	4641      	mov	r1, r8
 8003080:	4668      	mov	r0, sp
 8003082:	f007 fa95 	bl	800a5b0 <siprintf>
 8003086:	466a      	mov	r2, sp
 8003088:	2114      	movs	r1, #20
 800308a:	200a      	movs	r0, #10
 800308c:	f006 fb28 	bl	80096e0 <OLED_ShowString>
 8003090:	f006 fa8a 	bl	80095a8 <OLED_Refresh_Gram>
 8003094:	7823      	ldrb	r3, [r4, #0]
 8003096:	2b00      	cmp	r3, #0
 8003098:	d1e9      	bne.n	800306e <task2A2L+0x4da>
 800309a:	e6ae      	b.n	8002dfa <task2A2L+0x266>
 800309c:	4641      	mov	r1, r8
 800309e:	4668      	mov	r0, sp
 80030a0:	f007 fa86 	bl	800a5b0 <siprintf>
 80030a4:	466a      	mov	r2, sp
 80030a6:	2114      	movs	r1, #20
 80030a8:	200a      	movs	r0, #10
 80030aa:	f006 fb19 	bl	80096e0 <OLED_ShowString>
 80030ae:	f006 fa7b 	bl	80095a8 <OLED_Refresh_Gram>
 80030b2:	7823      	ldrb	r3, [r4, #0]
 80030b4:	2b00      	cmp	r3, #0
 80030b6:	d19b      	bne.n	8002ff0 <task2A2L+0x45c>
 80030b8:	e7a2      	b.n	8003000 <task2A2L+0x46c>
 80030ba:	e9d8 0100 	ldrd	r0, r1, [r8]
 80030be:	f7fd fd4b 	bl	8000b58 <__aeabi_d2iz>
 80030c2:	2852      	cmp	r0, #82	; 0x52
 80030c4:	dcb7      	bgt.n	8003036 <task2A2L+0x4a2>
 80030c6:	e9d7 0100 	ldrd	r0, r1, [r7]
 80030ca:	f7fd fd45 	bl	8000b58 <__aeabi_d2iz>
 80030ce:	4649      	mov	r1, r9
 80030d0:	4602      	mov	r2, r0
 80030d2:	4668      	mov	r0, sp
 80030d4:	f007 fa6c 	bl	800a5b0 <siprintf>
 80030d8:	466a      	mov	r2, sp
 80030da:	2114      	movs	r1, #20
 80030dc:	200a      	movs	r0, #10
 80030de:	f006 faff 	bl	80096e0 <OLED_ShowString>
 80030e2:	f006 fa61 	bl	80095a8 <OLED_Refresh_Gram>
 80030e6:	e7a3      	b.n	8003030 <task2A2L+0x49c>
 80030e8:	20000458 	.word	0x20000458
 80030ec:	42920000 	.word	0x42920000
 80030f0:	42200000 	.word	0x42200000
 80030f4:	0800e1bc 	.word	0x0800e1bc
 80030f8:	42340000 	.word	0x42340000
 80030fc:	42700000 	.word	0x42700000
 8003100:	20000228 	.word	0x20000228

08003104 <moveUltraExtreme>:
 8003104:	e92d 4ff0 	stmdb	sp!, {r4, r5, r6, r7, r8, r9, sl, fp, lr}
 8003108:	2100      	movs	r1, #0
 800310a:	b093      	sub	sp, #76	; 0x4c
 800310c:	4c67      	ldr	r4, [pc, #412]	; (80032ac <moveUltraExtreme+0x1a8>)
 800310e:	4868      	ldr	r0, [pc, #416]	; (80032b0 <moveUltraExtreme+0x1ac>)
 8003110:	4d68      	ldr	r5, [pc, #416]	; (80032b4 <moveUltraExtreme+0x1b0>)
 8003112:	f8df a1bc 	ldr.w	sl, [pc, #444]	; 80032d0 <moveUltraExtreme+0x1cc>
 8003116:	f8df b1bc 	ldr.w	fp, [pc, #444]	; 80032d4 <moveUltraExtreme+0x1d0>
 800311a:	f004 f81f 	bl	800715c <HAL_TIM_PWM_Start>
 800311e:	2108      	movs	r1, #8
 8003120:	4863      	ldr	r0, [pc, #396]	; (80032b0 <moveUltraExtreme+0x1ac>)
 8003122:	f004 f81b 	bl	800715c <HAL_TIM_PWM_Start>
 8003126:	210c      	movs	r1, #12
 8003128:	4620      	mov	r0, r4
 800312a:	f004 f817 	bl	800715c <HAL_TIM_PWM_Start>
 800312e:	6823      	ldr	r3, [r4, #0]
 8003130:	2293      	movs	r2, #147	; 0x93
 8003132:	641a      	str	r2, [r3, #64]	; 0x40
 8003134:	2064      	movs	r0, #100	; 0x64
 8003136:	f004 fc9e 	bl	8007a76 <osDelay>
 800313a:	2220      	movs	r2, #32
 800313c:	2100      	movs	r1, #0
 800313e:	a801      	add	r0, sp, #4
 8003140:	f006 fbae 	bl	80098a0 <memset>
 8003144:	f04f 587e 	mov.w	r8, #1065353216	; 0x3f800000
 8003148:	2220      	movs	r2, #32
 800314a:	2100      	movs	r1, #0
 800314c:	f240 57aa 	movw	r7, #1450	; 0x5aa
 8003150:	f640 3654 	movw	r6, #2900	; 0xb54
 8003154:	a80a      	add	r0, sp, #40	; 0x28
 8003156:	e9cd 7602 	strd	r7, r6, [sp, #8]
 800315a:	f8cd 8000 	str.w	r8, [sp]
 800315e:	9504      	str	r5, [sp, #16]
 8003160:	f006 fb9e 	bl	80098a0 <memset>
 8003164:	e9cd 760b 	strd	r7, r6, [sp, #44]	; 0x2c
 8003168:	4668      	mov	r0, sp
 800316a:	4f53      	ldr	r7, [pc, #332]	; (80032b8 <moveUltraExtreme+0x1b4>)
 800316c:	f8cd 8024 	str.w	r8, [sp, #36]	; 0x24
 8003170:	950d      	str	r5, [sp, #52]	; 0x34
 8003172:	f006 f97d 	bl	8009470 <PIDController_Init>
 8003176:	a809      	add	r0, sp, #36	; 0x24
 8003178:	f006 f97a 	bl	8009470 <PIDController_Init>
 800317c:	213c      	movs	r1, #60	; 0x3c
 800317e:	4638      	mov	r0, r7
 8003180:	f003 fb19 	bl	80067b6 <HAL_TIM_Encoder_Start>
 8003184:	213c      	movs	r1, #60	; 0x3c
 8003186:	4650      	mov	r0, sl
 8003188:	f003 fb15 	bl	80067b6 <HAL_TIM_Encoder_Start>
 800318c:	683b      	ldr	r3, [r7, #0]
 800318e:	6a5b      	ldr	r3, [r3, #36]	; 0x24
 8003190:	f8da 3000 	ldr.w	r3, [sl]
 8003194:	6a5b      	ldr	r3, [r3, #36]	; 0x24
 8003196:	f001 fc7d 	bl	8004a94 <HAL_GetTick>
 800319a:	2201      	movs	r2, #1
 800319c:	2108      	movs	r1, #8
 800319e:	4606      	mov	r6, r0
 80031a0:	4846      	ldr	r0, [pc, #280]	; (80032bc <moveUltraExtreme+0x1b8>)
 80031a2:	f001 fe2b 	bl	8004dfc <HAL_GPIO_WritePin>
 80031a6:	4845      	ldr	r0, [pc, #276]	; (80032bc <moveUltraExtreme+0x1b8>)
 80031a8:	2200      	movs	r2, #0
 80031aa:	2104      	movs	r1, #4
 80031ac:	f001 fe26 	bl	8004dfc <HAL_GPIO_WritePin>
 80031b0:	4843      	ldr	r0, [pc, #268]	; (80032c0 <moveUltraExtreme+0x1bc>)
 80031b2:	2201      	movs	r2, #1
 80031b4:	f44f 5180 	mov.w	r1, #4096	; 0x1000
 80031b8:	f001 fe20 	bl	8004dfc <HAL_GPIO_WritePin>
 80031bc:	4841      	ldr	r0, [pc, #260]	; (80032c4 <moveUltraExtreme+0x1c0>)
 80031be:	2200      	movs	r2, #0
 80031c0:	2120      	movs	r1, #32
 80031c2:	f001 fe1b 	bl	8004dfc <HAL_GPIO_WritePin>
 80031c6:	f04f 0800 	mov.w	r8, #0
 80031ca:	f04f 0900 	mov.w	r9, #0
 80031ce:	4938      	ldr	r1, [pc, #224]	; (80032b0 <moveUltraExtreme+0x1ac>)
 80031d0:	f640 33b8 	movw	r3, #3000	; 0xbb8
 80031d4:	6808      	ldr	r0, [r1, #0]
 80031d6:	6343      	str	r3, [r0, #52]	; 0x34
 80031d8:	63c3      	str	r3, [r0, #60]	; 0x3c
 80031da:	f001 fc5b 	bl	8004a94 <HAL_GetTick>
 80031de:	4a3a      	ldr	r2, [pc, #232]	; (80032c8 <moveUltraExtreme+0x1c4>)
 80031e0:	4933      	ldr	r1, [pc, #204]	; (80032b0 <moveUltraExtreme+0x1ac>)
 80031e2:	4605      	mov	r5, r0
 80031e4:	2001      	movs	r0, #1
 80031e6:	7010      	strb	r0, [r2, #0]
 80031e8:	1ba8      	subs	r0, r5, r6
 80031ea:	283c      	cmp	r0, #60	; 0x3c
 80031ec:	f640 33b8 	movw	r3, #3000	; 0xbb8
 80031f0:	d9f0      	bls.n	80031d4 <moveUltraExtreme+0xd0>
 80031f2:	683a      	ldr	r2, [r7, #0]
 80031f4:	6a53      	ldr	r3, [r2, #36]	; 0x24
 80031f6:	f8da 3000 	ldr.w	r3, [sl]
 80031fa:	6a59      	ldr	r1, [r3, #36]	; 0x24
 80031fc:	6812      	ldr	r2, [r2, #0]
 80031fe:	681b      	ldr	r3, [r3, #0]
 8003200:	e9db 0100 	ldrd	r0, r1, [fp]
 8003204:	4642      	mov	r2, r8
 8003206:	464b      	mov	r3, r9
 8003208:	f7fd fc68 	bl	8000adc <__aeabi_dcmplt>
 800320c:	b128      	cbz	r0, 800321a <moveUltraExtreme+0x116>
 800320e:	6823      	ldr	r3, [r4, #0]
 8003210:	2273      	movs	r2, #115	; 0x73
 8003212:	641a      	str	r2, [r3, #64]	; 0x40
 8003214:	200a      	movs	r0, #10
 8003216:	f004 fc2e 	bl	8007a76 <osDelay>
 800321a:	e9db 0100 	ldrd	r0, r1, [fp]
 800321e:	4642      	mov	r2, r8
 8003220:	464b      	mov	r3, r9
 8003222:	f7fd fc79 	bl	8000b18 <__aeabi_dcmpgt>
 8003226:	b128      	cbz	r0, 8003234 <moveUltraExtreme+0x130>
 8003228:	6823      	ldr	r3, [r4, #0]
 800322a:	22b4      	movs	r2, #180	; 0xb4
 800322c:	641a      	str	r2, [r3, #64]	; 0x40
 800322e:	200a      	movs	r0, #10
 8003230:	f004 fc21 	bl	8007a76 <osDelay>
 8003234:	e9db 0100 	ldrd	r0, r1, [fp]
 8003238:	4642      	mov	r2, r8
 800323a:	464b      	mov	r3, r9
 800323c:	f7fd fc44 	bl	8000ac8 <__aeabi_dcmpeq>
 8003240:	b128      	cbz	r0, 800324e <moveUltraExtreme+0x14a>
 8003242:	6823      	ldr	r3, [r4, #0]
 8003244:	2293      	movs	r2, #147	; 0x93
 8003246:	641a      	str	r2, [r3, #64]	; 0x40
 8003248:	200a      	movs	r0, #10
 800324a:	f004 fc14 	bl	8007a76 <osDelay>
 800324e:	4b1f      	ldr	r3, [pc, #124]	; (80032cc <moveUltraExtreme+0x1c8>)
 8003250:	ed93 7a00 	vldr	s14, [r3]
 8003254:	eef3 7a00 	vmov.f32	s15, #48	; 0x41800000  16.0
 8003258:	eeb4 7ae7 	vcmpe.f32	s14, s15
 800325c:	eef1 fa10 	vmrs	APSR_nzcv, fpscr
 8003260:	d522      	bpl.n	80032a8 <moveUltraExtreme+0x1a4>
 8003262:	eeb7 0a00 	vmov.f32	s0, #112	; 0x3f800000  1.0
 8003266:	2000      	movs	r0, #0
 8003268:	f7fe fd5a 	bl	8001d20 <move>
 800326c:	4813      	ldr	r0, [pc, #76]	; (80032bc <moveUltraExtreme+0x1b8>)
 800326e:	2201      	movs	r2, #1
 8003270:	2108      	movs	r1, #8
 8003272:	f001 fdc3 	bl	8004dfc <HAL_GPIO_WritePin>
 8003276:	4811      	ldr	r0, [pc, #68]	; (80032bc <moveUltraExtreme+0x1b8>)
 8003278:	2200      	movs	r2, #0
 800327a:	2104      	movs	r1, #4
 800327c:	f001 fdbe 	bl	8004dfc <HAL_GPIO_WritePin>
 8003280:	480f      	ldr	r0, [pc, #60]	; (80032c0 <moveUltraExtreme+0x1bc>)
 8003282:	2201      	movs	r2, #1
 8003284:	f44f 5180 	mov.w	r1, #4096	; 0x1000
 8003288:	f001 fdb8 	bl	8004dfc <HAL_GPIO_WritePin>
 800328c:	2120      	movs	r1, #32
 800328e:	480d      	ldr	r0, [pc, #52]	; (80032c4 <moveUltraExtreme+0x1c0>)
 8003290:	2200      	movs	r2, #0
 8003292:	f001 fdb3 	bl	8004dfc <HAL_GPIO_WritePin>
 8003296:	6823      	ldr	r3, [r4, #0]
 8003298:	2293      	movs	r2, #147	; 0x93
 800329a:	641a      	str	r2, [r3, #64]	; 0x40
 800329c:	200a      	movs	r0, #10
 800329e:	f004 fbea 	bl	8007a76 <osDelay>
 80032a2:	b013      	add	sp, #76	; 0x4c
 80032a4:	e8bd 8ff0 	ldmia.w	sp!, {r4, r5, r6, r7, r8, r9, sl, fp, pc}
 80032a8:	462e      	mov	r6, r5
 80032aa:	e790      	b.n	80031ce <moveUltraExtreme+0xca>
 80032ac:	200002a4 	.word	0x200002a4
 80032b0:	200003c4 	.word	0x200003c4
 80032b4:	3d4ccccd 	.word	0x3d4ccccd
 80032b8:	200002ec 	.word	0x200002ec
 80032bc:	40020000 	.word	0x40020000
 80032c0:	40021000 	.word	0x40021000
 80032c4:	40020800 	.word	0x40020800
 80032c8:	20000455 	.word	0x20000455
 80032cc:	20000208 	.word	0x20000208
 80032d0:	2000037c 	.word	0x2000037c
 80032d4:	20000228 	.word	0x20000228

080032d8 <task2A>:
 80032d8:	e92d 4ff0 	stmdb	sp!, {r4, r5, r6, r7, r8, r9, sl, fp, lr}
 80032dc:	4cb6      	ldr	r4, [pc, #728]	; (80035b8 <task2A+0x2e0>)
 80032de:	4db7      	ldr	r5, [pc, #732]	; (80035bc <task2A+0x2e4>)
 80032e0:	b09f      	sub	sp, #124	; 0x7c
 80032e2:	4606      	mov	r6, r0
 80032e4:	2100      	movs	r1, #0
 80032e6:	4620      	mov	r0, r4
 80032e8:	f003 ff38 	bl	800715c <HAL_TIM_PWM_Start>
 80032ec:	2108      	movs	r1, #8
 80032ee:	4620      	mov	r0, r4
 80032f0:	f003 ff34 	bl	800715c <HAL_TIM_PWM_Start>
 80032f4:	210c      	movs	r1, #12
 80032f6:	4628      	mov	r0, r5
 80032f8:	f003 ff30 	bl	800715c <HAL_TIM_PWM_Start>
 80032fc:	48b0      	ldr	r0, [pc, #704]	; (80035c0 <task2A+0x2e8>)
 80032fe:	2201      	movs	r2, #1
 8003300:	2108      	movs	r1, #8
 8003302:	f001 fd7b 	bl	8004dfc <HAL_GPIO_WritePin>
 8003306:	48ae      	ldr	r0, [pc, #696]	; (80035c0 <task2A+0x2e8>)
 8003308:	2200      	movs	r2, #0
 800330a:	2104      	movs	r1, #4
 800330c:	f001 fd76 	bl	8004dfc <HAL_GPIO_WritePin>
 8003310:	48ac      	ldr	r0, [pc, #688]	; (80035c4 <task2A+0x2ec>)
 8003312:	2201      	movs	r2, #1
 8003314:	f44f 5180 	mov.w	r1, #4096	; 0x1000
 8003318:	f001 fd70 	bl	8004dfc <HAL_GPIO_WritePin>
 800331c:	48aa      	ldr	r0, [pc, #680]	; (80035c8 <task2A+0x2f0>)
 800331e:	2200      	movs	r2, #0
 8003320:	2120      	movs	r1, #32
 8003322:	f001 fd6b 	bl	8004dfc <HAL_GPIO_WritePin>
 8003326:	2e6c      	cmp	r6, #108	; 0x6c
 8003328:	f040 80b8 	bne.w	800349c <task2A+0x1c4>
 800332c:	682b      	ldr	r3, [r5, #0]
 800332e:	4ea7      	ldr	r6, [pc, #668]	; (80035cc <task2A+0x2f4>)
 8003330:	4fa7      	ldr	r7, [pc, #668]	; (80035d0 <task2A+0x2f8>)
 8003332:	f8df 82b8 	ldr.w	r8, [pc, #696]	; 80035ec <task2A+0x314>
 8003336:	2273      	movs	r2, #115	; 0x73
 8003338:	641a      	str	r2, [r3, #64]	; 0x40
 800333a:	6823      	ldr	r3, [r4, #0]
 800333c:	f44f 727a 	mov.w	r2, #1000	; 0x3e8
 8003340:	635a      	str	r2, [r3, #52]	; 0x34
 8003342:	f44f 62fa 	mov.w	r2, #2000	; 0x7d0
 8003346:	63da      	str	r2, [r3, #60]	; 0x3c
 8003348:	2301      	movs	r3, #1
 800334a:	7033      	strb	r3, [r6, #0]
 800334c:	e9d7 0100 	ldrd	r0, r1, [r7]
 8003350:	f7fd fc02 	bl	8000b58 <__aeabi_d2iz>
 8003354:	281a      	cmp	r0, #26
 8003356:	4602      	mov	r2, r0
 8003358:	dd41      	ble.n	80033de <task2A+0x106>
 800335a:	ed9f 0a9e 	vldr	s0, [pc, #632]	; 80035d4 <task2A+0x2fc>
 800335e:	4e9e      	ldr	r6, [pc, #632]	; (80035d8 <task2A+0x300>)
 8003360:	f8df a28c 	ldr.w	sl, [pc, #652]	; 80035f0 <task2A+0x318>
 8003364:	f8df b284 	ldr.w	fp, [pc, #644]	; 80035ec <task2A+0x314>
 8003368:	2001      	movs	r0, #1
 800336a:	f7fe f98f 	bl	800168c <moveGyroPID>
 800336e:	682b      	ldr	r3, [r5, #0]
 8003370:	f44f 7287 	mov.w	r2, #270	; 0x10e
 8003374:	641a      	str	r2, [r3, #64]	; 0x40
 8003376:	6823      	ldr	r3, [r4, #0]
 8003378:	f44f 62fa 	mov.w	r2, #2000	; 0x7d0
 800337c:	635a      	str	r2, [r3, #52]	; 0x34
 800337e:	f44f 727a 	mov.w	r2, #1000	; 0x3e8
 8003382:	63da      	str	r2, [r3, #60]	; 0x3c
 8003384:	2300      	movs	r3, #0
 8003386:	7033      	strb	r3, [r6, #0]
 8003388:	ed9a 7a00 	vldr	s14, [sl]
 800338c:	eef2 7a0c 	vmov.f32	s15, #44	; 0x41600000  14.0
 8003390:	eeb4 7ae7 	vcmpe.f32	s14, s15
 8003394:	eef1 fa10 	vmrs	APSR_nzcv, fpscr
 8003398:	dc30      	bgt.n	80033fc <task2A+0x124>
 800339a:	7833      	ldrb	r3, [r6, #0]
 800339c:	2b00      	cmp	r3, #0
 800339e:	d13a      	bne.n	8003416 <task2A+0x13e>
 80033a0:	6823      	ldr	r3, [r4, #0]
 80033a2:	4887      	ldr	r0, [pc, #540]	; (80035c0 <task2A+0x2e8>)
 80033a4:	2400      	movs	r4, #0
 80033a6:	635c      	str	r4, [r3, #52]	; 0x34
 80033a8:	63dc      	str	r4, [r3, #60]	; 0x3c
 80033aa:	682b      	ldr	r3, [r5, #0]
 80033ac:	2293      	movs	r2, #147	; 0x93
 80033ae:	641a      	str	r2, [r3, #64]	; 0x40
 80033b0:	2108      	movs	r1, #8
 80033b2:	2201      	movs	r2, #1
 80033b4:	f001 fd22 	bl	8004dfc <HAL_GPIO_WritePin>
 80033b8:	4622      	mov	r2, r4
 80033ba:	4881      	ldr	r0, [pc, #516]	; (80035c0 <task2A+0x2e8>)
 80033bc:	2104      	movs	r1, #4
 80033be:	f001 fd1d 	bl	8004dfc <HAL_GPIO_WritePin>
 80033c2:	4880      	ldr	r0, [pc, #512]	; (80035c4 <task2A+0x2ec>)
 80033c4:	2201      	movs	r2, #1
 80033c6:	f44f 5180 	mov.w	r1, #4096	; 0x1000
 80033ca:	f001 fd17 	bl	8004dfc <HAL_GPIO_WritePin>
 80033ce:	487e      	ldr	r0, [pc, #504]	; (80035c8 <task2A+0x2f0>)
 80033d0:	4622      	mov	r2, r4
 80033d2:	2120      	movs	r1, #32
 80033d4:	f001 fd12 	bl	8004dfc <HAL_GPIO_WritePin>
 80033d8:	b01f      	add	sp, #124	; 0x7c
 80033da:	e8bd 8ff0 	ldmia.w	sp!, {r4, r5, r6, r7, r8, r9, sl, fp, pc}
 80033de:	4641      	mov	r1, r8
 80033e0:	4668      	mov	r0, sp
 80033e2:	f007 f8e5 	bl	800a5b0 <siprintf>
 80033e6:	466a      	mov	r2, sp
 80033e8:	2114      	movs	r1, #20
 80033ea:	200a      	movs	r0, #10
 80033ec:	f006 f978 	bl	80096e0 <OLED_ShowString>
 80033f0:	f006 f8da 	bl	80095a8 <OLED_Refresh_Gram>
 80033f4:	7833      	ldrb	r3, [r6, #0]
 80033f6:	2b00      	cmp	r3, #0
 80033f8:	d1a8      	bne.n	800334c <task2A+0x74>
 80033fa:	e7ae      	b.n	800335a <task2A+0x82>
 80033fc:	e9d7 8900 	ldrd	r8, r9, [r7]
 8003400:	4b76      	ldr	r3, [pc, #472]	; (80035dc <task2A+0x304>)
 8003402:	2200      	movs	r2, #0
 8003404:	4640      	mov	r0, r8
 8003406:	4649      	mov	r1, r9
 8003408:	f7fd fb72 	bl	8000af0 <__aeabi_dcmple>
 800340c:	2800      	cmp	r0, #0
 800340e:	d034      	beq.n	800347a <task2A+0x1a2>
 8003410:	4b71      	ldr	r3, [pc, #452]	; (80035d8 <task2A+0x300>)
 8003412:	2201      	movs	r2, #1
 8003414:	701a      	strb	r2, [r3, #0]
 8003416:	f7ff fe75 	bl	8003104 <moveUltraExtreme>
 800341a:	4b6f      	ldr	r3, [pc, #444]	; (80035d8 <task2A+0x300>)
 800341c:	781b      	ldrb	r3, [r3, #0]
 800341e:	2b00      	cmp	r3, #0
 8003420:	d0be      	beq.n	80033a0 <task2A+0xc8>
 8003422:	4e6f      	ldr	r6, [pc, #444]	; (80035e0 <task2A+0x308>)
 8003424:	e9d6 8900 	ldrd	r8, r9, [r6]
 8003428:	2200      	movs	r2, #0
 800342a:	2300      	movs	r3, #0
 800342c:	4640      	mov	r0, r8
 800342e:	4649      	mov	r1, r9
 8003430:	f7fd fb72 	bl	8000b18 <__aeabi_dcmpgt>
 8003434:	2800      	cmp	r0, #0
 8003436:	f000 8097 	beq.w	8003568 <task2A+0x290>
 800343a:	4f64      	ldr	r7, [pc, #400]	; (80035cc <task2A+0x2f4>)
 800343c:	f04f 0a01 	mov.w	sl, #1
 8003440:	f04f 0800 	mov.w	r8, #0
 8003444:	f04f 0900 	mov.w	r9, #0
 8003448:	682b      	ldr	r3, [r5, #0]
 800344a:	f887 a000 	strb.w	sl, [r7]
 800344e:	f44f 7287 	mov.w	r2, #270	; 0x10e
 8003452:	641a      	str	r2, [r3, #64]	; 0x40
 8003454:	6823      	ldr	r3, [r4, #0]
 8003456:	f44f 727a 	mov.w	r2, #1000	; 0x3e8
 800345a:	635a      	str	r2, [r3, #52]	; 0x34
 800345c:	f44f 72c8 	mov.w	r2, #400	; 0x190
 8003460:	63da      	str	r2, [r3, #60]	; 0x3c
 8003462:	2001      	movs	r0, #1
 8003464:	f7fe f864 	bl	8001530 <delay>
 8003468:	e9d6 0100 	ldrd	r0, r1, [r6]
 800346c:	4642      	mov	r2, r8
 800346e:	464b      	mov	r3, r9
 8003470:	f7fd fb52 	bl	8000b18 <__aeabi_dcmpgt>
 8003474:	2800      	cmp	r0, #0
 8003476:	d1e7      	bne.n	8003448 <task2A+0x170>
 8003478:	e792      	b.n	80033a0 <task2A+0xc8>
 800347a:	4649      	mov	r1, r9
 800347c:	4640      	mov	r0, r8
 800347e:	f7fd fb6b 	bl	8000b58 <__aeabi_d2iz>
 8003482:	4659      	mov	r1, fp
 8003484:	4602      	mov	r2, r0
 8003486:	4668      	mov	r0, sp
 8003488:	f007 f892 	bl	800a5b0 <siprintf>
 800348c:	466a      	mov	r2, sp
 800348e:	2114      	movs	r1, #20
 8003490:	200a      	movs	r0, #10
 8003492:	f006 f925 	bl	80096e0 <OLED_ShowString>
 8003496:	f006 f887 	bl	80095a8 <OLED_Refresh_Gram>
 800349a:	e775      	b.n	8003388 <task2A+0xb0>
 800349c:	2e72      	cmp	r6, #114	; 0x72
 800349e:	d1bc      	bne.n	800341a <task2A+0x142>
 80034a0:	682a      	ldr	r2, [r5, #0]
 80034a2:	6823      	ldr	r3, [r4, #0]
 80034a4:	4e49      	ldr	r6, [pc, #292]	; (80035cc <task2A+0x2f4>)
 80034a6:	4f4a      	ldr	r7, [pc, #296]	; (80035d0 <task2A+0x2f8>)
 80034a8:	f8df 8140 	ldr.w	r8, [pc, #320]	; 80035ec <task2A+0x314>
 80034ac:	f44f 7187 	mov.w	r1, #270	; 0x10e
 80034b0:	6411      	str	r1, [r2, #64]	; 0x40
 80034b2:	f44f 62fa 	mov.w	r2, #2000	; 0x7d0
 80034b6:	635a      	str	r2, [r3, #52]	; 0x34
 80034b8:	f44f 727a 	mov.w	r2, #1000	; 0x3e8
 80034bc:	63da      	str	r2, [r3, #60]	; 0x3c
 80034be:	2301      	movs	r3, #1
 80034c0:	7033      	strb	r3, [r6, #0]
 80034c2:	e9d7 0100 	ldrd	r0, r1, [r7]
 80034c6:	f7fd fb47 	bl	8000b58 <__aeabi_d2iz>
 80034ca:	f110 0f16 	cmn.w	r0, #22
 80034ce:	4602      	mov	r2, r0
 80034d0:	da3b      	bge.n	800354a <task2A+0x272>
 80034d2:	ed9f 0a44 	vldr	s0, [pc, #272]	; 80035e4 <task2A+0x30c>
 80034d6:	4e40      	ldr	r6, [pc, #256]	; (80035d8 <task2A+0x300>)
 80034d8:	f8df a114 	ldr.w	sl, [pc, #276]	; 80035f0 <task2A+0x318>
 80034dc:	f8df b10c 	ldr.w	fp, [pc, #268]	; 80035ec <task2A+0x314>
 80034e0:	2001      	movs	r0, #1
 80034e2:	f7fe f8d3 	bl	800168c <moveGyroPID>
 80034e6:	682b      	ldr	r3, [r5, #0]
 80034e8:	2264      	movs	r2, #100	; 0x64
 80034ea:	641a      	str	r2, [r3, #64]	; 0x40
 80034ec:	6823      	ldr	r3, [r4, #0]
 80034ee:	f44f 727a 	mov.w	r2, #1000	; 0x3e8
 80034f2:	635a      	str	r2, [r3, #52]	; 0x34
 80034f4:	f44f 62fa 	mov.w	r2, #2000	; 0x7d0
 80034f8:	63da      	str	r2, [r3, #60]	; 0x3c
 80034fa:	2300      	movs	r3, #0
 80034fc:	7033      	strb	r3, [r6, #0]
 80034fe:	ed9a 7a00 	vldr	s14, [sl]
 8003502:	eef2 7a0c 	vmov.f32	s15, #44	; 0x41600000  14.0
 8003506:	eeb4 7ae7 	vcmpe.f32	s14, s15
 800350a:	eef1 fa10 	vmrs	APSR_nzcv, fpscr
 800350e:	f77f af44 	ble.w	800339a <task2A+0xc2>
 8003512:	e9d7 8900 	ldrd	r8, r9, [r7]
 8003516:	4b34      	ldr	r3, [pc, #208]	; (80035e8 <task2A+0x310>)
 8003518:	2200      	movs	r2, #0
 800351a:	4640      	mov	r0, r8
 800351c:	4649      	mov	r1, r9
 800351e:	f7fd faf1 	bl	8000b04 <__aeabi_dcmpge>
 8003522:	2800      	cmp	r0, #0
 8003524:	f47f af74 	bne.w	8003410 <task2A+0x138>
 8003528:	4649      	mov	r1, r9
 800352a:	4640      	mov	r0, r8
 800352c:	f7fd fb14 	bl	8000b58 <__aeabi_d2iz>
 8003530:	4659      	mov	r1, fp
 8003532:	4602      	mov	r2, r0
 8003534:	4668      	mov	r0, sp
 8003536:	f007 f83b 	bl	800a5b0 <siprintf>
 800353a:	466a      	mov	r2, sp
 800353c:	2114      	movs	r1, #20
 800353e:	200a      	movs	r0, #10
 8003540:	f006 f8ce 	bl	80096e0 <OLED_ShowString>
 8003544:	f006 f830 	bl	80095a8 <OLED_Refresh_Gram>
 8003548:	e7d9      	b.n	80034fe <task2A+0x226>
 800354a:	4641      	mov	r1, r8
 800354c:	4668      	mov	r0, sp
 800354e:	f007 f82f 	bl	800a5b0 <siprintf>
 8003552:	466a      	mov	r2, sp
 8003554:	2114      	movs	r1, #20
 8003556:	200a      	movs	r0, #10
 8003558:	f006 f8c2 	bl	80096e0 <OLED_ShowString>
 800355c:	f006 f824 	bl	80095a8 <OLED_Refresh_Gram>
 8003560:	7833      	ldrb	r3, [r6, #0]
 8003562:	2b00      	cmp	r3, #0
 8003564:	d1ad      	bne.n	80034c2 <task2A+0x1ea>
 8003566:	e7b4      	b.n	80034d2 <task2A+0x1fa>
 8003568:	2200      	movs	r2, #0
 800356a:	2300      	movs	r3, #0
 800356c:	4640      	mov	r0, r8
 800356e:	4649      	mov	r1, r9
 8003570:	f7fd fab4 	bl	8000adc <__aeabi_dcmplt>
 8003574:	2800      	cmp	r0, #0
 8003576:	f43f af13 	beq.w	80033a0 <task2A+0xc8>
 800357a:	4f14      	ldr	r7, [pc, #80]	; (80035cc <task2A+0x2f4>)
 800357c:	f04f 0a01 	mov.w	sl, #1
 8003580:	f04f 0800 	mov.w	r8, #0
 8003584:	f04f 0900 	mov.w	r9, #0
 8003588:	682b      	ldr	r3, [r5, #0]
 800358a:	f887 a000 	strb.w	sl, [r7]
 800358e:	2264      	movs	r2, #100	; 0x64
 8003590:	641a      	str	r2, [r3, #64]	; 0x40
 8003592:	6823      	ldr	r3, [r4, #0]
 8003594:	f44f 72c8 	mov.w	r2, #400	; 0x190
 8003598:	635a      	str	r2, [r3, #52]	; 0x34
 800359a:	f44f 727a 	mov.w	r2, #1000	; 0x3e8
 800359e:	63da      	str	r2, [r3, #60]	; 0x3c
 80035a0:	2001      	movs	r0, #1
 80035a2:	f7fd ffc5 	bl	8001530 <delay>
 80035a6:	e9d6 0100 	ldrd	r0, r1, [r6]
 80035aa:	4642      	mov	r2, r8
 80035ac:	464b      	mov	r3, r9
 80035ae:	f7fd fa95 	bl	8000adc <__aeabi_dcmplt>
 80035b2:	2800      	cmp	r0, #0
 80035b4:	d1e8      	bne.n	8003588 <task2A+0x2b0>
 80035b6:	e6f3      	b.n	80033a0 <task2A+0xc8>
 80035b8:	200003c4 	.word	0x200003c4
 80035bc:	200002a4 	.word	0x200002a4
 80035c0:	40020000 	.word	0x40020000
 80035c4:	40021000 	.word	0x40021000
 80035c8:	40020800 	.word	0x40020800
 80035cc:	20000455 	.word	0x20000455
 80035d0:	20000458 	.word	0x20000458
 80035d4:	42700000 	.word	0x42700000
 80035d8:	20000245 	.word	0x20000245
 80035dc:	c02e0000 	.word	0xc02e0000
 80035e0:	20000228 	.word	0x20000228
 80035e4:	42680000 	.word	0x42680000
 80035e8:	40390000 	.word	0x40390000
 80035ec:	0800e1bc 	.word	0x0800e1bc
 80035f0:	20000208 	.word	0x20000208
 80035f4:	00000000 	.word	0x00000000

080035f8 <left90>:
 80035f8:	e92d 4ff0 	stmdb	sp!, {r4, r5, r6, r7, r8, r9, sl, fp, lr}
 80035fc:	4c30      	ldr	r4, [pc, #192]	; (80036c0 <left90+0xc8>)
 80035fe:	4e31      	ldr	r6, [pc, #196]	; (80036c4 <left90+0xcc>)
 8003600:	4d31      	ldr	r5, [pc, #196]	; (80036c8 <left90+0xd0>)
 8003602:	f8df b0d4 	ldr.w	fp, [pc, #212]	; 80036d8 <left90+0xe0>
 8003606:	f8df a0d4 	ldr.w	sl, [pc, #212]	; 80036dc <left90+0xe4>
 800360a:	b087      	sub	sp, #28
 800360c:	2100      	movs	r1, #0
 800360e:	4620      	mov	r0, r4
 8003610:	f003 fda4 	bl	800715c <HAL_TIM_PWM_Start>
 8003614:	2108      	movs	r1, #8
 8003616:	4620      	mov	r0, r4
 8003618:	f003 fda0 	bl	800715c <HAL_TIM_PWM_Start>
 800361c:	210c      	movs	r1, #12
 800361e:	4630      	mov	r0, r6
 8003620:	f003 fd9c 	bl	800715c <HAL_TIM_PWM_Start>
 8003624:	6833      	ldr	r3, [r6, #0]
 8003626:	4829      	ldr	r0, [pc, #164]	; (80036cc <left90+0xd4>)
 8003628:	2293      	movs	r2, #147	; 0x93
 800362a:	641a      	str	r2, [r3, #64]	; 0x40
 800362c:	2108      	movs	r1, #8
 800362e:	2201      	movs	r2, #1
 8003630:	f001 fbe4 	bl	8004dfc <HAL_GPIO_WritePin>
 8003634:	4825      	ldr	r0, [pc, #148]	; (80036cc <left90+0xd4>)
 8003636:	2200      	movs	r2, #0
 8003638:	2104      	movs	r1, #4
 800363a:	f001 fbdf 	bl	8004dfc <HAL_GPIO_WritePin>
 800363e:	4824      	ldr	r0, [pc, #144]	; (80036d0 <left90+0xd8>)
 8003640:	2201      	movs	r2, #1
 8003642:	f44f 5180 	mov.w	r1, #4096	; 0x1000
 8003646:	f001 fbd9 	bl	8004dfc <HAL_GPIO_WritePin>
 800364a:	2200      	movs	r2, #0
 800364c:	4821      	ldr	r0, [pc, #132]	; (80036d4 <left90+0xdc>)
 800364e:	2120      	movs	r1, #32
 8003650:	f001 fbd4 	bl	8004dfc <HAL_GPIO_WritePin>
 8003654:	2301      	movs	r3, #1
 8003656:	702b      	strb	r3, [r5, #0]
 8003658:	6833      	ldr	r3, [r6, #0]
 800365a:	2273      	movs	r2, #115	; 0x73
 800365c:	641a      	str	r2, [r3, #64]	; 0x40
 800365e:	6823      	ldr	r3, [r4, #0]
 8003660:	f44f 727a 	mov.w	r2, #1000	; 0x3e8
 8003664:	f20f 0950 	addw	r9, pc, #80	; 0x50
 8003668:	e9d9 8900 	ldrd	r8, r9, [r9]
 800366c:	635a      	str	r2, [r3, #52]	; 0x34
 800366e:	f640 32b8 	movw	r2, #3000	; 0xbb8
 8003672:	63da      	str	r2, [r3, #60]	; 0x3c
 8003674:	e9db 6700 	ldrd	r6, r7, [fp]
 8003678:	4642      	mov	r2, r8
 800367a:	464b      	mov	r3, r9
 800367c:	4630      	mov	r0, r6
 800367e:	4639      	mov	r1, r7
 8003680:	f7fd fa40 	bl	8000b04 <__aeabi_dcmpge>
 8003684:	b958      	cbnz	r0, 800369e <left90+0xa6>
 8003686:	4639      	mov	r1, r7
 8003688:	4630      	mov	r0, r6
 800368a:	f7fd fa65 	bl	8000b58 <__aeabi_d2iz>
 800368e:	4651      	mov	r1, sl
 8003690:	4602      	mov	r2, r0
 8003692:	a801      	add	r0, sp, #4
 8003694:	f006 ff8c 	bl	800a5b0 <siprintf>
 8003698:	782b      	ldrb	r3, [r5, #0]
 800369a:	2b00      	cmp	r3, #0
 800369c:	d1ea      	bne.n	8003674 <left90+0x7c>
 800369e:	6823      	ldr	r3, [r4, #0]
 80036a0:	2400      	movs	r4, #0
 80036a2:	635c      	str	r4, [r3, #52]	; 0x34
 80036a4:	4620      	mov	r0, r4
 80036a6:	63dc      	str	r4, [r3, #60]	; 0x3c
 80036a8:	eeb7 0a00 	vmov.f32	s0, #112	; 0x3f800000  1.0
 80036ac:	f7fe fb38 	bl	8001d20 <move>
 80036b0:	702c      	strb	r4, [r5, #0]
 80036b2:	b007      	add	sp, #28
 80036b4:	e8bd 8ff0 	ldmia.w	sp!, {r4, r5, r6, r7, r8, r9, sl, fp, pc}
 80036b8:	00000000 	.word	0x00000000
 80036bc:	4055c000 	.word	0x4055c000
 80036c0:	200003c4 	.word	0x200003c4
 80036c4:	200002a4 	.word	0x200002a4
 80036c8:	20000455 	.word	0x20000455
 80036cc:	40020000 	.word	0x40020000
 80036d0:	40021000 	.word	0x40021000
 80036d4:	40020800 	.word	0x40020800
 80036d8:	20000458 	.word	0x20000458
 80036dc:	0800e1c7 	.word	0x0800e1c7

080036e0 <right90>:
 80036e0:	e92d 4ff0 	stmdb	sp!, {r4, r5, r6, r7, r8, r9, sl, fp, lr}
 80036e4:	4c32      	ldr	r4, [pc, #200]	; (80037b0 <right90+0xd0>)
 80036e6:	4e33      	ldr	r6, [pc, #204]	; (80037b4 <right90+0xd4>)
 80036e8:	4d33      	ldr	r5, [pc, #204]	; (80037b8 <right90+0xd8>)
 80036ea:	f8df b0dc 	ldr.w	fp, [pc, #220]	; 80037c8 <right90+0xe8>
 80036ee:	f8df a0dc 	ldr.w	sl, [pc, #220]	; 80037cc <right90+0xec>
 80036f2:	b087      	sub	sp, #28
 80036f4:	2100      	movs	r1, #0
 80036f6:	4620      	mov	r0, r4
 80036f8:	f003 fd30 	bl	800715c <HAL_TIM_PWM_Start>
 80036fc:	2108      	movs	r1, #8
 80036fe:	4620      	mov	r0, r4
 8003700:	f003 fd2c 	bl	800715c <HAL_TIM_PWM_Start>
 8003704:	210c      	movs	r1, #12
 8003706:	4630      	mov	r0, r6
 8003708:	f003 fd28 	bl	800715c <HAL_TIM_PWM_Start>
 800370c:	6833      	ldr	r3, [r6, #0]
 800370e:	482b      	ldr	r0, [pc, #172]	; (80037bc <right90+0xdc>)
 8003710:	2293      	movs	r2, #147	; 0x93
 8003712:	641a      	str	r2, [r3, #64]	; 0x40
 8003714:	2108      	movs	r1, #8
 8003716:	2201      	movs	r2, #1
 8003718:	f001 fb70 	bl	8004dfc <HAL_GPIO_WritePin>
 800371c:	4827      	ldr	r0, [pc, #156]	; (80037bc <right90+0xdc>)
 800371e:	2200      	movs	r2, #0
 8003720:	2104      	movs	r1, #4
 8003722:	f001 fb6b 	bl	8004dfc <HAL_GPIO_WritePin>
 8003726:	4826      	ldr	r0, [pc, #152]	; (80037c0 <right90+0xe0>)
 8003728:	2201      	movs	r2, #1
 800372a:	f44f 5180 	mov.w	r1, #4096	; 0x1000
 800372e:	f001 fb65 	bl	8004dfc <HAL_GPIO_WritePin>
 8003732:	2200      	movs	r2, #0
 8003734:	4823      	ldr	r0, [pc, #140]	; (80037c4 <right90+0xe4>)
 8003736:	2120      	movs	r1, #32
 8003738:	f001 fb60 	bl	8004dfc <HAL_GPIO_WritePin>
 800373c:	2301      	movs	r3, #1
 800373e:	702b      	strb	r3, [r5, #0]
 8003740:	6833      	ldr	r3, [r6, #0]
 8003742:	f44f 7287 	mov.w	r2, #270	; 0x10e
 8003746:	641a      	str	r2, [r3, #64]	; 0x40
 8003748:	6823      	ldr	r3, [r4, #0]
 800374a:	f640 32b8 	movw	r2, #3000	; 0xbb8
 800374e:	f20f 0958 	addw	r9, pc, #88	; 0x58
 8003752:	e9d9 8900 	ldrd	r8, r9, [r9]
 8003756:	635a      	str	r2, [r3, #52]	; 0x34
 8003758:	f44f 727a 	mov.w	r2, #1000	; 0x3e8
 800375c:	63da      	str	r2, [r3, #60]	; 0x3c
 800375e:	e9db 6700 	ldrd	r6, r7, [fp]
 8003762:	4642      	mov	r2, r8
 8003764:	464b      	mov	r3, r9
 8003766:	4630      	mov	r0, r6
 8003768:	4639      	mov	r1, r7
 800376a:	f7fd f9b7 	bl	8000adc <__aeabi_dcmplt>
 800376e:	b958      	cbnz	r0, 8003788 <right90+0xa8>
 8003770:	4639      	mov	r1, r7
 8003772:	4630      	mov	r0, r6
 8003774:	f7fd f9f0 	bl	8000b58 <__aeabi_d2iz>
 8003778:	4651      	mov	r1, sl
 800377a:	4602      	mov	r2, r0
 800377c:	a801      	add	r0, sp, #4
 800377e:	f006 ff17 	bl	800a5b0 <siprintf>
 8003782:	782b      	ldrb	r3, [r5, #0]
 8003784:	2b00      	cmp	r3, #0
 8003786:	d1ea      	bne.n	800375e <right90+0x7e>
 8003788:	6823      	ldr	r3, [r4, #0]
 800378a:	2400      	movs	r4, #0
 800378c:	635c      	str	r4, [r3, #52]	; 0x34
 800378e:	4620      	mov	r0, r4
 8003790:	63dc      	str	r4, [r3, #60]	; 0x3c
 8003792:	eeb7 0a00 	vmov.f32	s0, #112	; 0x3f800000  1.0
 8003796:	f7fe fac3 	bl	8001d20 <move>
 800379a:	702c      	strb	r4, [r5, #0]
 800379c:	b007      	add	sp, #28
 800379e:	e8bd 8ff0 	ldmia.w	sp!, {r4, r5, r6, r7, r8, r9, sl, fp, pc}
 80037a2:	bf00      	nop
 80037a4:	f3af 8000 	nop.w
 80037a8:	00000000 	.word	0x00000000
 80037ac:	c0564000 	.word	0xc0564000
 80037b0:	200003c4 	.word	0x200003c4
 80037b4:	200002a4 	.word	0x200002a4
 80037b8:	20000455 	.word	0x20000455
 80037bc:	40020000 	.word	0x40020000
 80037c0:	40021000 	.word	0x40021000
 80037c4:	40020800 	.word	0x40020800
 80037c8:	20000458 	.word	0x20000458
 80037cc:	0800e1d3 	.word	0x0800e1d3

080037d0 <turn>:
 80037d0:	e92d 4ff0 	stmdb	sp!, {r4, r5, r6, r7, r8, r9, sl, fp, lr}
 80037d4:	4d86      	ldr	r5, [pc, #536]	; (80039f0 <turn+0x220>)
 80037d6:	4e87      	ldr	r6, [pc, #540]	; (80039f4 <turn+0x224>)
 80037d8:	4c87      	ldr	r4, [pc, #540]	; (80039f8 <turn+0x228>)
 80037da:	4f88      	ldr	r7, [pc, #544]	; (80039fc <turn+0x22c>)
 80037dc:	b08b      	sub	sp, #44	; 0x2c
 80037de:	4681      	mov	r9, r0
 80037e0:	4688      	mov	r8, r1
 80037e2:	4628      	mov	r0, r5
 80037e4:	2100      	movs	r1, #0
 80037e6:	f003 fcb9 	bl	800715c <HAL_TIM_PWM_Start>
 80037ea:	2108      	movs	r1, #8
 80037ec:	4628      	mov	r0, r5
 80037ee:	f003 fcb5 	bl	800715c <HAL_TIM_PWM_Start>
 80037f2:	210c      	movs	r1, #12
 80037f4:	4630      	mov	r0, r6
 80037f6:	f003 fcb1 	bl	800715c <HAL_TIM_PWM_Start>
 80037fa:	6833      	ldr	r3, [r6, #0]
 80037fc:	2293      	movs	r2, #147	; 0x93
 80037fe:	641a      	str	r2, [r3, #64]	; 0x40
 8003800:	f1b8 0f00 	cmp.w	r8, #0
 8003804:	f000 8104 	beq.w	8003a10 <turn+0x240>
 8003808:	487d      	ldr	r0, [pc, #500]	; (8003a00 <turn+0x230>)
 800380a:	2201      	movs	r2, #1
 800380c:	2108      	movs	r1, #8
 800380e:	f001 faf5 	bl	8004dfc <HAL_GPIO_WritePin>
 8003812:	487b      	ldr	r0, [pc, #492]	; (8003a00 <turn+0x230>)
 8003814:	2200      	movs	r2, #0
 8003816:	2104      	movs	r1, #4
 8003818:	f001 faf0 	bl	8004dfc <HAL_GPIO_WritePin>
 800381c:	4879      	ldr	r0, [pc, #484]	; (8003a04 <turn+0x234>)
 800381e:	2201      	movs	r2, #1
 8003820:	f44f 5180 	mov.w	r1, #4096	; 0x1000
 8003824:	f001 faea 	bl	8004dfc <HAL_GPIO_WritePin>
 8003828:	4877      	ldr	r0, [pc, #476]	; (8003a08 <turn+0x238>)
 800382a:	2200      	movs	r2, #0
 800382c:	2120      	movs	r1, #32
 800382e:	f001 fae5 	bl	8004dfc <HAL_GPIO_WritePin>
 8003832:	f1b9 0f00 	cmp.w	r9, #0
 8003836:	d06b      	beq.n	8003910 <turn+0x140>
 8003838:	6833      	ldr	r3, [r6, #0]
 800383a:	f8df 81d0 	ldr.w	r8, [pc, #464]	; 8003a0c <turn+0x23c>
 800383e:	2273      	movs	r2, #115	; 0x73
 8003840:	641a      	str	r2, [r3, #64]	; 0x40
 8003842:	2064      	movs	r0, #100	; 0x64
 8003844:	f004 f917 	bl	8007a76 <osDelay>
 8003848:	682b      	ldr	r3, [r5, #0]
 800384a:	f44f 7248 	mov.w	r2, #800	; 0x320
 800384e:	635a      	str	r2, [r3, #52]	; 0x34
 8003850:	f240 52dc 	movw	r2, #1500	; 0x5dc
 8003854:	63da      	str	r2, [r3, #60]	; 0x3c
 8003856:	2301      	movs	r3, #1
 8003858:	7023      	strb	r3, [r4, #0]
 800385a:	e9d7 0100 	ldrd	r0, r1, [r7]
 800385e:	f7fd f97b 	bl	8000b58 <__aeabi_d2iz>
 8003862:	2823      	cmp	r0, #35	; 0x23
 8003864:	4602      	mov	r2, r0
 8003866:	dc0d      	bgt.n	8003884 <turn+0xb4>
 8003868:	4641      	mov	r1, r8
 800386a:	4668      	mov	r0, sp
 800386c:	f006 fea0 	bl	800a5b0 <siprintf>
 8003870:	466a      	mov	r2, sp
 8003872:	2114      	movs	r1, #20
 8003874:	200a      	movs	r0, #10
 8003876:	f005 ff33 	bl	80096e0 <OLED_ShowString>
 800387a:	f005 fe95 	bl	80095a8 <OLED_Refresh_Gram>
 800387e:	7823      	ldrb	r3, [r4, #0]
 8003880:	2b00      	cmp	r3, #0
 8003882:	d1ea      	bne.n	800385a <turn+0x8a>
 8003884:	6833      	ldr	r3, [r6, #0]
 8003886:	f8df 8184 	ldr.w	r8, [pc, #388]	; 8003a0c <turn+0x23c>
 800388a:	2264      	movs	r2, #100	; 0x64
 800388c:	641a      	str	r2, [r3, #64]	; 0x40
 800388e:	682b      	ldr	r3, [r5, #0]
 8003890:	f44f 727a 	mov.w	r2, #1000	; 0x3e8
 8003894:	635a      	str	r2, [r3, #52]	; 0x34
 8003896:	f44f 62fa 	mov.w	r2, #2000	; 0x7d0
 800389a:	63da      	str	r2, [r3, #60]	; 0x3c
 800389c:	7823      	ldrb	r3, [r4, #0]
 800389e:	bb23      	cbnz	r3, 80038ea <turn+0x11a>
 80038a0:	6833      	ldr	r3, [r6, #0]
 80038a2:	6829      	ldr	r1, [r5, #0]
 80038a4:	4856      	ldr	r0, [pc, #344]	; (8003a00 <turn+0x230>)
 80038a6:	2500      	movs	r5, #0
 80038a8:	2293      	movs	r2, #147	; 0x93
 80038aa:	641a      	str	r2, [r3, #64]	; 0x40
 80038ac:	634d      	str	r5, [r1, #52]	; 0x34
 80038ae:	63cd      	str	r5, [r1, #60]	; 0x3c
 80038b0:	641a      	str	r2, [r3, #64]	; 0x40
 80038b2:	2108      	movs	r1, #8
 80038b4:	2201      	movs	r2, #1
 80038b6:	7025      	strb	r5, [r4, #0]
 80038b8:	f001 faa0 	bl	8004dfc <HAL_GPIO_WritePin>
 80038bc:	462a      	mov	r2, r5
 80038be:	4850      	ldr	r0, [pc, #320]	; (8003a00 <turn+0x230>)
 80038c0:	2104      	movs	r1, #4
 80038c2:	f001 fa9b 	bl	8004dfc <HAL_GPIO_WritePin>
 80038c6:	484f      	ldr	r0, [pc, #316]	; (8003a04 <turn+0x234>)
 80038c8:	2201      	movs	r2, #1
 80038ca:	f44f 5180 	mov.w	r1, #4096	; 0x1000
 80038ce:	f001 fa95 	bl	8004dfc <HAL_GPIO_WritePin>
 80038d2:	462a      	mov	r2, r5
 80038d4:	2120      	movs	r1, #32
 80038d6:	484c      	ldr	r0, [pc, #304]	; (8003a08 <turn+0x238>)
 80038d8:	f001 fa90 	bl	8004dfc <HAL_GPIO_WritePin>
 80038dc:	f44f 707a 	mov.w	r0, #1000	; 0x3e8
 80038e0:	f004 f8c9 	bl	8007a76 <osDelay>
 80038e4:	b00b      	add	sp, #44	; 0x2c
 80038e6:	e8bd 8ff0 	ldmia.w	sp!, {r4, r5, r6, r7, r8, r9, sl, fp, pc}
 80038ea:	e9d7 0100 	ldrd	r0, r1, [r7]
 80038ee:	f7fd f933 	bl	8000b58 <__aeabi_d2iz>
 80038f2:	2853      	cmp	r0, #83	; 0x53
 80038f4:	4602      	mov	r2, r0
 80038f6:	dcd3      	bgt.n	80038a0 <turn+0xd0>
 80038f8:	4641      	mov	r1, r8
 80038fa:	4668      	mov	r0, sp
 80038fc:	f006 fe58 	bl	800a5b0 <siprintf>
 8003900:	466a      	mov	r2, sp
 8003902:	2114      	movs	r1, #20
 8003904:	200a      	movs	r0, #10
 8003906:	f005 feeb 	bl	80096e0 <OLED_ShowString>
 800390a:	f005 fe4d 	bl	80095a8 <OLED_Refresh_Gram>
 800390e:	e7c5      	b.n	800389c <turn+0xcc>
 8003910:	2001      	movs	r0, #1
 8003912:	eeb0 0a00 	vmov.f32	s0, #0	; 0x40000000  2.0
 8003916:	f7fe fa03 	bl	8001d20 <move>
 800391a:	6833      	ldr	r3, [r6, #0]
 800391c:	f8df 80ec 	ldr.w	r8, [pc, #236]	; 8003a0c <turn+0x23c>
 8003920:	22c8      	movs	r2, #200	; 0xc8
 8003922:	641a      	str	r2, [r3, #64]	; 0x40
 8003924:	2064      	movs	r0, #100	; 0x64
 8003926:	f004 f8a6 	bl	8007a76 <osDelay>
 800392a:	682b      	ldr	r3, [r5, #0]
 800392c:	f44f 62fa 	mov.w	r2, #2000	; 0x7d0
 8003930:	635a      	str	r2, [r3, #52]	; 0x34
 8003932:	63da      	str	r2, [r3, #60]	; 0x3c
 8003934:	2301      	movs	r3, #1
 8003936:	7023      	strb	r3, [r4, #0]
 8003938:	e9d7 0100 	ldrd	r0, r1, [r7]
 800393c:	f7fd f90c 	bl	8000b58 <__aeabi_d2iz>
 8003940:	f110 0f40 	cmn.w	r0, #64	; 0x40
 8003944:	4602      	mov	r2, r0
 8003946:	db0d      	blt.n	8003964 <turn+0x194>
 8003948:	4641      	mov	r1, r8
 800394a:	4668      	mov	r0, sp
 800394c:	f006 fe30 	bl	800a5b0 <siprintf>
 8003950:	466a      	mov	r2, sp
 8003952:	2114      	movs	r1, #20
 8003954:	200a      	movs	r0, #10
 8003956:	f005 fec3 	bl	80096e0 <OLED_ShowString>
 800395a:	f005 fe25 	bl	80095a8 <OLED_Refresh_Gram>
 800395e:	7823      	ldrb	r3, [r4, #0]
 8003960:	2b00      	cmp	r3, #0
 8003962:	d1e9      	bne.n	8003938 <turn+0x168>
 8003964:	6833      	ldr	r3, [r6, #0]
 8003966:	2293      	movs	r2, #147	; 0x93
 8003968:	641a      	str	r2, [r3, #64]	; 0x40
 800396a:	682b      	ldr	r3, [r5, #0]
 800396c:	f04f 0800 	mov.w	r8, #0
 8003970:	f8c3 8034 	str.w	r8, [r3, #52]	; 0x34
 8003974:	2064      	movs	r0, #100	; 0x64
 8003976:	f8c3 803c 	str.w	r8, [r3, #60]	; 0x3c
 800397a:	f004 f87c 	bl	8007a76 <osDelay>
 800397e:	4640      	mov	r0, r8
 8003980:	eeb2 0a04 	vmov.f32	s0, #36	; 0x41200000  10.0
 8003984:	f7fe f9cc 	bl	8001d20 <move>
 8003988:	6833      	ldr	r3, [r6, #0]
 800398a:	f8df 8080 	ldr.w	r8, [pc, #128]	; 8003a0c <turn+0x23c>
 800398e:	f44f 7287 	mov.w	r2, #270	; 0x10e
 8003992:	641a      	str	r2, [r3, #64]	; 0x40
 8003994:	2064      	movs	r0, #100	; 0x64
 8003996:	f004 f86e 	bl	8007a76 <osDelay>
 800399a:	2301      	movs	r3, #1
 800399c:	7023      	strb	r3, [r4, #0]
 800399e:	682b      	ldr	r3, [r5, #0]
 80039a0:	f44f 62fa 	mov.w	r2, #2000	; 0x7d0
 80039a4:	635a      	str	r2, [r3, #52]	; 0x34
 80039a6:	f44f 7248 	mov.w	r2, #800	; 0x320
 80039aa:	63da      	str	r2, [r3, #60]	; 0x3c
 80039ac:	e9d7 0100 	ldrd	r0, r1, [r7]
 80039b0:	f7fd f8d2 	bl	8000b58 <__aeabi_d2iz>
 80039b4:	f110 0f15 	cmn.w	r0, #21
 80039b8:	4602      	mov	r2, r0
 80039ba:	db0d      	blt.n	80039d8 <turn+0x208>
 80039bc:	4641      	mov	r1, r8
 80039be:	4668      	mov	r0, sp
 80039c0:	f006 fdf6 	bl	800a5b0 <siprintf>
 80039c4:	466a      	mov	r2, sp
 80039c6:	2114      	movs	r1, #20
 80039c8:	200a      	movs	r0, #10
 80039ca:	f005 fe89 	bl	80096e0 <OLED_ShowString>
 80039ce:	f005 fdeb 	bl	80095a8 <OLED_Refresh_Gram>
 80039d2:	7823      	ldrb	r3, [r4, #0]
 80039d4:	2b00      	cmp	r3, #0
 80039d6:	d1e9      	bne.n	80039ac <turn+0x1dc>
 80039d8:	6833      	ldr	r3, [r6, #0]
 80039da:	2293      	movs	r2, #147	; 0x93
 80039dc:	641a      	str	r2, [r3, #64]	; 0x40
 80039de:	682b      	ldr	r3, [r5, #0]
 80039e0:	2000      	movs	r0, #0
 80039e2:	6358      	str	r0, [r3, #52]	; 0x34
 80039e4:	eeb1 0a0c 	vmov.f32	s0, #28	; 0x40e00000  7.0
 80039e8:	63d8      	str	r0, [r3, #60]	; 0x3c
 80039ea:	f7fe f999 	bl	8001d20 <move>
 80039ee:	e757      	b.n	80038a0 <turn+0xd0>
 80039f0:	200003c4 	.word	0x200003c4
 80039f4:	200002a4 	.word	0x200002a4
 80039f8:	20000455 	.word	0x20000455
 80039fc:	20000458 	.word	0x20000458
 8003a00:	40020000 	.word	0x40020000
 8003a04:	40021000 	.word	0x40021000
 8003a08:	40020800 	.word	0x40020800
 8003a0c:	0800e1bc 	.word	0x0800e1bc
 8003a10:	4890      	ldr	r0, [pc, #576]	; (8003c54 <turn+0x484>)
 8003a12:	4642      	mov	r2, r8
 8003a14:	2108      	movs	r1, #8
 8003a16:	f001 f9f1 	bl	8004dfc <HAL_GPIO_WritePin>
 8003a1a:	488e      	ldr	r0, [pc, #568]	; (8003c54 <turn+0x484>)
 8003a1c:	2201      	movs	r2, #1
 8003a1e:	2104      	movs	r1, #4
 8003a20:	f001 f9ec 	bl	8004dfc <HAL_GPIO_WritePin>
 8003a24:	488c      	ldr	r0, [pc, #560]	; (8003c58 <turn+0x488>)
 8003a26:	4642      	mov	r2, r8
 8003a28:	f44f 5180 	mov.w	r1, #4096	; 0x1000
 8003a2c:	f001 f9e6 	bl	8004dfc <HAL_GPIO_WritePin>
 8003a30:	488a      	ldr	r0, [pc, #552]	; (8003c5c <turn+0x48c>)
 8003a32:	2201      	movs	r2, #1
 8003a34:	2120      	movs	r1, #32
 8003a36:	f001 f9e1 	bl	8004dfc <HAL_GPIO_WritePin>
 8003a3a:	6833      	ldr	r3, [r6, #0]
 8003a3c:	f1b9 0f00 	cmp.w	r9, #0
 8003a40:	f000 8083 	beq.w	8003b4a <turn+0x37a>
 8003a44:	2264      	movs	r2, #100	; 0x64
 8003a46:	641a      	str	r2, [r3, #64]	; 0x40
 8003a48:	682b      	ldr	r3, [r5, #0]
 8003a4a:	f8df b218 	ldr.w	fp, [pc, #536]	; 8003c64 <turn+0x494>
 8003a4e:	f44f 62fa 	mov.w	r2, #2000	; 0x7d0
 8003a52:	635a      	str	r2, [r3, #52]	; 0x34
 8003a54:	f640 12c4 	movw	r2, #2500	; 0x9c4
 8003a58:	63da      	str	r2, [r3, #60]	; 0x3c
 8003a5a:	2301      	movs	r3, #1
 8003a5c:	7023      	strb	r3, [r4, #0]
 8003a5e:	f04f 0a00 	mov.w	sl, #0
 8003a62:	e9d7 8900 	ldrd	r8, r9, [r7]
 8003a66:	4652      	mov	r2, sl
 8003a68:	465b      	mov	r3, fp
 8003a6a:	4640      	mov	r0, r8
 8003a6c:	4649      	mov	r1, r9
 8003a6e:	f7fd f835 	bl	8000adc <__aeabi_dcmplt>
 8003a72:	b990      	cbnz	r0, 8003a9a <turn+0x2ca>
 8003a74:	4649      	mov	r1, r9
 8003a76:	4640      	mov	r0, r8
 8003a78:	f7fd f86e 	bl	8000b58 <__aeabi_d2iz>
 8003a7c:	4978      	ldr	r1, [pc, #480]	; (8003c60 <turn+0x490>)
 8003a7e:	4602      	mov	r2, r0
 8003a80:	4668      	mov	r0, sp
 8003a82:	f006 fd95 	bl	800a5b0 <siprintf>
 8003a86:	466a      	mov	r2, sp
 8003a88:	2114      	movs	r1, #20
 8003a8a:	200a      	movs	r0, #10
 8003a8c:	f005 fe28 	bl	80096e0 <OLED_ShowString>
 8003a90:	f005 fd8a 	bl	80095a8 <OLED_Refresh_Gram>
 8003a94:	7823      	ldrb	r3, [r4, #0]
 8003a96:	2b00      	cmp	r3, #0
 8003a98:	d1e3      	bne.n	8003a62 <turn+0x292>
 8003a9a:	6833      	ldr	r3, [r6, #0]
 8003a9c:	f8df b1c8 	ldr.w	fp, [pc, #456]	; 8003c68 <turn+0x498>
 8003aa0:	2293      	movs	r2, #147	; 0x93
 8003aa2:	641a      	str	r2, [r3, #64]	; 0x40
 8003aa4:	682b      	ldr	r3, [r5, #0]
 8003aa6:	f04f 0800 	mov.w	r8, #0
 8003aaa:	f8c3 8034 	str.w	r8, [r3, #52]	; 0x34
 8003aae:	f44f 70fa 	mov.w	r0, #500	; 0x1f4
 8003ab2:	f8c3 803c 	str.w	r8, [r3, #60]	; 0x3c
 8003ab6:	f003 ffde 	bl	8007a76 <osDelay>
 8003aba:	eeb3 0a09 	vmov.f32	s0, #57	; 0x41c80000  25.0
 8003abe:	2001      	movs	r0, #1
 8003ac0:	f7fe f92e 	bl	8001d20 <move>
 8003ac4:	4863      	ldr	r0, [pc, #396]	; (8003c54 <turn+0x484>)
 8003ac6:	4642      	mov	r2, r8
 8003ac8:	2108      	movs	r1, #8
 8003aca:	f001 f997 	bl	8004dfc <HAL_GPIO_WritePin>
 8003ace:	4861      	ldr	r0, [pc, #388]	; (8003c54 <turn+0x484>)
 8003ad0:	2201      	movs	r2, #1
 8003ad2:	2104      	movs	r1, #4
 8003ad4:	f001 f992 	bl	8004dfc <HAL_GPIO_WritePin>
 8003ad8:	485f      	ldr	r0, [pc, #380]	; (8003c58 <turn+0x488>)
 8003ada:	4642      	mov	r2, r8
 8003adc:	f44f 5180 	mov.w	r1, #4096	; 0x1000
 8003ae0:	f001 f98c 	bl	8004dfc <HAL_GPIO_WritePin>
 8003ae4:	485d      	ldr	r0, [pc, #372]	; (8003c5c <turn+0x48c>)
 8003ae6:	2201      	movs	r2, #1
 8003ae8:	2120      	movs	r1, #32
 8003aea:	f001 f987 	bl	8004dfc <HAL_GPIO_WritePin>
 8003aee:	6833      	ldr	r3, [r6, #0]
 8003af0:	227a      	movs	r2, #122	; 0x7a
 8003af2:	641a      	str	r2, [r3, #64]	; 0x40
 8003af4:	2064      	movs	r0, #100	; 0x64
 8003af6:	f003 ffbe 	bl	8007a76 <osDelay>
 8003afa:	2301      	movs	r3, #1
 8003afc:	7023      	strb	r3, [r4, #0]
 8003afe:	682b      	ldr	r3, [r5, #0]
 8003b00:	f44f 62fa 	mov.w	r2, #2000	; 0x7d0
 8003b04:	635a      	str	r2, [r3, #52]	; 0x34
 8003b06:	f04f 0a00 	mov.w	sl, #0
 8003b0a:	63da      	str	r2, [r3, #60]	; 0x3c
 8003b0c:	e9d7 8900 	ldrd	r8, r9, [r7]
 8003b10:	4652      	mov	r2, sl
 8003b12:	465b      	mov	r3, fp
 8003b14:	4640      	mov	r0, r8
 8003b16:	4649      	mov	r1, r9
 8003b18:	f7fc ffe0 	bl	8000adc <__aeabi_dcmplt>
 8003b1c:	2800      	cmp	r0, #0
 8003b1e:	f47f aebf 	bne.w	80038a0 <turn+0xd0>
 8003b22:	4649      	mov	r1, r9
 8003b24:	4640      	mov	r0, r8
 8003b26:	f7fd f817 	bl	8000b58 <__aeabi_d2iz>
 8003b2a:	494d      	ldr	r1, [pc, #308]	; (8003c60 <turn+0x490>)
 8003b2c:	4602      	mov	r2, r0
 8003b2e:	4668      	mov	r0, sp
 8003b30:	f006 fd3e 	bl	800a5b0 <siprintf>
 8003b34:	466a      	mov	r2, sp
 8003b36:	2114      	movs	r1, #20
 8003b38:	200a      	movs	r0, #10
 8003b3a:	f005 fdd1 	bl	80096e0 <OLED_ShowString>
 8003b3e:	f005 fd33 	bl	80095a8 <OLED_Refresh_Gram>
 8003b42:	7823      	ldrb	r3, [r4, #0]
 8003b44:	2b00      	cmp	r3, #0
 8003b46:	d1e1      	bne.n	8003b0c <turn+0x33c>
 8003b48:	e6aa      	b.n	80038a0 <turn+0xd0>
 8003b4a:	f44f 7287 	mov.w	r2, #270	; 0x10e
 8003b4e:	641a      	str	r2, [r3, #64]	; 0x40
 8003b50:	682b      	ldr	r3, [r5, #0]
 8003b52:	f8df b118 	ldr.w	fp, [pc, #280]	; 8003c6c <turn+0x49c>
 8003b56:	f240 52dc 	movw	r2, #1500	; 0x5dc
 8003b5a:	635a      	str	r2, [r3, #52]	; 0x34
 8003b5c:	63da      	str	r2, [r3, #60]	; 0x3c
 8003b5e:	2301      	movs	r3, #1
 8003b60:	7023      	strb	r3, [r4, #0]
 8003b62:	f04f 0a00 	mov.w	sl, #0
 8003b66:	e9d7 8900 	ldrd	r8, r9, [r7]
 8003b6a:	4652      	mov	r2, sl
 8003b6c:	465b      	mov	r3, fp
 8003b6e:	4640      	mov	r0, r8
 8003b70:	4649      	mov	r1, r9
 8003b72:	f7fc ffc7 	bl	8000b04 <__aeabi_dcmpge>
 8003b76:	b990      	cbnz	r0, 8003b9e <turn+0x3ce>
 8003b78:	4649      	mov	r1, r9
 8003b7a:	4640      	mov	r0, r8
 8003b7c:	f7fc ffec 	bl	8000b58 <__aeabi_d2iz>
 8003b80:	4937      	ldr	r1, [pc, #220]	; (8003c60 <turn+0x490>)
 8003b82:	4602      	mov	r2, r0
 8003b84:	4668      	mov	r0, sp
 8003b86:	f006 fd13 	bl	800a5b0 <siprintf>
 8003b8a:	466a      	mov	r2, sp
 8003b8c:	2114      	movs	r1, #20
 8003b8e:	200a      	movs	r0, #10
 8003b90:	f005 fda6 	bl	80096e0 <OLED_ShowString>
 8003b94:	f005 fd08 	bl	80095a8 <OLED_Refresh_Gram>
 8003b98:	7823      	ldrb	r3, [r4, #0]
 8003b9a:	2b00      	cmp	r3, #0
 8003b9c:	d1e3      	bne.n	8003b66 <turn+0x396>
 8003b9e:	6833      	ldr	r3, [r6, #0]
 8003ba0:	f8df b0cc 	ldr.w	fp, [pc, #204]	; 8003c70 <turn+0x4a0>
 8003ba4:	2293      	movs	r2, #147	; 0x93
 8003ba6:	641a      	str	r2, [r3, #64]	; 0x40
 8003ba8:	682b      	ldr	r3, [r5, #0]
 8003baa:	f04f 0800 	mov.w	r8, #0
 8003bae:	f8c3 8034 	str.w	r8, [r3, #52]	; 0x34
 8003bb2:	f44f 70fa 	mov.w	r0, #500	; 0x1f4
 8003bb6:	f8c3 803c 	str.w	r8, [r3, #60]	; 0x3c
 8003bba:	f003 ff5c 	bl	8007a76 <osDelay>
 8003bbe:	eeb3 0a09 	vmov.f32	s0, #57	; 0x41c80000  25.0
 8003bc2:	2001      	movs	r0, #1
 8003bc4:	f7fe f8ac 	bl	8001d20 <move>
 8003bc8:	4822      	ldr	r0, [pc, #136]	; (8003c54 <turn+0x484>)
 8003bca:	4642      	mov	r2, r8
 8003bcc:	2108      	movs	r1, #8
 8003bce:	f001 f915 	bl	8004dfc <HAL_GPIO_WritePin>
 8003bd2:	4820      	ldr	r0, [pc, #128]	; (8003c54 <turn+0x484>)
 8003bd4:	2201      	movs	r2, #1
 8003bd6:	2104      	movs	r1, #4
 8003bd8:	f001 f910 	bl	8004dfc <HAL_GPIO_WritePin>
 8003bdc:	481e      	ldr	r0, [pc, #120]	; (8003c58 <turn+0x488>)
 8003bde:	4642      	mov	r2, r8
 8003be0:	f44f 5180 	mov.w	r1, #4096	; 0x1000
 8003be4:	f001 f90a 	bl	8004dfc <HAL_GPIO_WritePin>
 8003be8:	481c      	ldr	r0, [pc, #112]	; (8003c5c <turn+0x48c>)
 8003bea:	2201      	movs	r2, #1
 8003bec:	2120      	movs	r1, #32
 8003bee:	f001 f905 	bl	8004dfc <HAL_GPIO_WritePin>
 8003bf2:	6833      	ldr	r3, [r6, #0]
 8003bf4:	22b4      	movs	r2, #180	; 0xb4
 8003bf6:	641a      	str	r2, [r3, #64]	; 0x40
 8003bf8:	2064      	movs	r0, #100	; 0x64
 8003bfa:	f003 ff3c 	bl	8007a76 <osDelay>
 8003bfe:	2301      	movs	r3, #1
 8003c00:	7023      	strb	r3, [r4, #0]
 8003c02:	682b      	ldr	r3, [r5, #0]
 8003c04:	f44f 62af 	mov.w	r2, #1400	; 0x578
 8003c08:	635a      	str	r2, [r3, #52]	; 0x34
 8003c0a:	f44f 727a 	mov.w	r2, #1000	; 0x3e8
 8003c0e:	63da      	str	r2, [r3, #60]	; 0x3c
 8003c10:	f04f 0a00 	mov.w	sl, #0
 8003c14:	e9d7 8900 	ldrd	r8, r9, [r7]
 8003c18:	4652      	mov	r2, sl
 8003c1a:	465b      	mov	r3, fp
 8003c1c:	4640      	mov	r0, r8
 8003c1e:	4649      	mov	r1, r9
 8003c20:	f7fc ff70 	bl	8000b04 <__aeabi_dcmpge>
 8003c24:	2800      	cmp	r0, #0
 8003c26:	f47f ae3b 	bne.w	80038a0 <turn+0xd0>
 8003c2a:	4649      	mov	r1, r9
 8003c2c:	4640      	mov	r0, r8
 8003c2e:	f7fc ff93 	bl	8000b58 <__aeabi_d2iz>
 8003c32:	490b      	ldr	r1, [pc, #44]	; (8003c60 <turn+0x490>)
 8003c34:	4602      	mov	r2, r0
 8003c36:	4668      	mov	r0, sp
 8003c38:	f006 fcba 	bl	800a5b0 <siprintf>
 8003c3c:	466a      	mov	r2, sp
 8003c3e:	2114      	movs	r1, #20
 8003c40:	200a      	movs	r0, #10
 8003c42:	f005 fd4d 	bl	80096e0 <OLED_ShowString>
 8003c46:	f005 fcaf 	bl	80095a8 <OLED_Refresh_Gram>
 8003c4a:	7823      	ldrb	r3, [r4, #0]
 8003c4c:	2b00      	cmp	r3, #0
 8003c4e:	d1e1      	bne.n	8003c14 <turn+0x444>
 8003c50:	e626      	b.n	80038a0 <turn+0xd0>
 8003c52:	bf00      	nop
 8003c54:	40020000 	.word	0x40020000
 8003c58:	40021000 	.word	0x40021000
 8003c5c:	40020800 	.word	0x40020800
 8003c60:	0800e1bc 	.word	0x0800e1bc
 8003c64:	c0300000 	.word	0xc0300000
 8003c68:	c04f0000 	.word	0xc04f0000
 8003c6c:	402c0000 	.word	0x402c0000
 8003c70:	40524000 	.word	0x40524000

08003c74 <spotTurn>:
 8003c74:	e92d 4ff0 	stmdb	sp!, {r4, r5, r6, r7, r8, r9, sl, fp, lr}
 8003c78:	4da5      	ldr	r5, [pc, #660]	; (8003f10 <spotTurn+0x29c>)
 8003c7a:	4ea6      	ldr	r6, [pc, #664]	; (8003f14 <spotTurn+0x2a0>)
 8003c7c:	4ca6      	ldr	r4, [pc, #664]	; (8003f18 <spotTurn+0x2a4>)
 8003c7e:	4fa7      	ldr	r7, [pc, #668]	; (8003f1c <spotTurn+0x2a8>)
 8003c80:	b08b      	sub	sp, #44	; 0x2c
 8003c82:	2100      	movs	r1, #0
 8003c84:	4680      	mov	r8, r0
 8003c86:	4628      	mov	r0, r5
 8003c88:	f003 fa68 	bl	800715c <HAL_TIM_PWM_Start>
 8003c8c:	2108      	movs	r1, #8
 8003c8e:	4628      	mov	r0, r5
 8003c90:	f003 fa64 	bl	800715c <HAL_TIM_PWM_Start>
 8003c94:	210c      	movs	r1, #12
 8003c96:	4630      	mov	r0, r6
 8003c98:	f003 fa60 	bl	800715c <HAL_TIM_PWM_Start>
 8003c9c:	6833      	ldr	r3, [r6, #0]
 8003c9e:	48a0      	ldr	r0, [pc, #640]	; (8003f20 <spotTurn+0x2ac>)
 8003ca0:	2293      	movs	r2, #147	; 0x93
 8003ca2:	641a      	str	r2, [r3, #64]	; 0x40
 8003ca4:	2108      	movs	r1, #8
 8003ca6:	2201      	movs	r2, #1
 8003ca8:	f1b8 0f00 	cmp.w	r8, #0
 8003cac:	f000 8148 	beq.w	8003f40 <spotTurn+0x2cc>
 8003cb0:	f001 f8a4 	bl	8004dfc <HAL_GPIO_WritePin>
 8003cb4:	489a      	ldr	r0, [pc, #616]	; (8003f20 <spotTurn+0x2ac>)
 8003cb6:	f8df b278 	ldr.w	fp, [pc, #632]	; 8003f30 <spotTurn+0x2bc>
 8003cba:	2200      	movs	r2, #0
 8003cbc:	2104      	movs	r1, #4
 8003cbe:	f001 f89d 	bl	8004dfc <HAL_GPIO_WritePin>
 8003cc2:	4898      	ldr	r0, [pc, #608]	; (8003f24 <spotTurn+0x2b0>)
 8003cc4:	2201      	movs	r2, #1
 8003cc6:	f44f 5180 	mov.w	r1, #4096	; 0x1000
 8003cca:	f001 f897 	bl	8004dfc <HAL_GPIO_WritePin>
 8003cce:	2200      	movs	r2, #0
 8003cd0:	4895      	ldr	r0, [pc, #596]	; (8003f28 <spotTurn+0x2b4>)
 8003cd2:	2120      	movs	r1, #32
 8003cd4:	f001 f892 	bl	8004dfc <HAL_GPIO_WritePin>
 8003cd8:	6833      	ldr	r3, [r6, #0]
 8003cda:	2264      	movs	r2, #100	; 0x64
 8003cdc:	641a      	str	r2, [r3, #64]	; 0x40
 8003cde:	682b      	ldr	r3, [r5, #0]
 8003ce0:	f44f 7248 	mov.w	r2, #800	; 0x320
 8003ce4:	635a      	str	r2, [r3, #52]	; 0x34
 8003ce6:	f240 52dc 	movw	r2, #1500	; 0x5dc
 8003cea:	63da      	str	r2, [r3, #60]	; 0x3c
 8003cec:	2301      	movs	r3, #1
 8003cee:	7023      	strb	r3, [r4, #0]
 8003cf0:	f04f 0a00 	mov.w	sl, #0
 8003cf4:	e9d7 8900 	ldrd	r8, r9, [r7]
 8003cf8:	4652      	mov	r2, sl
 8003cfa:	465b      	mov	r3, fp
 8003cfc:	4640      	mov	r0, r8
 8003cfe:	4649      	mov	r1, r9
 8003d00:	f7fc ff00 	bl	8000b04 <__aeabi_dcmpge>
 8003d04:	b990      	cbnz	r0, 8003d2c <spotTurn+0xb8>
 8003d06:	4649      	mov	r1, r9
 8003d08:	4640      	mov	r0, r8
 8003d0a:	f7fc ff25 	bl	8000b58 <__aeabi_d2iz>
 8003d0e:	4987      	ldr	r1, [pc, #540]	; (8003f2c <spotTurn+0x2b8>)
 8003d10:	4602      	mov	r2, r0
 8003d12:	4668      	mov	r0, sp
 8003d14:	f006 fc4c 	bl	800a5b0 <siprintf>
 8003d18:	466a      	mov	r2, sp
 8003d1a:	2114      	movs	r1, #20
 8003d1c:	200a      	movs	r0, #10
 8003d1e:	f005 fcdf 	bl	80096e0 <OLED_ShowString>
 8003d22:	f005 fc41 	bl	80095a8 <OLED_Refresh_Gram>
 8003d26:	7823      	ldrb	r3, [r4, #0]
 8003d28:	2b00      	cmp	r3, #0
 8003d2a:	d1e3      	bne.n	8003cf4 <spotTurn+0x80>
 8003d2c:	487c      	ldr	r0, [pc, #496]	; (8003f20 <spotTurn+0x2ac>)
 8003d2e:	f8df b204 	ldr.w	fp, [pc, #516]	; 8003f34 <spotTurn+0x2c0>
 8003d32:	2200      	movs	r2, #0
 8003d34:	2108      	movs	r1, #8
 8003d36:	f001 f861 	bl	8004dfc <HAL_GPIO_WritePin>
 8003d3a:	4879      	ldr	r0, [pc, #484]	; (8003f20 <spotTurn+0x2ac>)
 8003d3c:	2201      	movs	r2, #1
 8003d3e:	2104      	movs	r1, #4
 8003d40:	f001 f85c 	bl	8004dfc <HAL_GPIO_WritePin>
 8003d44:	4877      	ldr	r0, [pc, #476]	; (8003f24 <spotTurn+0x2b0>)
 8003d46:	2200      	movs	r2, #0
 8003d48:	f44f 5180 	mov.w	r1, #4096	; 0x1000
 8003d4c:	f001 f856 	bl	8004dfc <HAL_GPIO_WritePin>
 8003d50:	2201      	movs	r2, #1
 8003d52:	4875      	ldr	r0, [pc, #468]	; (8003f28 <spotTurn+0x2b4>)
 8003d54:	2120      	movs	r1, #32
 8003d56:	f001 f851 	bl	8004dfc <HAL_GPIO_WritePin>
 8003d5a:	6833      	ldr	r3, [r6, #0]
 8003d5c:	f44f 7287 	mov.w	r2, #270	; 0x10e
 8003d60:	641a      	str	r2, [r3, #64]	; 0x40
 8003d62:	682b      	ldr	r3, [r5, #0]
 8003d64:	f240 52dc 	movw	r2, #1500	; 0x5dc
 8003d68:	635a      	str	r2, [r3, #52]	; 0x34
 8003d6a:	f44f 72fa 	mov.w	r2, #500	; 0x1f4
 8003d6e:	63da      	str	r2, [r3, #60]	; 0x3c
 8003d70:	f04f 0a00 	mov.w	sl, #0
 8003d74:	7823      	ldrb	r3, [r4, #0]
 8003d76:	2b00      	cmp	r3, #0
 8003d78:	d178      	bne.n	8003e6c <spotTurn+0x1f8>
 8003d7a:	6833      	ldr	r3, [r6, #0]
 8003d7c:	f8df b1b8 	ldr.w	fp, [pc, #440]	; 8003f38 <spotTurn+0x2c4>
 8003d80:	2293      	movs	r2, #147	; 0x93
 8003d82:	641a      	str	r2, [r3, #64]	; 0x40
 8003d84:	682b      	ldr	r3, [r5, #0]
 8003d86:	f04f 0800 	mov.w	r8, #0
 8003d8a:	f8c3 8034 	str.w	r8, [r3, #52]	; 0x34
 8003d8e:	2064      	movs	r0, #100	; 0x64
 8003d90:	f8c3 803c 	str.w	r8, [r3, #60]	; 0x3c
 8003d94:	f003 fe6f 	bl	8007a76 <osDelay>
 8003d98:	eeb1 0a04 	vmov.f32	s0, #20	; 0x40a00000  5.0
 8003d9c:	2001      	movs	r0, #1
 8003d9e:	f7fd ffbf 	bl	8001d20 <move>
 8003da2:	f04f 0901 	mov.w	r9, #1
 8003da6:	2064      	movs	r0, #100	; 0x64
 8003da8:	f003 fe65 	bl	8007a76 <osDelay>
 8003dac:	485c      	ldr	r0, [pc, #368]	; (8003f20 <spotTurn+0x2ac>)
 8003dae:	f884 9000 	strb.w	r9, [r4]
 8003db2:	464a      	mov	r2, r9
 8003db4:	2108      	movs	r1, #8
 8003db6:	f001 f821 	bl	8004dfc <HAL_GPIO_WritePin>
 8003dba:	4859      	ldr	r0, [pc, #356]	; (8003f20 <spotTurn+0x2ac>)
 8003dbc:	4642      	mov	r2, r8
 8003dbe:	2104      	movs	r1, #4
 8003dc0:	f001 f81c 	bl	8004dfc <HAL_GPIO_WritePin>
 8003dc4:	4857      	ldr	r0, [pc, #348]	; (8003f24 <spotTurn+0x2b0>)
 8003dc6:	464a      	mov	r2, r9
 8003dc8:	f44f 5180 	mov.w	r1, #4096	; 0x1000
 8003dcc:	f001 f816 	bl	8004dfc <HAL_GPIO_WritePin>
 8003dd0:	4642      	mov	r2, r8
 8003dd2:	4855      	ldr	r0, [pc, #340]	; (8003f28 <spotTurn+0x2b4>)
 8003dd4:	2120      	movs	r1, #32
 8003dd6:	f001 f811 	bl	8004dfc <HAL_GPIO_WritePin>
 8003dda:	6833      	ldr	r3, [r6, #0]
 8003ddc:	2264      	movs	r2, #100	; 0x64
 8003dde:	641a      	str	r2, [r3, #64]	; 0x40
 8003de0:	682b      	ldr	r3, [r5, #0]
 8003de2:	f44f 7248 	mov.w	r2, #800	; 0x320
 8003de6:	635a      	str	r2, [r3, #52]	; 0x34
 8003de8:	f240 52dc 	movw	r2, #1500	; 0x5dc
 8003dec:	63da      	str	r2, [r3, #60]	; 0x3c
 8003dee:	f04f 0a00 	mov.w	sl, #0
 8003df2:	7823      	ldrb	r3, [r4, #0]
 8003df4:	2b00      	cmp	r3, #0
 8003df6:	d155      	bne.n	8003ea4 <spotTurn+0x230>
 8003df8:	4849      	ldr	r0, [pc, #292]	; (8003f20 <spotTurn+0x2ac>)
 8003dfa:	f8df b140 	ldr.w	fp, [pc, #320]	; 8003f3c <spotTurn+0x2c8>
 8003dfe:	2200      	movs	r2, #0
 8003e00:	2108      	movs	r1, #8
 8003e02:	f000 fffb 	bl	8004dfc <HAL_GPIO_WritePin>
 8003e06:	4846      	ldr	r0, [pc, #280]	; (8003f20 <spotTurn+0x2ac>)
 8003e08:	2201      	movs	r2, #1
 8003e0a:	2104      	movs	r1, #4
 8003e0c:	f000 fff6 	bl	8004dfc <HAL_GPIO_WritePin>
 8003e10:	4844      	ldr	r0, [pc, #272]	; (8003f24 <spotTurn+0x2b0>)
 8003e12:	2200      	movs	r2, #0
 8003e14:	f44f 5180 	mov.w	r1, #4096	; 0x1000
 8003e18:	f000 fff0 	bl	8004dfc <HAL_GPIO_WritePin>
 8003e1c:	2201      	movs	r2, #1
 8003e1e:	4842      	ldr	r0, [pc, #264]	; (8003f28 <spotTurn+0x2b4>)
 8003e20:	2120      	movs	r1, #32
 8003e22:	f000 ffeb 	bl	8004dfc <HAL_GPIO_WritePin>
 8003e26:	6833      	ldr	r3, [r6, #0]
 8003e28:	f44f 7287 	mov.w	r2, #270	; 0x10e
 8003e2c:	641a      	str	r2, [r3, #64]	; 0x40
 8003e2e:	682b      	ldr	r3, [r5, #0]
 8003e30:	f240 52dc 	movw	r2, #1500	; 0x5dc
 8003e34:	635a      	str	r2, [r3, #52]	; 0x34
 8003e36:	f44f 72fa 	mov.w	r2, #500	; 0x1f4
 8003e3a:	63da      	str	r2, [r3, #60]	; 0x3c
 8003e3c:	f04f 0a00 	mov.w	sl, #0
 8003e40:	7823      	ldrb	r3, [r4, #0]
 8003e42:	2b00      	cmp	r3, #0
 8003e44:	d149      	bne.n	8003eda <spotTurn+0x266>
 8003e46:	2001      	movs	r0, #1
 8003e48:	eeb0 0a00 	vmov.f32	s0, #0	; 0x40000000  2.0
 8003e4c:	f7fd ff68 	bl	8001d20 <move>
 8003e50:	6833      	ldr	r3, [r6, #0]
 8003e52:	2293      	movs	r2, #147	; 0x93
 8003e54:	641a      	str	r2, [r3, #64]	; 0x40
 8003e56:	682a      	ldr	r2, [r5, #0]
 8003e58:	2300      	movs	r3, #0
 8003e5a:	6353      	str	r3, [r2, #52]	; 0x34
 8003e5c:	2064      	movs	r0, #100	; 0x64
 8003e5e:	63d3      	str	r3, [r2, #60]	; 0x3c
 8003e60:	7023      	strb	r3, [r4, #0]
 8003e62:	f003 fe08 	bl	8007a76 <osDelay>
 8003e66:	b00b      	add	sp, #44	; 0x2c
 8003e68:	e8bd 8ff0 	ldmia.w	sp!, {r4, r5, r6, r7, r8, r9, sl, fp, pc}
 8003e6c:	e9d7 8900 	ldrd	r8, r9, [r7]
 8003e70:	4652      	mov	r2, sl
 8003e72:	465b      	mov	r3, fp
 8003e74:	4640      	mov	r0, r8
 8003e76:	4649      	mov	r1, r9
 8003e78:	f7fc fe44 	bl	8000b04 <__aeabi_dcmpge>
 8003e7c:	2800      	cmp	r0, #0
 8003e7e:	f47f af7c 	bne.w	8003d7a <spotTurn+0x106>
 8003e82:	4649      	mov	r1, r9
 8003e84:	4640      	mov	r0, r8
 8003e86:	f7fc fe67 	bl	8000b58 <__aeabi_d2iz>
 8003e8a:	4928      	ldr	r1, [pc, #160]	; (8003f2c <spotTurn+0x2b8>)
 8003e8c:	4602      	mov	r2, r0
 8003e8e:	4668      	mov	r0, sp
 8003e90:	f006 fb8e 	bl	800a5b0 <siprintf>
 8003e94:	466a      	mov	r2, sp
 8003e96:	2114      	movs	r1, #20
 8003e98:	200a      	movs	r0, #10
 8003e9a:	f005 fc21 	bl	80096e0 <OLED_ShowString>
 8003e9e:	f005 fb83 	bl	80095a8 <OLED_Refresh_Gram>
 8003ea2:	e767      	b.n	8003d74 <spotTurn+0x100>
 8003ea4:	e9d7 8900 	ldrd	r8, r9, [r7]
 8003ea8:	4652      	mov	r2, sl
 8003eaa:	465b      	mov	r3, fp
 8003eac:	4640      	mov	r0, r8
 8003eae:	4649      	mov	r1, r9
 8003eb0:	f7fc fe28 	bl	8000b04 <__aeabi_dcmpge>
 8003eb4:	2800      	cmp	r0, #0
 8003eb6:	d19f      	bne.n	8003df8 <spotTurn+0x184>
 8003eb8:	4649      	mov	r1, r9
 8003eba:	4640      	mov	r0, r8
 8003ebc:	f7fc fe4c 	bl	8000b58 <__aeabi_d2iz>
 8003ec0:	491a      	ldr	r1, [pc, #104]	; (8003f2c <spotTurn+0x2b8>)
 8003ec2:	4602      	mov	r2, r0
 8003ec4:	4668      	mov	r0, sp
 8003ec6:	f006 fb73 	bl	800a5b0 <siprintf>
 8003eca:	466a      	mov	r2, sp
 8003ecc:	2114      	movs	r1, #20
 8003ece:	200a      	movs	r0, #10
 8003ed0:	f005 fc06 	bl	80096e0 <OLED_ShowString>
 8003ed4:	f005 fb68 	bl	80095a8 <OLED_Refresh_Gram>
 8003ed8:	e78b      	b.n	8003df2 <spotTurn+0x17e>
 8003eda:	e9d7 8900 	ldrd	r8, r9, [r7]
 8003ede:	4652      	mov	r2, sl
 8003ee0:	465b      	mov	r3, fp
 8003ee2:	4640      	mov	r0, r8
 8003ee4:	4649      	mov	r1, r9
 8003ee6:	f7fc fe0d 	bl	8000b04 <__aeabi_dcmpge>
 8003eea:	2800      	cmp	r0, #0
 8003eec:	d1ab      	bne.n	8003e46 <spotTurn+0x1d2>
 8003eee:	4649      	mov	r1, r9
 8003ef0:	4640      	mov	r0, r8
 8003ef2:	f7fc fe31 	bl	8000b58 <__aeabi_d2iz>
 8003ef6:	490d      	ldr	r1, [pc, #52]	; (8003f2c <spotTurn+0x2b8>)
 8003ef8:	4602      	mov	r2, r0
 8003efa:	4668      	mov	r0, sp
 8003efc:	f006 fb58 	bl	800a5b0 <siprintf>
 8003f00:	466a      	mov	r2, sp
 8003f02:	2114      	movs	r1, #20
 8003f04:	200a      	movs	r0, #10
 8003f06:	f005 fbeb 	bl	80096e0 <OLED_ShowString>
 8003f0a:	f005 fb4d 	bl	80095a8 <OLED_Refresh_Gram>
 8003f0e:	e797      	b.n	8003e40 <spotTurn+0x1cc>
 8003f10:	200003c4 	.word	0x200003c4
 8003f14:	200002a4 	.word	0x200002a4
 8003f18:	20000455 	.word	0x20000455
 8003f1c:	20000458 	.word	0x20000458
 8003f20:	40020000 	.word	0x40020000
 8003f24:	40021000 	.word	0x40021000
 8003f28:	40020800 	.word	0x40020800
 8003f2c:	0800e1bc 	.word	0x0800e1bc
 8003f30:	40320000 	.word	0x40320000
 8003f34:	40430000 	.word	0x40430000
 8003f38:	40370000 	.word	0x40370000
 8003f3c:	40490000 	.word	0x40490000
 8003f40:	f000 ff5c 	bl	8004dfc <HAL_GPIO_WritePin>
 8003f44:	488d      	ldr	r0, [pc, #564]	; (800417c <spotTurn+0x508>)
 8003f46:	f8df b244 	ldr.w	fp, [pc, #580]	; 800418c <spotTurn+0x518>
 8003f4a:	4642      	mov	r2, r8
 8003f4c:	2104      	movs	r1, #4
 8003f4e:	f000 ff55 	bl	8004dfc <HAL_GPIO_WritePin>
 8003f52:	488b      	ldr	r0, [pc, #556]	; (8004180 <spotTurn+0x50c>)
 8003f54:	2201      	movs	r2, #1
 8003f56:	f44f 5180 	mov.w	r1, #4096	; 0x1000
 8003f5a:	f000 ff4f 	bl	8004dfc <HAL_GPIO_WritePin>
 8003f5e:	4642      	mov	r2, r8
 8003f60:	4888      	ldr	r0, [pc, #544]	; (8004184 <spotTurn+0x510>)
 8003f62:	2120      	movs	r1, #32
 8003f64:	f000 ff4a 	bl	8004dfc <HAL_GPIO_WritePin>
 8003f68:	6833      	ldr	r3, [r6, #0]
 8003f6a:	f44f 7287 	mov.w	r2, #270	; 0x10e
 8003f6e:	641a      	str	r2, [r3, #64]	; 0x40
 8003f70:	682b      	ldr	r3, [r5, #0]
 8003f72:	f240 52dc 	movw	r2, #1500	; 0x5dc
 8003f76:	635a      	str	r2, [r3, #52]	; 0x34
 8003f78:	f44f 72fa 	mov.w	r2, #500	; 0x1f4
 8003f7c:	63da      	str	r2, [r3, #60]	; 0x3c
 8003f7e:	2301      	movs	r3, #1
 8003f80:	7023      	strb	r3, [r4, #0]
 8003f82:	f04f 0a00 	mov.w	sl, #0
 8003f86:	e9d7 8900 	ldrd	r8, r9, [r7]
 8003f8a:	4652      	mov	r2, sl
 8003f8c:	465b      	mov	r3, fp
 8003f8e:	4640      	mov	r0, r8
 8003f90:	4649      	mov	r1, r9
 8003f92:	f7fc fdad 	bl	8000af0 <__aeabi_dcmple>
 8003f96:	b990      	cbnz	r0, 8003fbe <spotTurn+0x34a>
 8003f98:	4649      	mov	r1, r9
 8003f9a:	4640      	mov	r0, r8
 8003f9c:	f7fc fddc 	bl	8000b58 <__aeabi_d2iz>
 8003fa0:	4979      	ldr	r1, [pc, #484]	; (8004188 <spotTurn+0x514>)
 8003fa2:	4602      	mov	r2, r0
 8003fa4:	4668      	mov	r0, sp
 8003fa6:	f006 fb03 	bl	800a5b0 <siprintf>
 8003faa:	466a      	mov	r2, sp
 8003fac:	2114      	movs	r1, #20
 8003fae:	200a      	movs	r0, #10
 8003fb0:	f005 fb96 	bl	80096e0 <OLED_ShowString>
 8003fb4:	f005 faf8 	bl	80095a8 <OLED_Refresh_Gram>
 8003fb8:	7823      	ldrb	r3, [r4, #0]
 8003fba:	2b00      	cmp	r3, #0
 8003fbc:	d1e3      	bne.n	8003f86 <spotTurn+0x312>
 8003fbe:	486f      	ldr	r0, [pc, #444]	; (800417c <spotTurn+0x508>)
 8003fc0:	f8df b1cc 	ldr.w	fp, [pc, #460]	; 8004190 <spotTurn+0x51c>
 8003fc4:	2200      	movs	r2, #0
 8003fc6:	2108      	movs	r1, #8
 8003fc8:	f000 ff18 	bl	8004dfc <HAL_GPIO_WritePin>
 8003fcc:	486b      	ldr	r0, [pc, #428]	; (800417c <spotTurn+0x508>)
 8003fce:	2201      	movs	r2, #1
 8003fd0:	2104      	movs	r1, #4
 8003fd2:	f000 ff13 	bl	8004dfc <HAL_GPIO_WritePin>
 8003fd6:	486a      	ldr	r0, [pc, #424]	; (8004180 <spotTurn+0x50c>)
 8003fd8:	2200      	movs	r2, #0
 8003fda:	f44f 5180 	mov.w	r1, #4096	; 0x1000
 8003fde:	f000 ff0d 	bl	8004dfc <HAL_GPIO_WritePin>
 8003fe2:	2201      	movs	r2, #1
 8003fe4:	4867      	ldr	r0, [pc, #412]	; (8004184 <spotTurn+0x510>)
 8003fe6:	2120      	movs	r1, #32
 8003fe8:	f000 ff08 	bl	8004dfc <HAL_GPIO_WritePin>
 8003fec:	6833      	ldr	r3, [r6, #0]
 8003fee:	2264      	movs	r2, #100	; 0x64
 8003ff0:	641a      	str	r2, [r3, #64]	; 0x40
 8003ff2:	682b      	ldr	r3, [r5, #0]
 8003ff4:	f44f 7248 	mov.w	r2, #800	; 0x320
 8003ff8:	635a      	str	r2, [r3, #52]	; 0x34
 8003ffa:	f240 52dc 	movw	r2, #1500	; 0x5dc
 8003ffe:	63da      	str	r2, [r3, #60]	; 0x3c
 8004000:	f04f 0a00 	mov.w	sl, #0
 8004004:	7823      	ldrb	r3, [r4, #0]
 8004006:	2b00      	cmp	r3, #0
 8004008:	d166      	bne.n	80040d8 <spotTurn+0x464>
 800400a:	6833      	ldr	r3, [r6, #0]
 800400c:	f8df b184 	ldr.w	fp, [pc, #388]	; 8004194 <spotTurn+0x520>
 8004010:	2293      	movs	r2, #147	; 0x93
 8004012:	641a      	str	r2, [r3, #64]	; 0x40
 8004014:	682b      	ldr	r3, [r5, #0]
 8004016:	f04f 0800 	mov.w	r8, #0
 800401a:	f8c3 8034 	str.w	r8, [r3, #52]	; 0x34
 800401e:	eeb2 0a03 	vmov.f32	s0, #35	; 0x41180000  9.5
 8004022:	f8c3 803c 	str.w	r8, [r3, #60]	; 0x3c
 8004026:	2001      	movs	r0, #1
 8004028:	f7fd fe7a 	bl	8001d20 <move>
 800402c:	f04f 0901 	mov.w	r9, #1
 8004030:	2064      	movs	r0, #100	; 0x64
 8004032:	f003 fd20 	bl	8007a76 <osDelay>
 8004036:	4851      	ldr	r0, [pc, #324]	; (800417c <spotTurn+0x508>)
 8004038:	f884 9000 	strb.w	r9, [r4]
 800403c:	464a      	mov	r2, r9
 800403e:	2108      	movs	r1, #8
 8004040:	f000 fedc 	bl	8004dfc <HAL_GPIO_WritePin>
 8004044:	484d      	ldr	r0, [pc, #308]	; (800417c <spotTurn+0x508>)
 8004046:	4642      	mov	r2, r8
 8004048:	2104      	movs	r1, #4
 800404a:	f000 fed7 	bl	8004dfc <HAL_GPIO_WritePin>
 800404e:	484c      	ldr	r0, [pc, #304]	; (8004180 <spotTurn+0x50c>)
 8004050:	464a      	mov	r2, r9
 8004052:	f44f 5180 	mov.w	r1, #4096	; 0x1000
 8004056:	f000 fed1 	bl	8004dfc <HAL_GPIO_WritePin>
 800405a:	4642      	mov	r2, r8
 800405c:	4849      	ldr	r0, [pc, #292]	; (8004184 <spotTurn+0x510>)
 800405e:	2120      	movs	r1, #32
 8004060:	f000 fecc 	bl	8004dfc <HAL_GPIO_WritePin>
 8004064:	6833      	ldr	r3, [r6, #0]
 8004066:	f44f 7287 	mov.w	r2, #270	; 0x10e
 800406a:	641a      	str	r2, [r3, #64]	; 0x40
 800406c:	682b      	ldr	r3, [r5, #0]
 800406e:	f240 52dc 	movw	r2, #1500	; 0x5dc
 8004072:	635a      	str	r2, [r3, #52]	; 0x34
 8004074:	f44f 72fa 	mov.w	r2, #500	; 0x1f4
 8004078:	63da      	str	r2, [r3, #60]	; 0x3c
 800407a:	f04f 0a00 	mov.w	sl, #0
 800407e:	7823      	ldrb	r3, [r4, #0]
 8004080:	2b00      	cmp	r3, #0
 8004082:	d144      	bne.n	800410e <spotTurn+0x49a>
 8004084:	483d      	ldr	r0, [pc, #244]	; (800417c <spotTurn+0x508>)
 8004086:	f8df b110 	ldr.w	fp, [pc, #272]	; 8004198 <spotTurn+0x524>
 800408a:	2200      	movs	r2, #0
 800408c:	2108      	movs	r1, #8
 800408e:	f000 feb5 	bl	8004dfc <HAL_GPIO_WritePin>
 8004092:	483a      	ldr	r0, [pc, #232]	; (800417c <spotTurn+0x508>)
 8004094:	2201      	movs	r2, #1
 8004096:	2104      	movs	r1, #4
 8004098:	f000 feb0 	bl	8004dfc <HAL_GPIO_WritePin>
 800409c:	4838      	ldr	r0, [pc, #224]	; (8004180 <spotTurn+0x50c>)
 800409e:	2200      	movs	r2, #0
 80040a0:	f44f 5180 	mov.w	r1, #4096	; 0x1000
 80040a4:	f000 feaa 	bl	8004dfc <HAL_GPIO_WritePin>
 80040a8:	2201      	movs	r2, #1
 80040aa:	4836      	ldr	r0, [pc, #216]	; (8004184 <spotTurn+0x510>)
 80040ac:	2120      	movs	r1, #32
 80040ae:	f000 fea5 	bl	8004dfc <HAL_GPIO_WritePin>
 80040b2:	6833      	ldr	r3, [r6, #0]
 80040b4:	2264      	movs	r2, #100	; 0x64
 80040b6:	641a      	str	r2, [r3, #64]	; 0x40
 80040b8:	682b      	ldr	r3, [r5, #0]
 80040ba:	f44f 7248 	mov.w	r2, #800	; 0x320
 80040be:	635a      	str	r2, [r3, #52]	; 0x34
 80040c0:	f240 52dc 	movw	r2, #1500	; 0x5dc
 80040c4:	63da      	str	r2, [r3, #60]	; 0x3c
 80040c6:	f04f 0a00 	mov.w	sl, #0
 80040ca:	7823      	ldrb	r3, [r4, #0]
 80040cc:	2b00      	cmp	r3, #0
 80040ce:	d139      	bne.n	8004144 <spotTurn+0x4d0>
 80040d0:	2000      	movs	r0, #0
 80040d2:	eeb6 0a00 	vmov.f32	s0, #96	; 0x3f000000  0.5
 80040d6:	e6b9      	b.n	8003e4c <spotTurn+0x1d8>
 80040d8:	e9d7 8900 	ldrd	r8, r9, [r7]
 80040dc:	4652      	mov	r2, sl
 80040de:	465b      	mov	r3, fp
 80040e0:	4640      	mov	r0, r8
 80040e2:	4649      	mov	r1, r9
 80040e4:	f7fc fd04 	bl	8000af0 <__aeabi_dcmple>
 80040e8:	2800      	cmp	r0, #0
 80040ea:	d18e      	bne.n	800400a <spotTurn+0x396>
 80040ec:	4649      	mov	r1, r9
 80040ee:	4640      	mov	r0, r8
 80040f0:	f7fc fd32 	bl	8000b58 <__aeabi_d2iz>
 80040f4:	4924      	ldr	r1, [pc, #144]	; (8004188 <spotTurn+0x514>)
 80040f6:	4602      	mov	r2, r0
 80040f8:	4668      	mov	r0, sp
 80040fa:	f006 fa59 	bl	800a5b0 <siprintf>
 80040fe:	466a      	mov	r2, sp
 8004100:	2114      	movs	r1, #20
 8004102:	200a      	movs	r0, #10
 8004104:	f005 faec 	bl	80096e0 <OLED_ShowString>
 8004108:	f005 fa4e 	bl	80095a8 <OLED_Refresh_Gram>
 800410c:	e77a      	b.n	8004004 <spotTurn+0x390>
 800410e:	e9d7 8900 	ldrd	r8, r9, [r7]
 8004112:	4652      	mov	r2, sl
 8004114:	465b      	mov	r3, fp
 8004116:	4640      	mov	r0, r8
 8004118:	4649      	mov	r1, r9
 800411a:	f7fc fce9 	bl	8000af0 <__aeabi_dcmple>
 800411e:	2800      	cmp	r0, #0
 8004120:	d1b0      	bne.n	8004084 <spotTurn+0x410>
 8004122:	4649      	mov	r1, r9
 8004124:	4640      	mov	r0, r8
 8004126:	f7fc fd17 	bl	8000b58 <__aeabi_d2iz>
 800412a:	4917      	ldr	r1, [pc, #92]	; (8004188 <spotTurn+0x514>)
 800412c:	4602      	mov	r2, r0
 800412e:	4668      	mov	r0, sp
 8004130:	f006 fa3e 	bl	800a5b0 <siprintf>
 8004134:	466a      	mov	r2, sp
 8004136:	2114      	movs	r1, #20
 8004138:	200a      	movs	r0, #10
 800413a:	f005 fad1 	bl	80096e0 <OLED_ShowString>
 800413e:	f005 fa33 	bl	80095a8 <OLED_Refresh_Gram>
 8004142:	e79c      	b.n	800407e <spotTurn+0x40a>
 8004144:	e9d7 8900 	ldrd	r8, r9, [r7]
 8004148:	4652      	mov	r2, sl
 800414a:	465b      	mov	r3, fp
 800414c:	4640      	mov	r0, r8
 800414e:	4649      	mov	r1, r9
 8004150:	f7fc fcce 	bl	8000af0 <__aeabi_dcmple>
 8004154:	2800      	cmp	r0, #0
 8004156:	d1bb      	bne.n	80040d0 <spotTurn+0x45c>
 8004158:	4649      	mov	r1, r9
 800415a:	4640      	mov	r0, r8
 800415c:	f7fc fcfc 	bl	8000b58 <__aeabi_d2iz>
 8004160:	4909      	ldr	r1, [pc, #36]	; (8004188 <spotTurn+0x514>)
 8004162:	4602      	mov	r2, r0
 8004164:	4668      	mov	r0, sp
 8004166:	f006 fa23 	bl	800a5b0 <siprintf>
 800416a:	466a      	mov	r2, sp
 800416c:	2114      	movs	r1, #20
 800416e:	200a      	movs	r0, #10
 8004170:	f005 fab6 	bl	80096e0 <OLED_ShowString>
 8004174:	f005 fa18 	bl	80095a8 <OLED_Refresh_Gram>
 8004178:	e7a7      	b.n	80040ca <spotTurn+0x456>
 800417a:	bf00      	nop
 800417c:	40020000 	.word	0x40020000
 8004180:	40021000 	.word	0x40021000
 8004184:	40020800 	.word	0x40020800
 8004188:	0800e1bc 	.word	0x0800e1bc
 800418c:	c0340000 	.word	0xc0340000
 8004190:	c0418000 	.word	0xc0418000
 8004194:	c0300000 	.word	0xc0300000
 8004198:	c0470000 	.word	0xc0470000

0800419c <StartDefaultTask>:
 800419c:	e92d 43f8 	stmdb	sp!, {r3, r4, r5, r6, r7, r8, r9, lr}
 80041a0:	2201      	movs	r2, #1
 80041a2:	4946      	ldr	r1, [pc, #280]	; (80042bc <StartDefaultTask+0x120>)
 80041a4:	4846      	ldr	r0, [pc, #280]	; (80042c0 <StartDefaultTask+0x124>)
 80041a6:	4e47      	ldr	r6, [pc, #284]	; (80042c4 <StartDefaultTask+0x128>)
 80041a8:	4d47      	ldr	r5, [pc, #284]	; (80042c8 <StartDefaultTask+0x12c>)
 80041aa:	4f48      	ldr	r7, [pc, #288]	; (80042cc <StartDefaultTask+0x130>)
 80041ac:	f8df 9130 	ldr.w	r9, [pc, #304]	; 80042e0 <StartDefaultTask+0x144>
 80041b0:	f8df 8124 	ldr.w	r8, [pc, #292]	; 80042d8 <StartDefaultTask+0x13c>
 80041b4:	4c46      	ldr	r4, [pc, #280]	; (80042d0 <StartDefaultTask+0x134>)
 80041b6:	f003 fbce 	bl	8007956 <HAL_UART_Receive_IT>
 80041ba:	4a46      	ldr	r2, [pc, #280]	; (80042d4 <StartDefaultTask+0x138>)
 80041bc:	2300      	movs	r3, #0
 80041be:	7013      	strb	r3, [r2, #0]
 80041c0:	7033      	strb	r3, [r6, #0]
 80041c2:	602b      	str	r3, [r5, #0]
 80041c4:	703b      	strb	r3, [r7, #0]
 80041c6:	f44f 6180 	mov.w	r1, #1024	; 0x400
 80041ca:	4648      	mov	r0, r9
 80041cc:	f000 fe1b 	bl	8004e06 <HAL_GPIO_TogglePin>
 80041d0:	4841      	ldr	r0, [pc, #260]	; (80042d8 <StartDefaultTask+0x13c>)
 80041d2:	210c      	movs	r1, #12
 80041d4:	f002 ffc2 	bl	800715c <HAL_TIM_PWM_Start>
 80041d8:	f8d8 3000 	ldr.w	r3, [r8]
 80041dc:	2293      	movs	r2, #147	; 0x93
 80041de:	641a      	str	r2, [r3, #64]	; 0x40
 80041e0:	7833      	ldrb	r3, [r6, #0]
 80041e2:	2b01      	cmp	r3, #1
 80041e4:	d14d      	bne.n	8004282 <StartDefaultTask+0xe6>
 80041e6:	2300      	movs	r3, #0
 80041e8:	7033      	strb	r3, [r6, #0]
 80041ea:	783b      	ldrb	r3, [r7, #0]
 80041ec:	3b4c      	subs	r3, #76	; 0x4c
 80041ee:	2b2c      	cmp	r3, #44	; 0x2c
 80041f0:	d845      	bhi.n	800427e <StartDefaultTask+0xe2>
 80041f2:	e8df f003 	tbb	[pc, r3]
 80041f6:	442e      	.short	0x442e
 80041f8:	44444444 	.word	0x44444444
 80041fc:	445a4433 	.word	0x445a4433
 8004200:	5e2c4444 	.word	0x5e2c4444
 8004204:	44444444 	.word	0x44444444
 8004208:	28444444 	.word	0x28444444
 800420c:	442c4444 	.word	0x442c4444
 8004210:	44444444 	.word	0x44444444
 8004214:	441f4444 	.word	0x441f4444
 8004218:	44364444 	.word	0x44364444
 800421c:	4a562623 	.word	0x4a562623
 8004220:	1744      	.short	0x1744
 8004222:	28          	.byte	0x28
 8004223:	00          	.byte	0x00
 8004224:	2001      	movs	r0, #1
 8004226:	edd5 7a00 	vldr	s15, [r5]
 800422a:	eeb8 0a67 	vcvt.f32.u32	s0, s15
 800422e:	f7fd fba3 	bl	8001978 <moveGyroPIDOld>
 8004232:	e001      	b.n	8004238 <StartDefaultTask+0x9c>
 8004234:	f7ff f9e0 	bl	80035f8 <left90>
 8004238:	4620      	mov	r0, r4
 800423a:	e02f      	b.n	800429c <StartDefaultTask+0x100>
 800423c:	f7ff fa50 	bl	80036e0 <right90>
 8004240:	e7fa      	b.n	8004238 <StartDefaultTask+0x9c>
 8004242:	2000      	movs	r0, #0
 8004244:	e7ef      	b.n	8004226 <StartDefaultTask+0x8a>
 8004246:	2001      	movs	r0, #1
 8004248:	f7ff fd14 	bl	8003c74 <spotTurn>
 800424c:	e7f4      	b.n	8004238 <StartDefaultTask+0x9c>
 800424e:	2000      	movs	r0, #0
 8004250:	e7fa      	b.n	8004248 <StartDefaultTask+0xac>
 8004252:	2100      	movs	r1, #0
 8004254:	2001      	movs	r0, #1
 8004256:	f7ff fabb 	bl	80037d0 <turn>
 800425a:	e7ed      	b.n	8004238 <StartDefaultTask+0x9c>
 800425c:	2100      	movs	r1, #0
 800425e:	4608      	mov	r0, r1
 8004260:	e7f9      	b.n	8004256 <StartDefaultTask+0xba>
 8004262:	4620      	mov	r0, r4
 8004264:	f7fd fa02 	bl	800166c <sendToRPI>
 8004268:	f44f 707a 	mov.w	r0, #1000	; 0x3e8
 800426c:	f003 fc03 	bl	8007a76 <osDelay>
 8004270:	481a      	ldr	r0, [pc, #104]	; (80042dc <StartDefaultTask+0x140>)
 8004272:	f7fd f9fb 	bl	800166c <sendToRPI>
 8004276:	f44f 707a 	mov.w	r0, #1000	; 0x3e8
 800427a:	f003 fbfc 	bl	8007a76 <osDelay>
 800427e:	2300      	movs	r3, #0
 8004280:	602b      	str	r3, [r5, #0]
 8004282:	2032      	movs	r0, #50	; 0x32
 8004284:	f003 fbf7 	bl	8007a76 <osDelay>
 8004288:	e79d      	b.n	80041c6 <StartDefaultTask+0x2a>
 800428a:	f7fd feb5 	bl	8001ff8 <moveUltra>
 800428e:	4620      	mov	r0, r4
 8004290:	f7fd f9ec 	bl	800166c <sendToRPI>
 8004294:	2032      	movs	r0, #50	; 0x32
 8004296:	f003 fbee 	bl	8007a76 <osDelay>
 800429a:	4810      	ldr	r0, [pc, #64]	; (80042dc <StartDefaultTask+0x140>)
 800429c:	f7fd f9e6 	bl	800166c <sendToRPI>
 80042a0:	e7ed      	b.n	800427e <StartDefaultTask+0xe2>
 80042a2:	6828      	ldr	r0, [r5, #0]
 80042a4:	f7ff f818 	bl	80032d8 <task2A>
 80042a8:	e7f1      	b.n	800428e <StartDefaultTask+0xf2>
 80042aa:	6828      	ldr	r0, [r5, #0]
 80042ac:	f7fe f9a4 	bl	80025f8 <task2A2>
 80042b0:	e7c2      	b.n	8004238 <StartDefaultTask+0x9c>
 80042b2:	6828      	ldr	r0, [r5, #0]
 80042b4:	f7fe fc6e 	bl	8002b94 <task2A2L>
 80042b8:	e7be      	b.n	8004238 <StartDefaultTask+0x9c>
 80042ba:	bf00      	nop
 80042bc:	20000220 	.word	0x20000220
 80042c0:	2000040c 	.word	0x2000040c
 80042c4:	20000456 	.word	0x20000456
 80042c8:	20000248 	.word	0x20000248
 80042cc:	20000244 	.word	0x20000244
 80042d0:	0800e1df 	.word	0x0800e1df
 80042d4:	20000455 	.word	0x20000455
 80042d8:	200002a4 	.word	0x200002a4
 80042dc:	0800e1e5 	.word	0x0800e1e5
 80042e0:	40021000 	.word	0x40021000

080042e4 <readByte>:
 80042e4:	b573      	push	{r0, r1, r4, r5, r6, lr}
 80042e6:	4e0c      	ldr	r6, [pc, #48]	; (8004318 <readByte+0x34>)
 80042e8:	4a0c      	ldr	r2, [pc, #48]	; (800431c <readByte+0x38>)
 80042ea:	4d0d      	ldr	r5, [pc, #52]	; (8004320 <readByte+0x3c>)
 80042ec:	7010      	strb	r0, [r2, #0]
 80042ee:	460c      	mov	r4, r1
 80042f0:	230a      	movs	r3, #10
 80042f2:	7831      	ldrb	r1, [r6, #0]
 80042f4:	9300      	str	r3, [sp, #0]
 80042f6:	2301      	movs	r3, #1
 80042f8:	4099      	lsls	r1, r3
 80042fa:	4628      	mov	r0, r5
 80042fc:	f000 ff36 	bl	800516c <HAL_I2C_Master_Transmit>
 8004300:	7831      	ldrb	r1, [r6, #0]
 8004302:	2314      	movs	r3, #20
 8004304:	9300      	str	r3, [sp, #0]
 8004306:	4622      	mov	r2, r4
 8004308:	2302      	movs	r3, #2
 800430a:	0049      	lsls	r1, r1, #1
 800430c:	4628      	mov	r0, r5
 800430e:	f001 f805 	bl	800531c <HAL_I2C_Master_Receive>
 8004312:	b002      	add	sp, #8
 8004314:	bd70      	pop	{r4, r5, r6, pc}
 8004316:	bf00      	nop
 8004318:	20000000 	.word	0x20000000
 800431c:	20000230 	.word	0x20000230
 8004320:	20000250 	.word	0x20000250

08004324 <writeByte>:
 8004324:	b507      	push	{r0, r1, r2, lr}
 8004326:	4b07      	ldr	r3, [pc, #28]	; (8004344 <writeByte+0x20>)
 8004328:	4a07      	ldr	r2, [pc, #28]	; (8004348 <writeByte+0x24>)
 800432a:	7051      	strb	r1, [r2, #1]
 800432c:	7819      	ldrb	r1, [r3, #0]
 800432e:	7010      	strb	r0, [r2, #0]
 8004330:	2314      	movs	r3, #20
 8004332:	9300      	str	r3, [sp, #0]
 8004334:	0049      	lsls	r1, r1, #1
 8004336:	2302      	movs	r3, #2
 8004338:	4804      	ldr	r0, [pc, #16]	; (800434c <writeByte+0x28>)
 800433a:	f000 ff17 	bl	800516c <HAL_I2C_Master_Transmit>
 800433e:	b003      	add	sp, #12
 8004340:	f85d fb04 	ldr.w	pc, [sp], #4
 8004344:	20000000 	.word	0x20000000
 8004348:	20000230 	.word	0x20000230
 800434c:	20000250 	.word	0x20000250

08004350 <gyroStart>:
 8004350:	b508      	push	{r3, lr}
 8004352:	2107      	movs	r1, #7
 8004354:	4608      	mov	r0, r1
 8004356:	f7ff ffe5 	bl	8004324 <writeByte>
 800435a:	200a      	movs	r0, #10
 800435c:	f003 fb97 	bl	8007a8e <osDelayUntil>
 8004360:	2007      	movs	r0, #7
 8004362:	2100      	movs	r1, #0
 8004364:	f7ff ffde 	bl	8004324 <writeByte>
 8004368:	e8bd 4008 	ldmia.w	sp!, {r3, lr}
 800436c:	200a      	movs	r0, #10
 800436e:	f003 bb8e 	b.w	8007a8e <osDelayUntil>

08004372 <gyroInit>:
 8004372:	b508      	push	{r3, lr}
 8004374:	2100      	movs	r1, #0
 8004376:	2006      	movs	r0, #6
 8004378:	f7ff ffd4 	bl	8004324 <writeByte>
 800437c:	200a      	movs	r0, #10
 800437e:	f003 fb86 	bl	8007a8e <osDelayUntil>
 8004382:	2180      	movs	r1, #128	; 0x80
 8004384:	2003      	movs	r0, #3
 8004386:	f7ff ffcd 	bl	8004324 <writeByte>
 800438a:	200a      	movs	r0, #10
 800438c:	f003 fb7f 	bl	8007a8e <osDelayUntil>
 8004390:	2107      	movs	r1, #7
 8004392:	4608      	mov	r0, r1
 8004394:	f7ff ffc6 	bl	8004324 <writeByte>
 8004398:	200a      	movs	r0, #10
 800439a:	f003 fb78 	bl	8007a8e <osDelayUntil>
 800439e:	2101      	movs	r1, #1
 80043a0:	2006      	movs	r0, #6
 80043a2:	f7ff ffbf 	bl	8004324 <writeByte>
 80043a6:	200a      	movs	r0, #10
 80043a8:	f003 fb71 	bl	8007a8e <osDelayUntil>
 80043ac:	2120      	movs	r1, #32
 80043ae:	207f      	movs	r0, #127	; 0x7f
 80043b0:	f7ff ffb8 	bl	8004324 <writeByte>
 80043b4:	200a      	movs	r0, #10
 80043b6:	f003 fb6a 	bl	8007a8e <osDelayUntil>
 80043ba:	212f      	movs	r1, #47	; 0x2f
 80043bc:	2001      	movs	r0, #1
 80043be:	f7ff ffb1 	bl	8004324 <writeByte>
 80043c2:	200a      	movs	r0, #10
 80043c4:	f003 fb63 	bl	8007a8e <osDelayUntil>
 80043c8:	2100      	movs	r1, #0
 80043ca:	4608      	mov	r0, r1
 80043cc:	f7ff ffaa 	bl	8004324 <writeByte>
 80043d0:	200a      	movs	r0, #10
 80043d2:	f003 fb5c 	bl	8007a8e <osDelayUntil>
 80043d6:	2100      	movs	r1, #0
 80043d8:	207f      	movs	r0, #127	; 0x7f
 80043da:	f7ff ffa3 	bl	8004324 <writeByte>
 80043de:	200a      	movs	r0, #10
 80043e0:	f003 fb55 	bl	8007a8e <osDelayUntil>
 80043e4:	2007      	movs	r0, #7
 80043e6:	2100      	movs	r1, #0
 80043e8:	f7ff ff9c 	bl	8004324 <writeByte>
 80043ec:	e8bd 4008 	ldmia.w	sp!, {r3, lr}
 80043f0:	200a      	movs	r0, #10
 80043f2:	f003 bb4c 	b.w	8007a8e <osDelayUntil>
	...

080043f8 <gyro_read>:
 80043f8:	e92d 47f0 	stmdb	sp!, {r4, r5, r6, r7, r8, r9, sl, lr}
 80043fc:	ed2d 8b02 	vpush	{d8}
 8004400:	b082      	sub	sp, #8
 8004402:	2300      	movs	r3, #0
 8004404:	f8ad 3004 	strh.w	r3, [sp, #4]
 8004408:	f7ff ffb3 	bl	8004372 <gyroInit>
 800440c:	f7ff ffa0 	bl	8004350 <gyroStart>
 8004410:	f000 fb40 	bl	8004a94 <HAL_GetTick>
 8004414:	ed9f 8b3a 	vldr	d8, [pc, #232]	; 8004500 <gyro_read+0x108>
 8004418:	4d3f      	ldr	r5, [pc, #252]	; (8004518 <gyro_read+0x120>)
 800441a:	4682      	mov	sl, r0
 800441c:	200a      	movs	r0, #10
 800441e:	f003 fb36 	bl	8007a8e <osDelayUntil>
 8004422:	f20f 09e4 	addw	r9, pc, #228	; 0xe4
 8004426:	e9d9 8900 	ldrd	r8, r9, [r9]
 800442a:	ed85 8b00 	vstr	d8, [r5]
 800442e:	f000 fb31 	bl	8004a94 <HAL_GetTick>
 8004432:	eba0 000a 	sub.w	r0, r0, sl
 8004436:	2863      	cmp	r0, #99	; 0x63
 8004438:	d9f9      	bls.n	800442e <gyro_read+0x36>
 800443a:	2037      	movs	r0, #55	; 0x37
 800443c:	a901      	add	r1, sp, #4
 800443e:	f7ff ff51 	bl	80042e4 <readByte>
 8004442:	4b36      	ldr	r3, [pc, #216]	; (800451c <gyro_read+0x124>)
 8004444:	f8bd 0004 	ldrh.w	r0, [sp, #4]
 8004448:	781a      	ldrb	r2, [r3, #0]
 800444a:	4b35      	ldr	r3, [pc, #212]	; (8004520 <gyro_read+0x128>)
 800444c:	4c35      	ldr	r4, [pc, #212]	; (8004524 <gyro_read+0x12c>)
 800444e:	781b      	ldrb	r3, [r3, #0]
 8004450:	4313      	orrs	r3, r2
 8004452:	bac0      	revsh	r0, r0
 8004454:	d051      	beq.n	80044fa <gyro_read+0x102>
 8004456:	f7fc f865 	bl	8000524 <__aeabi_i2d>
 800445a:	4b33      	ldr	r3, [pc, #204]	; (8004528 <gyro_read+0x130>)
 800445c:	2200      	movs	r2, #0
 800445e:	f7fb ff15 	bl	800028c <__adddf3>
 8004462:	460f      	mov	r7, r1
 8004464:	4606      	mov	r6, r0
 8004466:	f000 fb15 	bl	8004a94 <HAL_GetTick>
 800446a:	eba0 000a 	sub.w	r0, r0, sl
 800446e:	f7fc f849 	bl	8000504 <__aeabi_ui2d>
 8004472:	a327      	add	r3, pc, #156	; (adr r3, 8004510 <gyro_read+0x118>)
 8004474:	e9d3 2300 	ldrd	r2, r3, [r3]
 8004478:	f7fc f9e8 	bl	800084c <__aeabi_ddiv>
 800447c:	4632      	mov	r2, r6
 800447e:	463b      	mov	r3, r7
 8004480:	f7fc f8ba 	bl	80005f8 <__aeabi_dmul>
 8004484:	4642      	mov	r2, r8
 8004486:	464b      	mov	r3, r9
 8004488:	f7fc f8b6 	bl	80005f8 <__aeabi_dmul>
 800448c:	e9d4 2300 	ldrd	r2, r3, [r4]
 8004490:	f7fb fefc 	bl	800028c <__adddf3>
 8004494:	e9c4 0100 	strd	r0, r1, [r4]
 8004498:	f000 fafc 	bl	8004a94 <HAL_GetTick>
 800449c:	eba0 000a 	sub.w	r0, r0, sl
 80044a0:	f7fc f830 	bl	8000504 <__aeabi_ui2d>
 80044a4:	a31a      	add	r3, pc, #104	; (adr r3, 8004510 <gyro_read+0x118>)
 80044a6:	e9d3 2300 	ldrd	r2, r3, [r3]
 80044aa:	f7fc f9cf 	bl	800084c <__aeabi_ddiv>
 80044ae:	4632      	mov	r2, r6
 80044b0:	463b      	mov	r3, r7
 80044b2:	f7fc f8a1 	bl	80005f8 <__aeabi_dmul>
 80044b6:	4642      	mov	r2, r8
 80044b8:	464b      	mov	r3, r9
 80044ba:	f7fc f89d 	bl	80005f8 <__aeabi_dmul>
 80044be:	e9d5 2300 	ldrd	r2, r3, [r5]
 80044c2:	f7fb fee3 	bl	800028c <__adddf3>
 80044c6:	4b19      	ldr	r3, [pc, #100]	; (800452c <gyro_read+0x134>)
 80044c8:	4606      	mov	r6, r0
 80044ca:	460f      	mov	r7, r1
 80044cc:	2200      	movs	r2, #0
 80044ce:	e9d4 0100 	ldrd	r0, r1, [r4]
 80044d2:	e9c5 6700 	strd	r6, r7, [r5]
 80044d6:	f7fc fb15 	bl	8000b04 <__aeabi_dcmpge>
 80044da:	b108      	cbz	r0, 80044e0 <gyro_read+0xe8>
 80044dc:	ed84 8b00 	vstr	d8, [r4]
 80044e0:	4b12      	ldr	r3, [pc, #72]	; (800452c <gyro_read+0x134>)
 80044e2:	2200      	movs	r2, #0
 80044e4:	4630      	mov	r0, r6
 80044e6:	4639      	mov	r1, r7
 80044e8:	f7fc fb0c 	bl	8000b04 <__aeabi_dcmpge>
 80044ec:	b108      	cbz	r0, 80044f2 <gyro_read+0xfa>
 80044ee:	ed85 8b00 	vstr	d8, [r5]
 80044f2:	f000 facf 	bl	8004a94 <HAL_GetTick>
 80044f6:	4682      	mov	sl, r0
 80044f8:	e799      	b.n	800442e <gyro_read+0x36>
 80044fa:	ed84 8b00 	vstr	d8, [r4]
 80044fe:	e7f8      	b.n	80044f2 <gyro_read+0xfa>
	...
 8004508:	851eb852 	.word	0x851eb852
 800450c:	3ff051eb 	.word	0x3ff051eb
 8004510:	00000000 	.word	0x00000000
 8004514:	40d00400 	.word	0x40d00400
 8004518:	20000228 	.word	0x20000228
 800451c:	20000455 	.word	0x20000455
 8004520:	20000454 	.word	0x20000454
 8004524:	20000458 	.word	0x20000458
 8004528:	3fe00000 	.word	0x3fe00000
 800452c:	40868000 	.word	0x40868000

08004530 <HAL_MspInit>:
 8004530:	b082      	sub	sp, #8
 8004532:	4b0e      	ldr	r3, [pc, #56]	; (800456c <HAL_MspInit+0x3c>)
 8004534:	2200      	movs	r2, #0
 8004536:	9200      	str	r2, [sp, #0]
 8004538:	6c59      	ldr	r1, [r3, #68]	; 0x44
 800453a:	f441 4180 	orr.w	r1, r1, #16384	; 0x4000
 800453e:	6459      	str	r1, [r3, #68]	; 0x44
 8004540:	6c59      	ldr	r1, [r3, #68]	; 0x44
 8004542:	f401 4180 	and.w	r1, r1, #16384	; 0x4000
 8004546:	9100      	str	r1, [sp, #0]
 8004548:	9900      	ldr	r1, [sp, #0]
 800454a:	9201      	str	r2, [sp, #4]
 800454c:	6c19      	ldr	r1, [r3, #64]	; 0x40
 800454e:	f041 5180 	orr.w	r1, r1, #268435456	; 0x10000000
 8004552:	6419      	str	r1, [r3, #64]	; 0x40
 8004554:	6c1b      	ldr	r3, [r3, #64]	; 0x40
 8004556:	f003 5380 	and.w	r3, r3, #268435456	; 0x10000000
 800455a:	9301      	str	r3, [sp, #4]
 800455c:	9b01      	ldr	r3, [sp, #4]
 800455e:	210f      	movs	r1, #15
 8004560:	f06f 0001 	mvn.w	r0, #1
 8004564:	b002      	add	sp, #8
 8004566:	f000 bac1 	b.w	8004aec <HAL_NVIC_SetPriority>
 800456a:	bf00      	nop
 800456c:	40023800 	.word	0x40023800

08004570 <HAL_I2C_MspInit>:
 8004570:	b530      	push	{r4, r5, lr}
 8004572:	4604      	mov	r4, r0
 8004574:	b089      	sub	sp, #36	; 0x24
 8004576:	2214      	movs	r2, #20
 8004578:	2100      	movs	r1, #0
 800457a:	a803      	add	r0, sp, #12
 800457c:	f005 f990 	bl	80098a0 <memset>
 8004580:	6822      	ldr	r2, [r4, #0]
 8004582:	4b18      	ldr	r3, [pc, #96]	; (80045e4 <HAL_I2C_MspInit+0x74>)
 8004584:	429a      	cmp	r2, r3
 8004586:	d12a      	bne.n	80045de <HAL_I2C_MspInit+0x6e>
 8004588:	4c17      	ldr	r4, [pc, #92]	; (80045e8 <HAL_I2C_MspInit+0x78>)
 800458a:	4818      	ldr	r0, [pc, #96]	; (80045ec <HAL_I2C_MspInit+0x7c>)
 800458c:	2500      	movs	r5, #0
 800458e:	9501      	str	r5, [sp, #4]
 8004590:	6b23      	ldr	r3, [r4, #48]	; 0x30
 8004592:	f043 0302 	orr.w	r3, r3, #2
 8004596:	6323      	str	r3, [r4, #48]	; 0x30
 8004598:	6b23      	ldr	r3, [r4, #48]	; 0x30
 800459a:	f003 0302 	and.w	r3, r3, #2
 800459e:	9301      	str	r3, [sp, #4]
 80045a0:	f44f 7240 	mov.w	r2, #768	; 0x300
 80045a4:	9b01      	ldr	r3, [sp, #4]
 80045a6:	2312      	movs	r3, #18
 80045a8:	e9cd 2303 	strd	r2, r3, [sp, #12]
 80045ac:	2103      	movs	r1, #3
 80045ae:	2304      	movs	r3, #4
 80045b0:	e9cd 1306 	strd	r1, r3, [sp, #24]
 80045b4:	a903      	add	r1, sp, #12
 80045b6:	f000 fb47 	bl	8004c48 <HAL_GPIO_Init>
 80045ba:	9502      	str	r5, [sp, #8]
 80045bc:	6c23      	ldr	r3, [r4, #64]	; 0x40
 80045be:	f443 1300 	orr.w	r3, r3, #2097152	; 0x200000
 80045c2:	6423      	str	r3, [r4, #64]	; 0x40
 80045c4:	6c23      	ldr	r3, [r4, #64]	; 0x40
 80045c6:	f403 1300 	and.w	r3, r3, #2097152	; 0x200000
 80045ca:	9302      	str	r3, [sp, #8]
 80045cc:	201f      	movs	r0, #31
 80045ce:	462a      	mov	r2, r5
 80045d0:	2105      	movs	r1, #5
 80045d2:	9b02      	ldr	r3, [sp, #8]
 80045d4:	f000 fa8a 	bl	8004aec <HAL_NVIC_SetPriority>
 80045d8:	201f      	movs	r0, #31
 80045da:	f000 fab9 	bl	8004b50 <HAL_NVIC_EnableIRQ>
 80045de:	b009      	add	sp, #36	; 0x24
 80045e0:	bd30      	pop	{r4, r5, pc}
 80045e2:	bf00      	nop
 80045e4:	40005400 	.word	0x40005400
 80045e8:	40023800 	.word	0x40023800
 80045ec:	40020400 	.word	0x40020400

080045f0 <HAL_TIM_Base_MspInit>:
 80045f0:	b510      	push	{r4, lr}
 80045f2:	4604      	mov	r4, r0
 80045f4:	b088      	sub	sp, #32
 80045f6:	2214      	movs	r2, #20
 80045f8:	2100      	movs	r1, #0
 80045fa:	a803      	add	r0, sp, #12
 80045fc:	f005 f950 	bl	80098a0 <memset>
 8004600:	6823      	ldr	r3, [r4, #0]
 8004602:	4a1b      	ldr	r2, [pc, #108]	; (8004670 <HAL_TIM_Base_MspInit+0x80>)
 8004604:	4293      	cmp	r3, r2
 8004606:	d10d      	bne.n	8004624 <HAL_TIM_Base_MspInit+0x34>
 8004608:	2300      	movs	r3, #0
 800460a:	9300      	str	r3, [sp, #0]
 800460c:	4b19      	ldr	r3, [pc, #100]	; (8004674 <HAL_TIM_Base_MspInit+0x84>)
 800460e:	6c5a      	ldr	r2, [r3, #68]	; 0x44
 8004610:	f042 0201 	orr.w	r2, r2, #1
 8004614:	645a      	str	r2, [r3, #68]	; 0x44
 8004616:	6c5b      	ldr	r3, [r3, #68]	; 0x44
 8004618:	f003 0301 	and.w	r3, r3, #1
 800461c:	9300      	str	r3, [sp, #0]
 800461e:	9b00      	ldr	r3, [sp, #0]
 8004620:	b008      	add	sp, #32
 8004622:	bd10      	pop	{r4, pc}
 8004624:	4a14      	ldr	r2, [pc, #80]	; (8004678 <HAL_TIM_Base_MspInit+0x88>)
 8004626:	4293      	cmp	r3, r2
 8004628:	d1fa      	bne.n	8004620 <HAL_TIM_Base_MspInit+0x30>
 800462a:	4b12      	ldr	r3, [pc, #72]	; (8004674 <HAL_TIM_Base_MspInit+0x84>)
 800462c:	4813      	ldr	r0, [pc, #76]	; (800467c <HAL_TIM_Base_MspInit+0x8c>)
 800462e:	2100      	movs	r1, #0
 8004630:	9101      	str	r1, [sp, #4]
 8004632:	6c5a      	ldr	r2, [r3, #68]	; 0x44
 8004634:	f042 0202 	orr.w	r2, r2, #2
 8004638:	645a      	str	r2, [r3, #68]	; 0x44
 800463a:	6c5a      	ldr	r2, [r3, #68]	; 0x44
 800463c:	f002 0202 	and.w	r2, r2, #2
 8004640:	9201      	str	r2, [sp, #4]
 8004642:	9a01      	ldr	r2, [sp, #4]
 8004644:	9102      	str	r1, [sp, #8]
 8004646:	6b1a      	ldr	r2, [r3, #48]	; 0x30
 8004648:	f042 0204 	orr.w	r2, r2, #4
 800464c:	631a      	str	r2, [r3, #48]	; 0x30
 800464e:	6b1b      	ldr	r3, [r3, #48]	; 0x30
 8004650:	f003 0304 	and.w	r3, r3, #4
 8004654:	9302      	str	r3, [sp, #8]
 8004656:	9b02      	ldr	r3, [sp, #8]
 8004658:	f44f 72a0 	mov.w	r2, #320	; 0x140
 800465c:	2302      	movs	r3, #2
 800465e:	e9cd 2303 	strd	r2, r3, [sp, #12]
 8004662:	a903      	add	r1, sp, #12
 8004664:	2303      	movs	r3, #3
 8004666:	9307      	str	r3, [sp, #28]
 8004668:	f000 faee 	bl	8004c48 <HAL_GPIO_Init>
 800466c:	e7d8      	b.n	8004620 <HAL_TIM_Base_MspInit+0x30>
 800466e:	bf00      	nop
 8004670:	40010000 	.word	0x40010000
 8004674:	40023800 	.word	0x40023800
 8004678:	40010400 	.word	0x40010400
 800467c:	40020800 	.word	0x40020800

08004680 <HAL_TIM_Encoder_MspInit>:
 8004680:	b570      	push	{r4, r5, r6, lr}
 8004682:	2214      	movs	r2, #20
 8004684:	b08a      	sub	sp, #40	; 0x28
 8004686:	4604      	mov	r4, r0
 8004688:	2100      	movs	r1, #0
 800468a:	eb0d 0002 	add.w	r0, sp, r2
 800468e:	f005 f907 	bl	80098a0 <memset>
 8004692:	6823      	ldr	r3, [r4, #0]
 8004694:	f1b3 4f80 	cmp.w	r3, #1073741824	; 0x40000000
 8004698:	d137      	bne.n	800470a <HAL_TIM_Encoder_MspInit+0x8a>
 800469a:	f503 330e 	add.w	r3, r3, #145408	; 0x23800
 800469e:	2400      	movs	r4, #0
 80046a0:	9400      	str	r4, [sp, #0]
 80046a2:	6c1a      	ldr	r2, [r3, #64]	; 0x40
 80046a4:	4828      	ldr	r0, [pc, #160]	; (8004748 <HAL_TIM_Encoder_MspInit+0xc8>)
 80046a6:	f042 0201 	orr.w	r2, r2, #1
 80046aa:	641a      	str	r2, [r3, #64]	; 0x40
 80046ac:	6c1a      	ldr	r2, [r3, #64]	; 0x40
 80046ae:	f002 0201 	and.w	r2, r2, #1
 80046b2:	9200      	str	r2, [sp, #0]
 80046b4:	9a00      	ldr	r2, [sp, #0]
 80046b6:	9401      	str	r4, [sp, #4]
 80046b8:	6b1a      	ldr	r2, [r3, #48]	; 0x30
 80046ba:	f042 0201 	orr.w	r2, r2, #1
 80046be:	631a      	str	r2, [r3, #48]	; 0x30
 80046c0:	6b1a      	ldr	r2, [r3, #48]	; 0x30
 80046c2:	f002 0201 	and.w	r2, r2, #1
 80046c6:	9201      	str	r2, [sp, #4]
 80046c8:	9a01      	ldr	r2, [sp, #4]
 80046ca:	9402      	str	r4, [sp, #8]
 80046cc:	6b1a      	ldr	r2, [r3, #48]	; 0x30
 80046ce:	f042 0202 	orr.w	r2, r2, #2
 80046d2:	631a      	str	r2, [r3, #48]	; 0x30
 80046d4:	6b1b      	ldr	r3, [r3, #48]	; 0x30
 80046d6:	f003 0302 	and.w	r3, r3, #2
 80046da:	9302      	str	r3, [sp, #8]
 80046dc:	9b02      	ldr	r3, [sp, #8]
 80046de:	2602      	movs	r6, #2
 80046e0:	f44f 4300 	mov.w	r3, #32768	; 0x8000
 80046e4:	2501      	movs	r5, #1
 80046e6:	a905      	add	r1, sp, #20
 80046e8:	e9cd 3605 	strd	r3, r6, [sp, #20]
 80046ec:	9509      	str	r5, [sp, #36]	; 0x24
 80046ee:	f000 faab 	bl	8004c48 <HAL_GPIO_Init>
 80046f2:	2308      	movs	r3, #8
 80046f4:	e9cd 3605 	strd	r3, r6, [sp, #20]
 80046f8:	e9cd 4407 	strd	r4, r4, [sp, #28]
 80046fc:	9509      	str	r5, [sp, #36]	; 0x24
 80046fe:	4813      	ldr	r0, [pc, #76]	; (800474c <HAL_TIM_Encoder_MspInit+0xcc>)
 8004700:	a905      	add	r1, sp, #20
 8004702:	f000 faa1 	bl	8004c48 <HAL_GPIO_Init>
 8004706:	b00a      	add	sp, #40	; 0x28
 8004708:	bd70      	pop	{r4, r5, r6, pc}
 800470a:	4a11      	ldr	r2, [pc, #68]	; (8004750 <HAL_TIM_Encoder_MspInit+0xd0>)
 800470c:	4293      	cmp	r3, r2
 800470e:	d1fa      	bne.n	8004706 <HAL_TIM_Encoder_MspInit+0x86>
 8004710:	4b10      	ldr	r3, [pc, #64]	; (8004754 <HAL_TIM_Encoder_MspInit+0xd4>)
 8004712:	2100      	movs	r1, #0
 8004714:	9103      	str	r1, [sp, #12]
 8004716:	6c1a      	ldr	r2, [r3, #64]	; 0x40
 8004718:	f042 0204 	orr.w	r2, r2, #4
 800471c:	641a      	str	r2, [r3, #64]	; 0x40
 800471e:	6c1a      	ldr	r2, [r3, #64]	; 0x40
 8004720:	f002 0204 	and.w	r2, r2, #4
 8004724:	9203      	str	r2, [sp, #12]
 8004726:	9a03      	ldr	r2, [sp, #12]
 8004728:	9104      	str	r1, [sp, #16]
 800472a:	6b1a      	ldr	r2, [r3, #48]	; 0x30
 800472c:	f042 0202 	orr.w	r2, r2, #2
 8004730:	631a      	str	r2, [r3, #48]	; 0x30
 8004732:	6b1b      	ldr	r3, [r3, #48]	; 0x30
 8004734:	f003 0302 	and.w	r3, r3, #2
 8004738:	9304      	str	r3, [sp, #16]
 800473a:	9b04      	ldr	r3, [sp, #16]
 800473c:	22c0      	movs	r2, #192	; 0xc0
 800473e:	2302      	movs	r3, #2
 8004740:	e9cd 2305 	strd	r2, r3, [sp, #20]
 8004744:	9309      	str	r3, [sp, #36]	; 0x24
 8004746:	e7da      	b.n	80046fe <HAL_TIM_Encoder_MspInit+0x7e>
 8004748:	40020000 	.word	0x40020000
 800474c:	40020400 	.word	0x40020400
 8004750:	40000800 	.word	0x40000800
 8004754:	40023800 	.word	0x40023800

08004758 <HAL_TIM_IC_MspInit>:
 8004758:	b510      	push	{r4, lr}
 800475a:	4604      	mov	r4, r0
 800475c:	b088      	sub	sp, #32
 800475e:	2214      	movs	r2, #20
 8004760:	2100      	movs	r1, #0
 8004762:	a803      	add	r0, sp, #12
 8004764:	f005 f89c 	bl	80098a0 <memset>
 8004768:	6822      	ldr	r2, [r4, #0]
 800476a:	4b16      	ldr	r3, [pc, #88]	; (80047c4 <HAL_TIM_IC_MspInit+0x6c>)
 800476c:	429a      	cmp	r2, r3
 800476e:	d127      	bne.n	80047c0 <HAL_TIM_IC_MspInit+0x68>
 8004770:	f503 330d 	add.w	r3, r3, #144384	; 0x23400
 8004774:	2400      	movs	r4, #0
 8004776:	9401      	str	r4, [sp, #4]
 8004778:	6c1a      	ldr	r2, [r3, #64]	; 0x40
 800477a:	4813      	ldr	r0, [pc, #76]	; (80047c8 <HAL_TIM_IC_MspInit+0x70>)
 800477c:	f042 0202 	orr.w	r2, r2, #2
 8004780:	641a      	str	r2, [r3, #64]	; 0x40
 8004782:	6c1a      	ldr	r2, [r3, #64]	; 0x40
 8004784:	f002 0202 	and.w	r2, r2, #2
 8004788:	9201      	str	r2, [sp, #4]
 800478a:	9a01      	ldr	r2, [sp, #4]
 800478c:	9402      	str	r4, [sp, #8]
 800478e:	6b1a      	ldr	r2, [r3, #48]	; 0x30
 8004790:	f042 0202 	orr.w	r2, r2, #2
 8004794:	631a      	str	r2, [r3, #48]	; 0x30
 8004796:	6b1b      	ldr	r3, [r3, #48]	; 0x30
 8004798:	f003 0302 	and.w	r3, r3, #2
 800479c:	9302      	str	r3, [sp, #8]
 800479e:	2210      	movs	r2, #16
 80047a0:	9b02      	ldr	r3, [sp, #8]
 80047a2:	a903      	add	r1, sp, #12
 80047a4:	2302      	movs	r3, #2
 80047a6:	e9cd 2303 	strd	r2, r3, [sp, #12]
 80047aa:	9307      	str	r3, [sp, #28]
 80047ac:	f000 fa4c 	bl	8004c48 <HAL_GPIO_Init>
 80047b0:	201d      	movs	r0, #29
 80047b2:	4622      	mov	r2, r4
 80047b4:	2105      	movs	r1, #5
 80047b6:	f000 f999 	bl	8004aec <HAL_NVIC_SetPriority>
 80047ba:	201d      	movs	r0, #29
 80047bc:	f000 f9c8 	bl	8004b50 <HAL_NVIC_EnableIRQ>
 80047c0:	b008      	add	sp, #32
 80047c2:	bd10      	pop	{r4, pc}
 80047c4:	40000400 	.word	0x40000400
 80047c8:	40020400 	.word	0x40020400

080047cc <HAL_TIM_MspPostInit>:
 80047cc:	b510      	push	{r4, lr}
 80047ce:	4604      	mov	r4, r0
 80047d0:	b086      	sub	sp, #24
 80047d2:	2214      	movs	r2, #20
 80047d4:	2100      	movs	r1, #0
 80047d6:	a801      	add	r0, sp, #4
 80047d8:	f005 f862 	bl	80098a0 <memset>
 80047dc:	6822      	ldr	r2, [r4, #0]
 80047de:	4b0e      	ldr	r3, [pc, #56]	; (8004818 <HAL_TIM_MspPostInit+0x4c>)
 80047e0:	429a      	cmp	r2, r3
 80047e2:	d116      	bne.n	8004812 <HAL_TIM_MspPostInit+0x46>
 80047e4:	2300      	movs	r3, #0
 80047e6:	9300      	str	r3, [sp, #0]
 80047e8:	4b0c      	ldr	r3, [pc, #48]	; (800481c <HAL_TIM_MspPostInit+0x50>)
 80047ea:	480d      	ldr	r0, [pc, #52]	; (8004820 <HAL_TIM_MspPostInit+0x54>)
 80047ec:	6b1a      	ldr	r2, [r3, #48]	; 0x30
 80047ee:	f042 0210 	orr.w	r2, r2, #16
 80047f2:	631a      	str	r2, [r3, #48]	; 0x30
 80047f4:	6b1b      	ldr	r3, [r3, #48]	; 0x30
 80047f6:	f003 0310 	and.w	r3, r3, #16
 80047fa:	9300      	str	r3, [sp, #0]
 80047fc:	9b00      	ldr	r3, [sp, #0]
 80047fe:	f44f 4280 	mov.w	r2, #16384	; 0x4000
 8004802:	2302      	movs	r3, #2
 8004804:	e9cd 2301 	strd	r2, r3, [sp, #4]
 8004808:	a901      	add	r1, sp, #4
 800480a:	2301      	movs	r3, #1
 800480c:	9305      	str	r3, [sp, #20]
 800480e:	f000 fa1b 	bl	8004c48 <HAL_GPIO_Init>
 8004812:	b006      	add	sp, #24
 8004814:	bd10      	pop	{r4, pc}
 8004816:	bf00      	nop
 8004818:	40010000 	.word	0x40010000
 800481c:	40023800 	.word	0x40023800
 8004820:	40021000 	.word	0x40021000

08004824 <HAL_UART_MspInit>:
 8004824:	b510      	push	{r4, lr}
 8004826:	4604      	mov	r4, r0
 8004828:	b088      	sub	sp, #32
 800482a:	2214      	movs	r2, #20
 800482c:	2100      	movs	r1, #0
 800482e:	a803      	add	r0, sp, #12
 8004830:	f005 f836 	bl	80098a0 <memset>
 8004834:	6822      	ldr	r2, [r4, #0]
 8004836:	4b18      	ldr	r3, [pc, #96]	; (8004898 <HAL_UART_MspInit+0x74>)
 8004838:	429a      	cmp	r2, r3
 800483a:	d12b      	bne.n	8004894 <HAL_UART_MspInit+0x70>
 800483c:	f503 33f8 	add.w	r3, r3, #126976	; 0x1f000
 8004840:	2400      	movs	r4, #0
 8004842:	9401      	str	r4, [sp, #4]
 8004844:	6c1a      	ldr	r2, [r3, #64]	; 0x40
 8004846:	4815      	ldr	r0, [pc, #84]	; (800489c <HAL_UART_MspInit+0x78>)
 8004848:	f442 2280 	orr.w	r2, r2, #262144	; 0x40000
 800484c:	641a      	str	r2, [r3, #64]	; 0x40
 800484e:	6c1a      	ldr	r2, [r3, #64]	; 0x40
 8004850:	f402 2280 	and.w	r2, r2, #262144	; 0x40000
 8004854:	9201      	str	r2, [sp, #4]
 8004856:	9a01      	ldr	r2, [sp, #4]
 8004858:	9402      	str	r4, [sp, #8]
 800485a:	6b1a      	ldr	r2, [r3, #48]	; 0x30
 800485c:	f042 0204 	orr.w	r2, r2, #4
 8004860:	631a      	str	r2, [r3, #48]	; 0x30
 8004862:	6b1b      	ldr	r3, [r3, #48]	; 0x30
 8004864:	f003 0304 	and.w	r3, r3, #4
 8004868:	9302      	str	r3, [sp, #8]
 800486a:	f44f 6240 	mov.w	r2, #3072	; 0xc00
 800486e:	9b02      	ldr	r3, [sp, #8]
 8004870:	2302      	movs	r3, #2
 8004872:	e9cd 2303 	strd	r2, r3, [sp, #12]
 8004876:	2103      	movs	r1, #3
 8004878:	2307      	movs	r3, #7
 800487a:	e9cd 1306 	strd	r1, r3, [sp, #24]
 800487e:	a903      	add	r1, sp, #12
 8004880:	f000 f9e2 	bl	8004c48 <HAL_GPIO_Init>
 8004884:	2027      	movs	r0, #39	; 0x27
 8004886:	4622      	mov	r2, r4
 8004888:	2105      	movs	r1, #5
 800488a:	f000 f92f 	bl	8004aec <HAL_NVIC_SetPriority>
 800488e:	2027      	movs	r0, #39	; 0x27
 8004890:	f000 f95e 	bl	8004b50 <HAL_NVIC_EnableIRQ>
 8004894:	b008      	add	sp, #32
 8004896:	bd10      	pop	{r4, pc}
 8004898:	40004800 	.word	0x40004800
 800489c:	40020800 	.word	0x40020800

080048a0 <NMI_Handler>:
 80048a0:	e7fe      	b.n	80048a0 <NMI_Handler>

080048a2 <HardFault_Handler>:
 80048a2:	e7fe      	b.n	80048a2 <HardFault_Handler>

080048a4 <MemManage_Handler>:
 80048a4:	e7fe      	b.n	80048a4 <MemManage_Handler>

080048a6 <BusFault_Handler>:
 80048a6:	e7fe      	b.n	80048a6 <BusFault_Handler>

080048a8 <UsageFault_Handler>:
 80048a8:	e7fe      	b.n	80048a8 <UsageFault_Handler>

080048aa <DebugMon_Handler>:
 80048aa:	4770      	bx	lr

080048ac <SysTick_Handler>:
 80048ac:	b508      	push	{r3, lr}
 80048ae:	f000 f8e5 	bl	8004a7c <HAL_IncTick>
 80048b2:	f004 f8f7 	bl	8008aa4 <xTaskGetSchedulerState>
 80048b6:	2801      	cmp	r0, #1
 80048b8:	d003      	beq.n	80048c2 <SysTick_Handler+0x16>
 80048ba:	e8bd 4008 	ldmia.w	sp!, {r3, lr}
 80048be:	f004 bc01 	b.w	80090c4 <xPortSysTickHandler>
 80048c2:	bd08      	pop	{r3, pc}

080048c4 <TIM3_IRQHandler>:
 80048c4:	4801      	ldr	r0, [pc, #4]	; (80048cc <TIM3_IRQHandler+0x8>)
 80048c6:	f001 bfeb 	b.w	80068a0 <HAL_TIM_IRQHandler>
 80048ca:	bf00      	nop
 80048cc:	20000334 	.word	0x20000334

080048d0 <I2C1_EV_IRQHandler>:
 80048d0:	4801      	ldr	r0, [pc, #4]	; (80048d8 <I2C1_EV_IRQHandler+0x8>)
 80048d2:	f000 bff7 	b.w	80058c4 <HAL_I2C_EV_IRQHandler>
 80048d6:	bf00      	nop
 80048d8:	20000250 	.word	0x20000250

080048dc <USART3_IRQHandler>:
 80048dc:	4801      	ldr	r0, [pc, #4]	; (80048e4 <USART3_IRQHandler+0x8>)
 80048de:	f002 becf 	b.w	8007680 <HAL_UART_IRQHandler>
 80048e2:	bf00      	nop
 80048e4:	2000040c 	.word	0x2000040c

080048e8 <_getpid>:
 80048e8:	2001      	movs	r0, #1
 80048ea:	4770      	bx	lr

080048ec <_kill>:
 80048ec:	b508      	push	{r3, lr}
 80048ee:	f004 ff9f 	bl	8009830 <__errno>
 80048f2:	2316      	movs	r3, #22
 80048f4:	6003      	str	r3, [r0, #0]
 80048f6:	f04f 30ff 	mov.w	r0, #4294967295
 80048fa:	bd08      	pop	{r3, pc}

080048fc <_exit>:
 80048fc:	b508      	push	{r3, lr}
 80048fe:	f004 ff97 	bl	8009830 <__errno>
 8004902:	2316      	movs	r3, #22
 8004904:	6003      	str	r3, [r0, #0]
 8004906:	e7fe      	b.n	8004906 <_exit+0xa>

08004908 <_read>:
 8004908:	b570      	push	{r4, r5, r6, lr}
 800490a:	460d      	mov	r5, r1
 800490c:	4614      	mov	r4, r2
 800490e:	460e      	mov	r6, r1
 8004910:	1b73      	subs	r3, r6, r5
 8004912:	429c      	cmp	r4, r3
 8004914:	dc01      	bgt.n	800491a <_read+0x12>
 8004916:	4620      	mov	r0, r4
 8004918:	bd70      	pop	{r4, r5, r6, pc}
 800491a:	f3af 8000 	nop.w
 800491e:	f806 0b01 	strb.w	r0, [r6], #1
 8004922:	e7f5      	b.n	8004910 <_read+0x8>

08004924 <_write>:
 8004924:	b570      	push	{r4, r5, r6, lr}
 8004926:	460d      	mov	r5, r1
 8004928:	4614      	mov	r4, r2
 800492a:	460e      	mov	r6, r1
 800492c:	1b73      	subs	r3, r6, r5
 800492e:	429c      	cmp	r4, r3
 8004930:	dc01      	bgt.n	8004936 <_write+0x12>
 8004932:	4620      	mov	r0, r4
 8004934:	bd70      	pop	{r4, r5, r6, pc}
 8004936:	f816 0b01 	ldrb.w	r0, [r6], #1
 800493a:	f3af 8000 	nop.w
 800493e:	e7f5      	b.n	800492c <_write+0x8>

08004940 <_close>:
 8004940:	f04f 30ff 	mov.w	r0, #4294967295
 8004944:	4770      	bx	lr

08004946 <_fstat>:
 8004946:	f44f 5300 	mov.w	r3, #8192	; 0x2000
 800494a:	604b      	str	r3, [r1, #4]
 800494c:	2000      	movs	r0, #0
 800494e:	4770      	bx	lr

08004950 <_isatty>:
 8004950:	2001      	movs	r0, #1
 8004952:	4770      	bx	lr

08004954 <_lseek>:
 8004954:	2000      	movs	r0, #0
 8004956:	4770      	bx	lr

08004958 <_sbrk>:
 8004958:	4a0b      	ldr	r2, [pc, #44]	; (8004988 <_sbrk+0x30>)
 800495a:	6811      	ldr	r1, [r2, #0]
 800495c:	b510      	push	{r4, lr}
 800495e:	4603      	mov	r3, r0
 8004960:	b909      	cbnz	r1, 8004966 <_sbrk+0xe>
 8004962:	490a      	ldr	r1, [pc, #40]	; (800498c <_sbrk+0x34>)
 8004964:	6011      	str	r1, [r2, #0]
 8004966:	6810      	ldr	r0, [r2, #0]
 8004968:	4909      	ldr	r1, [pc, #36]	; (8004990 <_sbrk+0x38>)
 800496a:	4c0a      	ldr	r4, [pc, #40]	; (8004994 <_sbrk+0x3c>)
 800496c:	4403      	add	r3, r0
 800496e:	1b09      	subs	r1, r1, r4
 8004970:	428b      	cmp	r3, r1
 8004972:	d906      	bls.n	8004982 <_sbrk+0x2a>
 8004974:	f004 ff5c 	bl	8009830 <__errno>
 8004978:	230c      	movs	r3, #12
 800497a:	6003      	str	r3, [r0, #0]
 800497c:	f04f 30ff 	mov.w	r0, #4294967295
 8004980:	bd10      	pop	{r4, pc}
 8004982:	6013      	str	r3, [r2, #0]
 8004984:	e7fc      	b.n	8004980 <_sbrk+0x28>
 8004986:	bf00      	nop
 8004988:	20000460 	.word	0x20000460
 800498c:	200063c8 	.word	0x200063c8
 8004990:	20020000 	.word	0x20020000
 8004994:	00000400 	.word	0x00000400

08004998 <SystemInit>:
 8004998:	4a03      	ldr	r2, [pc, #12]	; (80049a8 <SystemInit+0x10>)
 800499a:	f8d2 3088 	ldr.w	r3, [r2, #136]	; 0x88
 800499e:	f443 0370 	orr.w	r3, r3, #15728640	; 0xf00000
 80049a2:	f8c2 3088 	str.w	r3, [r2, #136]	; 0x88
 80049a6:	4770      	bx	lr
 80049a8:	e000ed00 	.word	0xe000ed00

080049ac <Reset_Handler>:
 80049ac:	f8df d034 	ldr.w	sp, [pc, #52]	; 80049e4 <LoopFillZerobss+0x12>
 80049b0:	480d      	ldr	r0, [pc, #52]	; (80049e8 <LoopFillZerobss+0x16>)
 80049b2:	490e      	ldr	r1, [pc, #56]	; (80049ec <LoopFillZerobss+0x1a>)
 80049b4:	4a0e      	ldr	r2, [pc, #56]	; (80049f0 <LoopFillZerobss+0x1e>)
 80049b6:	2300      	movs	r3, #0
 80049b8:	e002      	b.n	80049c0 <LoopCopyDataInit>

080049ba <CopyDataInit>:
 80049ba:	58d4      	ldr	r4, [r2, r3]
 80049bc:	50c4      	str	r4, [r0, r3]
 80049be:	3304      	adds	r3, #4

080049c0 <LoopCopyDataInit>:
 80049c0:	18c4      	adds	r4, r0, r3
 80049c2:	428c      	cmp	r4, r1
 80049c4:	d3f9      	bcc.n	80049ba <CopyDataInit>
 80049c6:	4a0b      	ldr	r2, [pc, #44]	; (80049f4 <LoopFillZerobss+0x22>)
 80049c8:	4c0b      	ldr	r4, [pc, #44]	; (80049f8 <LoopFillZerobss+0x26>)
 80049ca:	2300      	movs	r3, #0
 80049cc:	e001      	b.n	80049d2 <LoopFillZerobss>

080049ce <FillZerobss>:
 80049ce:	6013      	str	r3, [r2, #0]
 80049d0:	3204      	adds	r2, #4

080049d2 <LoopFillZerobss>:
 80049d2:	42a2      	cmp	r2, r4
 80049d4:	d3fb      	bcc.n	80049ce <FillZerobss>
 80049d6:	f7ff ffdf 	bl	8004998 <SystemInit>
 80049da:	f004 ff2f 	bl	800983c <__libc_init_array>
 80049de:	f7fc fb4f 	bl	8001080 <main>
 80049e2:	4770      	bx	lr
 80049e4:	20020000 	.word	0x20020000
 80049e8:	20000000 	.word	0x20000000
 80049ec:	200001e8 	.word	0x200001e8
 80049f0:	0800f1c4 	.word	0x0800f1c4
 80049f4:	200001e8 	.word	0x200001e8
 80049f8:	200063c4 	.word	0x200063c4

080049fc <ADC_IRQHandler>:
 80049fc:	e7fe      	b.n	80049fc <ADC_IRQHandler>
	...

08004a00 <HAL_InitTick>:
 8004a00:	b538      	push	{r3, r4, r5, lr}
 8004a02:	4a0e      	ldr	r2, [pc, #56]	; (8004a3c <HAL_InitTick+0x3c>)
 8004a04:	4b0e      	ldr	r3, [pc, #56]	; (8004a40 <HAL_InitTick+0x40>)
 8004a06:	4605      	mov	r5, r0
 8004a08:	7818      	ldrb	r0, [r3, #0]
 8004a0a:	f44f 737a 	mov.w	r3, #1000	; 0x3e8
 8004a0e:	fbb3 f3f0 	udiv	r3, r3, r0
 8004a12:	6810      	ldr	r0, [r2, #0]
 8004a14:	fbb0 f0f3 	udiv	r0, r0, r3
 8004a18:	f000 f8a8 	bl	8004b6c <HAL_SYSTICK_Config>
 8004a1c:	4604      	mov	r4, r0
 8004a1e:	b958      	cbnz	r0, 8004a38 <HAL_InitTick+0x38>
 8004a20:	2d0f      	cmp	r5, #15
 8004a22:	d809      	bhi.n	8004a38 <HAL_InitTick+0x38>
 8004a24:	4602      	mov	r2, r0
 8004a26:	4629      	mov	r1, r5
 8004a28:	f04f 30ff 	mov.w	r0, #4294967295
 8004a2c:	f000 f85e 	bl	8004aec <HAL_NVIC_SetPriority>
 8004a30:	4b04      	ldr	r3, [pc, #16]	; (8004a44 <HAL_InitTick+0x44>)
 8004a32:	4620      	mov	r0, r4
 8004a34:	601d      	str	r5, [r3, #0]
 8004a36:	bd38      	pop	{r3, r4, r5, pc}
 8004a38:	2001      	movs	r0, #1
 8004a3a:	e7fc      	b.n	8004a36 <HAL_InitTick+0x36>
 8004a3c:	20000004 	.word	0x20000004
 8004a40:	20000008 	.word	0x20000008
 8004a44:	2000000c 	.word	0x2000000c

08004a48 <HAL_Init>:
 8004a48:	b508      	push	{r3, lr}
 8004a4a:	4b0b      	ldr	r3, [pc, #44]	; (8004a78 <HAL_Init+0x30>)
 8004a4c:	681a      	ldr	r2, [r3, #0]
 8004a4e:	f442 7200 	orr.w	r2, r2, #512	; 0x200
 8004a52:	601a      	str	r2, [r3, #0]
 8004a54:	681a      	ldr	r2, [r3, #0]
 8004a56:	f442 6280 	orr.w	r2, r2, #1024	; 0x400
 8004a5a:	601a      	str	r2, [r3, #0]
 8004a5c:	681a      	ldr	r2, [r3, #0]
 8004a5e:	f442 7280 	orr.w	r2, r2, #256	; 0x100
 8004a62:	601a      	str	r2, [r3, #0]
 8004a64:	2003      	movs	r0, #3
 8004a66:	f000 f82f 	bl	8004ac8 <HAL_NVIC_SetPriorityGrouping>
 8004a6a:	200f      	movs	r0, #15
 8004a6c:	f7ff ffc8 	bl	8004a00 <HAL_InitTick>
 8004a70:	f7ff fd5e 	bl	8004530 <HAL_MspInit>
 8004a74:	2000      	movs	r0, #0
 8004a76:	bd08      	pop	{r3, pc}
 8004a78:	40023c00 	.word	0x40023c00

08004a7c <HAL_IncTick>:
 8004a7c:	4a03      	ldr	r2, [pc, #12]	; (8004a8c <HAL_IncTick+0x10>)
 8004a7e:	4b04      	ldr	r3, [pc, #16]	; (8004a90 <HAL_IncTick+0x14>)
 8004a80:	6811      	ldr	r1, [r2, #0]
 8004a82:	781b      	ldrb	r3, [r3, #0]
 8004a84:	440b      	add	r3, r1
 8004a86:	6013      	str	r3, [r2, #0]
 8004a88:	4770      	bx	lr
 8004a8a:	bf00      	nop
 8004a8c:	20000464 	.word	0x20000464
 8004a90:	20000008 	.word	0x20000008

08004a94 <HAL_GetTick>:
 8004a94:	4b01      	ldr	r3, [pc, #4]	; (8004a9c <HAL_GetTick+0x8>)
 8004a96:	6818      	ldr	r0, [r3, #0]
 8004a98:	4770      	bx	lr
 8004a9a:	bf00      	nop
 8004a9c:	20000464 	.word	0x20000464

08004aa0 <HAL_Delay>:
 8004aa0:	b538      	push	{r3, r4, r5, lr}
 8004aa2:	4604      	mov	r4, r0
 8004aa4:	f7ff fff6 	bl	8004a94 <HAL_GetTick>
 8004aa8:	1c63      	adds	r3, r4, #1
 8004aaa:	bf1c      	itt	ne
 8004aac:	4b05      	ldrne	r3, [pc, #20]	; (8004ac4 <HAL_Delay+0x24>)
 8004aae:	781b      	ldrbne	r3, [r3, #0]
 8004ab0:	4605      	mov	r5, r0
 8004ab2:	bf18      	it	ne
 8004ab4:	18e4      	addne	r4, r4, r3
 8004ab6:	f7ff ffed 	bl	8004a94 <HAL_GetTick>
 8004aba:	1b43      	subs	r3, r0, r5
 8004abc:	42a3      	cmp	r3, r4
 8004abe:	d3fa      	bcc.n	8004ab6 <HAL_Delay+0x16>
 8004ac0:	bd38      	pop	{r3, r4, r5, pc}
 8004ac2:	bf00      	nop
 8004ac4:	20000008 	.word	0x20000008

08004ac8 <HAL_NVIC_SetPriorityGrouping>:
 8004ac8:	4907      	ldr	r1, [pc, #28]	; (8004ae8 <HAL_NVIC_SetPriorityGrouping+0x20>)
 8004aca:	68ca      	ldr	r2, [r1, #12]
 8004acc:	f422 62e0 	bic.w	r2, r2, #1792	; 0x700
 8004ad0:	0203      	lsls	r3, r0, #8
 8004ad2:	0412      	lsls	r2, r2, #16
 8004ad4:	f403 63e0 	and.w	r3, r3, #1792	; 0x700
 8004ad8:	0c12      	lsrs	r2, r2, #16
 8004ada:	4313      	orrs	r3, r2
 8004adc:	f043 63bf 	orr.w	r3, r3, #100139008	; 0x5f80000
 8004ae0:	f443 3300 	orr.w	r3, r3, #131072	; 0x20000
 8004ae4:	60cb      	str	r3, [r1, #12]
 8004ae6:	4770      	bx	lr
 8004ae8:	e000ed00 	.word	0xe000ed00

08004aec <HAL_NVIC_SetPriority>:
 8004aec:	4b16      	ldr	r3, [pc, #88]	; (8004b48 <HAL_NVIC_SetPriority+0x5c>)
 8004aee:	b530      	push	{r4, r5, lr}
 8004af0:	68dc      	ldr	r4, [r3, #12]
 8004af2:	f3c4 2402 	ubfx	r4, r4, #8, #3
 8004af6:	f1c4 0507 	rsb	r5, r4, #7
 8004afa:	1d23      	adds	r3, r4, #4
 8004afc:	2d04      	cmp	r5, #4
 8004afe:	bf28      	it	cs
 8004b00:	2504      	movcs	r5, #4
 8004b02:	2b06      	cmp	r3, #6
 8004b04:	f04f 33ff 	mov.w	r3, #4294967295
 8004b08:	bf8c      	ite	hi
 8004b0a:	3c03      	subhi	r4, #3
 8004b0c:	2400      	movls	r4, #0
 8004b0e:	fa03 f505 	lsl.w	r5, r3, r5
 8004b12:	ea21 0105 	bic.w	r1, r1, r5
 8004b16:	40a3      	lsls	r3, r4
 8004b18:	ea22 0203 	bic.w	r2, r2, r3
 8004b1c:	40a1      	lsls	r1, r4
 8004b1e:	2800      	cmp	r0, #0
 8004b20:	ea41 0302 	orr.w	r3, r1, r2
 8004b24:	bfac      	ite	ge
 8004b26:	f100 4060 	addge.w	r0, r0, #3758096384	; 0xe0000000
 8004b2a:	4a08      	ldrlt	r2, [pc, #32]	; (8004b4c <HAL_NVIC_SetPriority+0x60>)
 8004b2c:	ea4f 1303 	mov.w	r3, r3, lsl #4
 8004b30:	bfb8      	it	lt
 8004b32:	f000 000f 	andlt.w	r0, r0, #15
 8004b36:	b2db      	uxtb	r3, r3
 8004b38:	bfaa      	itet	ge
 8004b3a:	f500 4061 	addge.w	r0, r0, #57600	; 0xe100
 8004b3e:	5413      	strblt	r3, [r2, r0]
 8004b40:	f880 3300 	strbge.w	r3, [r0, #768]	; 0x300
 8004b44:	bd30      	pop	{r4, r5, pc}
 8004b46:	bf00      	nop
 8004b48:	e000ed00 	.word	0xe000ed00
 8004b4c:	e000ed14 	.word	0xe000ed14

08004b50 <HAL_NVIC_EnableIRQ>:
 8004b50:	2800      	cmp	r0, #0
 8004b52:	db08      	blt.n	8004b66 <HAL_NVIC_EnableIRQ+0x16>
 8004b54:	0942      	lsrs	r2, r0, #5
 8004b56:	2301      	movs	r3, #1
 8004b58:	f000 001f 	and.w	r0, r0, #31
 8004b5c:	fa03 f000 	lsl.w	r0, r3, r0
 8004b60:	4b01      	ldr	r3, [pc, #4]	; (8004b68 <HAL_NVIC_EnableIRQ+0x18>)
 8004b62:	f843 0022 	str.w	r0, [r3, r2, lsl #2]
 8004b66:	4770      	bx	lr
 8004b68:	e000e100 	.word	0xe000e100

08004b6c <HAL_SYSTICK_Config>:
 8004b6c:	3801      	subs	r0, #1
 8004b6e:	f1b0 7f80 	cmp.w	r0, #16777216	; 0x1000000
 8004b72:	d20b      	bcs.n	8004b8c <HAL_SYSTICK_Config+0x20>
 8004b74:	f04f 23e0 	mov.w	r3, #3758153728	; 0xe000e000
 8004b78:	4a05      	ldr	r2, [pc, #20]	; (8004b90 <HAL_SYSTICK_Config+0x24>)
 8004b7a:	6158      	str	r0, [r3, #20]
 8004b7c:	21f0      	movs	r1, #240	; 0xf0
 8004b7e:	f882 1023 	strb.w	r1, [r2, #35]	; 0x23
 8004b82:	2000      	movs	r0, #0
 8004b84:	2207      	movs	r2, #7
 8004b86:	6198      	str	r0, [r3, #24]
 8004b88:	611a      	str	r2, [r3, #16]
 8004b8a:	4770      	bx	lr
 8004b8c:	2001      	movs	r0, #1
 8004b8e:	4770      	bx	lr
 8004b90:	e000ed00 	.word	0xe000ed00

08004b94 <HAL_DMA_Abort>:
 8004b94:	b570      	push	{r4, r5, r6, lr}
 8004b96:	4604      	mov	r4, r0
 8004b98:	6d86      	ldr	r6, [r0, #88]	; 0x58
 8004b9a:	f7ff ff7b 	bl	8004a94 <HAL_GetTick>
 8004b9e:	f894 3035 	ldrb.w	r3, [r4, #53]	; 0x35
 8004ba2:	2b02      	cmp	r3, #2
 8004ba4:	4605      	mov	r5, r0
 8004ba6:	d006      	beq.n	8004bb6 <HAL_DMA_Abort+0x22>
 8004ba8:	2380      	movs	r3, #128	; 0x80
 8004baa:	6563      	str	r3, [r4, #84]	; 0x54
 8004bac:	2300      	movs	r3, #0
 8004bae:	f884 3034 	strb.w	r3, [r4, #52]	; 0x34
 8004bb2:	2001      	movs	r0, #1
 8004bb4:	bd70      	pop	{r4, r5, r6, pc}
 8004bb6:	6823      	ldr	r3, [r4, #0]
 8004bb8:	681a      	ldr	r2, [r3, #0]
 8004bba:	f022 0216 	bic.w	r2, r2, #22
 8004bbe:	601a      	str	r2, [r3, #0]
 8004bc0:	695a      	ldr	r2, [r3, #20]
 8004bc2:	f022 0280 	bic.w	r2, r2, #128	; 0x80
 8004bc6:	615a      	str	r2, [r3, #20]
 8004bc8:	6c22      	ldr	r2, [r4, #64]	; 0x40
 8004bca:	b90a      	cbnz	r2, 8004bd0 <HAL_DMA_Abort+0x3c>
 8004bcc:	6ca2      	ldr	r2, [r4, #72]	; 0x48
 8004bce:	b11a      	cbz	r2, 8004bd8 <HAL_DMA_Abort+0x44>
 8004bd0:	681a      	ldr	r2, [r3, #0]
 8004bd2:	f022 0208 	bic.w	r2, r2, #8
 8004bd6:	601a      	str	r2, [r3, #0]
 8004bd8:	681a      	ldr	r2, [r3, #0]
 8004bda:	f022 0201 	bic.w	r2, r2, #1
 8004bde:	601a      	str	r2, [r3, #0]
 8004be0:	6823      	ldr	r3, [r4, #0]
 8004be2:	681b      	ldr	r3, [r3, #0]
 8004be4:	f013 0301 	ands.w	r3, r3, #1
 8004be8:	d10a      	bne.n	8004c00 <HAL_DMA_Abort+0x6c>
 8004bea:	6de1      	ldr	r1, [r4, #92]	; 0x5c
 8004bec:	223f      	movs	r2, #63	; 0x3f
 8004bee:	408a      	lsls	r2, r1
 8004bf0:	60b2      	str	r2, [r6, #8]
 8004bf2:	2201      	movs	r2, #1
 8004bf4:	f884 2035 	strb.w	r2, [r4, #53]	; 0x35
 8004bf8:	f884 3034 	strb.w	r3, [r4, #52]	; 0x34
 8004bfc:	4618      	mov	r0, r3
 8004bfe:	e7d9      	b.n	8004bb4 <HAL_DMA_Abort+0x20>
 8004c00:	f7ff ff48 	bl	8004a94 <HAL_GetTick>
 8004c04:	1b40      	subs	r0, r0, r5
 8004c06:	2805      	cmp	r0, #5
 8004c08:	d9ea      	bls.n	8004be0 <HAL_DMA_Abort+0x4c>
 8004c0a:	2320      	movs	r3, #32
 8004c0c:	6563      	str	r3, [r4, #84]	; 0x54
 8004c0e:	2003      	movs	r0, #3
 8004c10:	2300      	movs	r3, #0
 8004c12:	f884 0035 	strb.w	r0, [r4, #53]	; 0x35
 8004c16:	f884 3034 	strb.w	r3, [r4, #52]	; 0x34
 8004c1a:	e7cb      	b.n	8004bb4 <HAL_DMA_Abort+0x20>

08004c1c <HAL_DMA_Abort_IT>:
 8004c1c:	f890 3035 	ldrb.w	r3, [r0, #53]	; 0x35
 8004c20:	2b02      	cmp	r3, #2
 8004c22:	d003      	beq.n	8004c2c <HAL_DMA_Abort_IT+0x10>
 8004c24:	2380      	movs	r3, #128	; 0x80
 8004c26:	6543      	str	r3, [r0, #84]	; 0x54
 8004c28:	2001      	movs	r0, #1
 8004c2a:	4770      	bx	lr
 8004c2c:	6802      	ldr	r2, [r0, #0]
 8004c2e:	2305      	movs	r3, #5
 8004c30:	f880 3035 	strb.w	r3, [r0, #53]	; 0x35
 8004c34:	6813      	ldr	r3, [r2, #0]
 8004c36:	f023 0301 	bic.w	r3, r3, #1
 8004c3a:	6013      	str	r3, [r2, #0]
 8004c3c:	2000      	movs	r0, #0
 8004c3e:	4770      	bx	lr

08004c40 <HAL_DMA_GetState>:
 8004c40:	f890 0035 	ldrb.w	r0, [r0, #53]	; 0x35
 8004c44:	4770      	bx	lr
	...

08004c48 <HAL_GPIO_Init>:
 8004c48:	e92d 4ff7 	stmdb	sp!, {r0, r1, r2, r4, r5, r6, r7, r8, r9, sl, fp, lr}
 8004c4c:	f8df 91a8 	ldr.w	r9, [pc, #424]	; 8004df8 <HAL_GPIO_Init+0x1b0>
 8004c50:	4a67      	ldr	r2, [pc, #412]	; (8004df0 <HAL_GPIO_Init+0x1a8>)
 8004c52:	2300      	movs	r3, #0
 8004c54:	680d      	ldr	r5, [r1, #0]
 8004c56:	2401      	movs	r4, #1
 8004c58:	409c      	lsls	r4, r3
 8004c5a:	ea04 0c05 	and.w	ip, r4, r5
 8004c5e:	43ac      	bics	r4, r5
 8004c60:	f040 80b1 	bne.w	8004dc6 <HAL_GPIO_Init+0x17e>
 8004c64:	684d      	ldr	r5, [r1, #4]
 8004c66:	f005 0403 	and.w	r4, r5, #3
 8004c6a:	ea4f 0843 	mov.w	r8, r3, lsl #1
 8004c6e:	2603      	movs	r6, #3
 8004c70:	1e67      	subs	r7, r4, #1
 8004c72:	fa06 f608 	lsl.w	r6, r6, r8
 8004c76:	2f01      	cmp	r7, #1
 8004c78:	ea6f 0606 	mvn.w	r6, r6
 8004c7c:	d834      	bhi.n	8004ce8 <HAL_GPIO_Init+0xa0>
 8004c7e:	6887      	ldr	r7, [r0, #8]
 8004c80:	ea07 0e06 	and.w	lr, r7, r6
 8004c84:	68cf      	ldr	r7, [r1, #12]
 8004c86:	fa07 f708 	lsl.w	r7, r7, r8
 8004c8a:	ea47 070e 	orr.w	r7, r7, lr
 8004c8e:	6087      	str	r7, [r0, #8]
 8004c90:	6847      	ldr	r7, [r0, #4]
 8004c92:	ea27 0e0c 	bic.w	lr, r7, ip
 8004c96:	f3c5 1700 	ubfx	r7, r5, #4, #1
 8004c9a:	409f      	lsls	r7, r3
 8004c9c:	ea47 070e 	orr.w	r7, r7, lr
 8004ca0:	6047      	str	r7, [r0, #4]
 8004ca2:	68c7      	ldr	r7, [r0, #12]
 8004ca4:	ea07 0e06 	and.w	lr, r7, r6
 8004ca8:	688f      	ldr	r7, [r1, #8]
 8004caa:	fa07 f708 	lsl.w	r7, r7, r8
 8004cae:	ea47 070e 	orr.w	r7, r7, lr
 8004cb2:	2c02      	cmp	r4, #2
 8004cb4:	60c7      	str	r7, [r0, #12]
 8004cb6:	d119      	bne.n	8004cec <HAL_GPIO_Init+0xa4>
 8004cb8:	ea4f 0ad3 	mov.w	sl, r3, lsr #3
 8004cbc:	eb00 0a8a 	add.w	sl, r0, sl, lsl #2
 8004cc0:	f003 0b07 	and.w	fp, r3, #7
 8004cc4:	f8da 7020 	ldr.w	r7, [sl, #32]
 8004cc8:	ea4f 0b8b 	mov.w	fp, fp, lsl #2
 8004ccc:	f04f 0e0f 	mov.w	lr, #15
 8004cd0:	fa0e fe0b 	lsl.w	lr, lr, fp
 8004cd4:	ea27 0e0e 	bic.w	lr, r7, lr
 8004cd8:	690f      	ldr	r7, [r1, #16]
 8004cda:	fa07 f70b 	lsl.w	r7, r7, fp
 8004cde:	ea47 070e 	orr.w	r7, r7, lr
 8004ce2:	f8ca 7020 	str.w	r7, [sl, #32]
 8004ce6:	e001      	b.n	8004cec <HAL_GPIO_Init+0xa4>
 8004ce8:	2c03      	cmp	r4, #3
 8004cea:	d1da      	bne.n	8004ca2 <HAL_GPIO_Init+0x5a>
 8004cec:	6807      	ldr	r7, [r0, #0]
 8004cee:	fa04 f408 	lsl.w	r4, r4, r8
 8004cf2:	403e      	ands	r6, r7
 8004cf4:	4326      	orrs	r6, r4
 8004cf6:	f415 3f40 	tst.w	r5, #196608	; 0x30000
 8004cfa:	6006      	str	r6, [r0, #0]
 8004cfc:	d063      	beq.n	8004dc6 <HAL_GPIO_Init+0x17e>
 8004cfe:	f04f 0a00 	mov.w	sl, #0
 8004d02:	f8cd a004 	str.w	sl, [sp, #4]
 8004d06:	f8d9 6044 	ldr.w	r6, [r9, #68]	; 0x44
 8004d0a:	4c3a      	ldr	r4, [pc, #232]	; (8004df4 <HAL_GPIO_Init+0x1ac>)
 8004d0c:	f446 4680 	orr.w	r6, r6, #16384	; 0x4000
 8004d10:	f8c9 6044 	str.w	r6, [r9, #68]	; 0x44
 8004d14:	f8d9 6044 	ldr.w	r6, [r9, #68]	; 0x44
 8004d18:	f406 4680 	and.w	r6, r6, #16384	; 0x4000
 8004d1c:	9601      	str	r6, [sp, #4]
 8004d1e:	9e01      	ldr	r6, [sp, #4]
 8004d20:	f023 0603 	bic.w	r6, r3, #3
 8004d24:	f106 4680 	add.w	r6, r6, #1073741824	; 0x40000000
 8004d28:	f506 369c 	add.w	r6, r6, #79872	; 0x13800
 8004d2c:	f003 0e03 	and.w	lr, r3, #3
 8004d30:	f8d6 8008 	ldr.w	r8, [r6, #8]
 8004d34:	ea4f 0e8e 	mov.w	lr, lr, lsl #2
 8004d38:	270f      	movs	r7, #15
 8004d3a:	fa07 f70e 	lsl.w	r7, r7, lr
 8004d3e:	42a0      	cmp	r0, r4
 8004d40:	ea28 0707 	bic.w	r7, r8, r7
 8004d44:	d046      	beq.n	8004dd4 <HAL_GPIO_Init+0x18c>
 8004d46:	f504 6480 	add.w	r4, r4, #1024	; 0x400
 8004d4a:	42a0      	cmp	r0, r4
 8004d4c:	d044      	beq.n	8004dd8 <HAL_GPIO_Init+0x190>
 8004d4e:	f504 6480 	add.w	r4, r4, #1024	; 0x400
 8004d52:	42a0      	cmp	r0, r4
 8004d54:	d042      	beq.n	8004ddc <HAL_GPIO_Init+0x194>
 8004d56:	f504 6480 	add.w	r4, r4, #1024	; 0x400
 8004d5a:	42a0      	cmp	r0, r4
 8004d5c:	d040      	beq.n	8004de0 <HAL_GPIO_Init+0x198>
 8004d5e:	f504 6480 	add.w	r4, r4, #1024	; 0x400
 8004d62:	42a0      	cmp	r0, r4
 8004d64:	d03e      	beq.n	8004de4 <HAL_GPIO_Init+0x19c>
 8004d66:	f504 6480 	add.w	r4, r4, #1024	; 0x400
 8004d6a:	42a0      	cmp	r0, r4
 8004d6c:	d03c      	beq.n	8004de8 <HAL_GPIO_Init+0x1a0>
 8004d6e:	f504 6480 	add.w	r4, r4, #1024	; 0x400
 8004d72:	42a0      	cmp	r0, r4
 8004d74:	d03a      	beq.n	8004dec <HAL_GPIO_Init+0x1a4>
 8004d76:	f504 6480 	add.w	r4, r4, #1024	; 0x400
 8004d7a:	42a0      	cmp	r0, r4
 8004d7c:	bf0c      	ite	eq
 8004d7e:	2407      	moveq	r4, #7
 8004d80:	2408      	movne	r4, #8
 8004d82:	fa04 f40e 	lsl.w	r4, r4, lr
 8004d86:	433c      	orrs	r4, r7
 8004d88:	60b4      	str	r4, [r6, #8]
 8004d8a:	6894      	ldr	r4, [r2, #8]
 8004d8c:	ea6f 060c 	mvn.w	r6, ip
 8004d90:	02ef      	lsls	r7, r5, #11
 8004d92:	bf54      	ite	pl
 8004d94:	4034      	andpl	r4, r6
 8004d96:	ea4c 0404 	orrmi.w	r4, ip, r4
 8004d9a:	6094      	str	r4, [r2, #8]
 8004d9c:	68d4      	ldr	r4, [r2, #12]
 8004d9e:	02af      	lsls	r7, r5, #10
 8004da0:	bf54      	ite	pl
 8004da2:	4034      	andpl	r4, r6
 8004da4:	ea4c 0404 	orrmi.w	r4, ip, r4
 8004da8:	60d4      	str	r4, [r2, #12]
 8004daa:	6854      	ldr	r4, [r2, #4]
 8004dac:	03af      	lsls	r7, r5, #14
 8004dae:	bf54      	ite	pl
 8004db0:	4034      	andpl	r4, r6
 8004db2:	ea4c 0404 	orrmi.w	r4, ip, r4
 8004db6:	6054      	str	r4, [r2, #4]
 8004db8:	6814      	ldr	r4, [r2, #0]
 8004dba:	03ed      	lsls	r5, r5, #15
 8004dbc:	bf54      	ite	pl
 8004dbe:	4034      	andpl	r4, r6
 8004dc0:	ea4c 0404 	orrmi.w	r4, ip, r4
 8004dc4:	6014      	str	r4, [r2, #0]
 8004dc6:	3301      	adds	r3, #1
 8004dc8:	2b10      	cmp	r3, #16
 8004dca:	f47f af43 	bne.w	8004c54 <HAL_GPIO_Init+0xc>
 8004dce:	b003      	add	sp, #12
 8004dd0:	e8bd 8ff0 	ldmia.w	sp!, {r4, r5, r6, r7, r8, r9, sl, fp, pc}
 8004dd4:	4654      	mov	r4, sl
 8004dd6:	e7d4      	b.n	8004d82 <HAL_GPIO_Init+0x13a>
 8004dd8:	2401      	movs	r4, #1
 8004dda:	e7d2      	b.n	8004d82 <HAL_GPIO_Init+0x13a>
 8004ddc:	2402      	movs	r4, #2
 8004dde:	e7d0      	b.n	8004d82 <HAL_GPIO_Init+0x13a>
 8004de0:	2403      	movs	r4, #3
 8004de2:	e7ce      	b.n	8004d82 <HAL_GPIO_Init+0x13a>
 8004de4:	2404      	movs	r4, #4
 8004de6:	e7cc      	b.n	8004d82 <HAL_GPIO_Init+0x13a>
 8004de8:	2405      	movs	r4, #5
 8004dea:	e7ca      	b.n	8004d82 <HAL_GPIO_Init+0x13a>
 8004dec:	2406      	movs	r4, #6
 8004dee:	e7c8      	b.n	8004d82 <HAL_GPIO_Init+0x13a>
 8004df0:	40013c00 	.word	0x40013c00
 8004df4:	40020000 	.word	0x40020000
 8004df8:	40023800 	.word	0x40023800

08004dfc <HAL_GPIO_WritePin>:
 8004dfc:	b10a      	cbz	r2, 8004e02 <HAL_GPIO_WritePin+0x6>
 8004dfe:	6181      	str	r1, [r0, #24]
 8004e00:	4770      	bx	lr
 8004e02:	0409      	lsls	r1, r1, #16
 8004e04:	e7fb      	b.n	8004dfe <HAL_GPIO_WritePin+0x2>

08004e06 <HAL_GPIO_TogglePin>:
 8004e06:	6943      	ldr	r3, [r0, #20]
 8004e08:	ea01 0203 	and.w	r2, r1, r3
 8004e0c:	ea21 0103 	bic.w	r1, r1, r3
 8004e10:	ea41 4102 	orr.w	r1, r1, r2, lsl #16
 8004e14:	6181      	str	r1, [r0, #24]
 8004e16:	4770      	bx	lr

08004e18 <I2C_IsAcknowledgeFailed>:
 8004e18:	6801      	ldr	r1, [r0, #0]
 8004e1a:	694b      	ldr	r3, [r1, #20]
 8004e1c:	f413 6380 	ands.w	r3, r3, #1024	; 0x400
 8004e20:	f04f 0200 	mov.w	r2, #0
 8004e24:	d010      	beq.n	8004e48 <I2C_IsAcknowledgeFailed+0x30>
 8004e26:	f46f 6380 	mvn.w	r3, #1024	; 0x400
 8004e2a:	614b      	str	r3, [r1, #20]
 8004e2c:	2320      	movs	r3, #32
 8004e2e:	6302      	str	r2, [r0, #48]	; 0x30
 8004e30:	f880 303d 	strb.w	r3, [r0, #61]	; 0x3d
 8004e34:	f880 203e 	strb.w	r2, [r0, #62]	; 0x3e
 8004e38:	6c03      	ldr	r3, [r0, #64]	; 0x40
 8004e3a:	f880 203c 	strb.w	r2, [r0, #60]	; 0x3c
 8004e3e:	f043 0304 	orr.w	r3, r3, #4
 8004e42:	6403      	str	r3, [r0, #64]	; 0x40
 8004e44:	2001      	movs	r0, #1
 8004e46:	4770      	bx	lr
 8004e48:	4618      	mov	r0, r3
 8004e4a:	4770      	bx	lr

08004e4c <I2C_WaitOnFlagUntilTimeout>:
 8004e4c:	e92d 46f8 	stmdb	sp!, {r3, r4, r5, r6, r7, r9, sl, lr}
 8004e50:	4606      	mov	r6, r0
 8004e52:	460f      	mov	r7, r1
 8004e54:	4691      	mov	r9, r2
 8004e56:	461d      	mov	r5, r3
 8004e58:	ea4f 4a11 	mov.w	sl, r1, lsr #16
 8004e5c:	6833      	ldr	r3, [r6, #0]
 8004e5e:	f1ba 0f01 	cmp.w	sl, #1
 8004e62:	bf0c      	ite	eq
 8004e64:	695c      	ldreq	r4, [r3, #20]
 8004e66:	699c      	ldrne	r4, [r3, #24]
 8004e68:	ea27 0404 	bic.w	r4, r7, r4
 8004e6c:	b2a4      	uxth	r4, r4
 8004e6e:	fab4 f484 	clz	r4, r4
 8004e72:	0964      	lsrs	r4, r4, #5
 8004e74:	45a1      	cmp	r9, r4
 8004e76:	d001      	beq.n	8004e7c <I2C_WaitOnFlagUntilTimeout+0x30>
 8004e78:	2000      	movs	r0, #0
 8004e7a:	e017      	b.n	8004eac <I2C_WaitOnFlagUntilTimeout+0x60>
 8004e7c:	1c6a      	adds	r2, r5, #1
 8004e7e:	d0ee      	beq.n	8004e5e <I2C_WaitOnFlagUntilTimeout+0x12>
 8004e80:	f7ff fe08 	bl	8004a94 <HAL_GetTick>
 8004e84:	9b08      	ldr	r3, [sp, #32]
 8004e86:	1ac0      	subs	r0, r0, r3
 8004e88:	42a8      	cmp	r0, r5
 8004e8a:	d801      	bhi.n	8004e90 <I2C_WaitOnFlagUntilTimeout+0x44>
 8004e8c:	2d00      	cmp	r5, #0
 8004e8e:	d1e5      	bne.n	8004e5c <I2C_WaitOnFlagUntilTimeout+0x10>
 8004e90:	2300      	movs	r3, #0
 8004e92:	2220      	movs	r2, #32
 8004e94:	6333      	str	r3, [r6, #48]	; 0x30
 8004e96:	f886 203d 	strb.w	r2, [r6, #61]	; 0x3d
 8004e9a:	f886 303e 	strb.w	r3, [r6, #62]	; 0x3e
 8004e9e:	6c32      	ldr	r2, [r6, #64]	; 0x40
 8004ea0:	f886 303c 	strb.w	r3, [r6, #60]	; 0x3c
 8004ea4:	f042 0220 	orr.w	r2, r2, #32
 8004ea8:	6432      	str	r2, [r6, #64]	; 0x40
 8004eaa:	2001      	movs	r0, #1
 8004eac:	e8bd 86f8 	ldmia.w	sp!, {r3, r4, r5, r6, r7, r9, sl, pc}

08004eb0 <I2C_WaitOnMasterAddressFlagUntilTimeout>:
 8004eb0:	e92d 41f0 	stmdb	sp!, {r4, r5, r6, r7, r8, lr}
 8004eb4:	4604      	mov	r4, r0
 8004eb6:	460f      	mov	r7, r1
 8004eb8:	4616      	mov	r6, r2
 8004eba:	4698      	mov	r8, r3
 8004ebc:	6825      	ldr	r5, [r4, #0]
 8004ebe:	6968      	ldr	r0, [r5, #20]
 8004ec0:	ea27 0000 	bic.w	r0, r7, r0
 8004ec4:	b280      	uxth	r0, r0
 8004ec6:	b1b8      	cbz	r0, 8004ef8 <I2C_WaitOnMasterAddressFlagUntilTimeout+0x48>
 8004ec8:	696b      	ldr	r3, [r5, #20]
 8004eca:	055a      	lsls	r2, r3, #21
 8004ecc:	d516      	bpl.n	8004efc <I2C_WaitOnMasterAddressFlagUntilTimeout+0x4c>
 8004ece:	682b      	ldr	r3, [r5, #0]
 8004ed0:	f443 7300 	orr.w	r3, r3, #512	; 0x200
 8004ed4:	602b      	str	r3, [r5, #0]
 8004ed6:	f46f 6380 	mvn.w	r3, #1024	; 0x400
 8004eda:	616b      	str	r3, [r5, #20]
 8004edc:	2220      	movs	r2, #32
 8004ede:	2300      	movs	r3, #0
 8004ee0:	6323      	str	r3, [r4, #48]	; 0x30
 8004ee2:	f884 203d 	strb.w	r2, [r4, #61]	; 0x3d
 8004ee6:	f884 303e 	strb.w	r3, [r4, #62]	; 0x3e
 8004eea:	6c22      	ldr	r2, [r4, #64]	; 0x40
 8004eec:	f042 0204 	orr.w	r2, r2, #4
 8004ef0:	6422      	str	r2, [r4, #64]	; 0x40
 8004ef2:	f884 303c 	strb.w	r3, [r4, #60]	; 0x3c
 8004ef6:	2001      	movs	r0, #1
 8004ef8:	e8bd 81f0 	ldmia.w	sp!, {r4, r5, r6, r7, r8, pc}
 8004efc:	1c73      	adds	r3, r6, #1
 8004efe:	d0de      	beq.n	8004ebe <I2C_WaitOnMasterAddressFlagUntilTimeout+0xe>
 8004f00:	f7ff fdc8 	bl	8004a94 <HAL_GetTick>
 8004f04:	eba0 0008 	sub.w	r0, r0, r8
 8004f08:	42b0      	cmp	r0, r6
 8004f0a:	d801      	bhi.n	8004f10 <I2C_WaitOnMasterAddressFlagUntilTimeout+0x60>
 8004f0c:	2e00      	cmp	r6, #0
 8004f0e:	d1d5      	bne.n	8004ebc <I2C_WaitOnMasterAddressFlagUntilTimeout+0xc>
 8004f10:	2300      	movs	r3, #0
 8004f12:	2220      	movs	r2, #32
 8004f14:	6323      	str	r3, [r4, #48]	; 0x30
 8004f16:	f884 203d 	strb.w	r2, [r4, #61]	; 0x3d
 8004f1a:	f884 303e 	strb.w	r3, [r4, #62]	; 0x3e
 8004f1e:	6c22      	ldr	r2, [r4, #64]	; 0x40
 8004f20:	f042 0220 	orr.w	r2, r2, #32
 8004f24:	e7e4      	b.n	8004ef0 <I2C_WaitOnMasterAddressFlagUntilTimeout+0x40>

08004f26 <I2C_WaitOnRXNEFlagUntilTimeout>:
 8004f26:	b570      	push	{r4, r5, r6, lr}
 8004f28:	4604      	mov	r4, r0
 8004f2a:	460d      	mov	r5, r1
 8004f2c:	4616      	mov	r6, r2
 8004f2e:	6821      	ldr	r1, [r4, #0]
 8004f30:	694b      	ldr	r3, [r1, #20]
 8004f32:	f013 0340 	ands.w	r3, r3, #64	; 0x40
 8004f36:	d001      	beq.n	8004f3c <I2C_WaitOnRXNEFlagUntilTimeout+0x16>
 8004f38:	2000      	movs	r0, #0
 8004f3a:	e010      	b.n	8004f5e <I2C_WaitOnRXNEFlagUntilTimeout+0x38>
 8004f3c:	694a      	ldr	r2, [r1, #20]
 8004f3e:	06d2      	lsls	r2, r2, #27
 8004f40:	d50e      	bpl.n	8004f60 <I2C_WaitOnRXNEFlagUntilTimeout+0x3a>
 8004f42:	f06f 0210 	mvn.w	r2, #16
 8004f46:	614a      	str	r2, [r1, #20]
 8004f48:	2220      	movs	r2, #32
 8004f4a:	6323      	str	r3, [r4, #48]	; 0x30
 8004f4c:	f884 203d 	strb.w	r2, [r4, #61]	; 0x3d
 8004f50:	f884 303e 	strb.w	r3, [r4, #62]	; 0x3e
 8004f54:	6c22      	ldr	r2, [r4, #64]	; 0x40
 8004f56:	6422      	str	r2, [r4, #64]	; 0x40
 8004f58:	f884 303c 	strb.w	r3, [r4, #60]	; 0x3c
 8004f5c:	2001      	movs	r0, #1
 8004f5e:	bd70      	pop	{r4, r5, r6, pc}
 8004f60:	f7ff fd98 	bl	8004a94 <HAL_GetTick>
 8004f64:	1b80      	subs	r0, r0, r6
 8004f66:	42a8      	cmp	r0, r5
 8004f68:	d801      	bhi.n	8004f6e <I2C_WaitOnRXNEFlagUntilTimeout+0x48>
 8004f6a:	2d00      	cmp	r5, #0
 8004f6c:	d1df      	bne.n	8004f2e <I2C_WaitOnRXNEFlagUntilTimeout+0x8>
 8004f6e:	2300      	movs	r3, #0
 8004f70:	2220      	movs	r2, #32
 8004f72:	6323      	str	r3, [r4, #48]	; 0x30
 8004f74:	f884 203d 	strb.w	r2, [r4, #61]	; 0x3d
 8004f78:	f884 303e 	strb.w	r3, [r4, #62]	; 0x3e
 8004f7c:	6c22      	ldr	r2, [r4, #64]	; 0x40
 8004f7e:	f042 0220 	orr.w	r2, r2, #32
 8004f82:	e7e8      	b.n	8004f56 <I2C_WaitOnRXNEFlagUntilTimeout+0x30>

08004f84 <I2C_WaitOnBTFFlagUntilTimeout>:
 8004f84:	b570      	push	{r4, r5, r6, lr}
 8004f86:	4604      	mov	r4, r0
 8004f88:	460d      	mov	r5, r1
 8004f8a:	4616      	mov	r6, r2
 8004f8c:	6823      	ldr	r3, [r4, #0]
 8004f8e:	695b      	ldr	r3, [r3, #20]
 8004f90:	075b      	lsls	r3, r3, #29
 8004f92:	d501      	bpl.n	8004f98 <I2C_WaitOnBTFFlagUntilTimeout+0x14>
 8004f94:	2000      	movs	r0, #0
 8004f96:	bd70      	pop	{r4, r5, r6, pc}
 8004f98:	4620      	mov	r0, r4
 8004f9a:	f7ff ff3d 	bl	8004e18 <I2C_IsAcknowledgeFailed>
 8004f9e:	b9a8      	cbnz	r0, 8004fcc <I2C_WaitOnBTFFlagUntilTimeout+0x48>
 8004fa0:	1c6a      	adds	r2, r5, #1
 8004fa2:	d0f3      	beq.n	8004f8c <I2C_WaitOnBTFFlagUntilTimeout+0x8>
 8004fa4:	f7ff fd76 	bl	8004a94 <HAL_GetTick>
 8004fa8:	1b80      	subs	r0, r0, r6
 8004faa:	42a8      	cmp	r0, r5
 8004fac:	d801      	bhi.n	8004fb2 <I2C_WaitOnBTFFlagUntilTimeout+0x2e>
 8004fae:	2d00      	cmp	r5, #0
 8004fb0:	d1ec      	bne.n	8004f8c <I2C_WaitOnBTFFlagUntilTimeout+0x8>
 8004fb2:	2300      	movs	r3, #0
 8004fb4:	2220      	movs	r2, #32
 8004fb6:	6323      	str	r3, [r4, #48]	; 0x30
 8004fb8:	f884 203d 	strb.w	r2, [r4, #61]	; 0x3d
 8004fbc:	f884 303e 	strb.w	r3, [r4, #62]	; 0x3e
 8004fc0:	6c22      	ldr	r2, [r4, #64]	; 0x40
 8004fc2:	f884 303c 	strb.w	r3, [r4, #60]	; 0x3c
 8004fc6:	f042 0220 	orr.w	r2, r2, #32
 8004fca:	6422      	str	r2, [r4, #64]	; 0x40
 8004fcc:	2001      	movs	r0, #1
 8004fce:	e7e2      	b.n	8004f96 <I2C_WaitOnBTFFlagUntilTimeout+0x12>

08004fd0 <I2C_WaitOnTXEFlagUntilTimeout>:
 8004fd0:	b570      	push	{r4, r5, r6, lr}
 8004fd2:	4604      	mov	r4, r0
 8004fd4:	460d      	mov	r5, r1
 8004fd6:	4616      	mov	r6, r2
 8004fd8:	6823      	ldr	r3, [r4, #0]
 8004fda:	695b      	ldr	r3, [r3, #20]
 8004fdc:	061b      	lsls	r3, r3, #24
 8004fde:	d501      	bpl.n	8004fe4 <I2C_WaitOnTXEFlagUntilTimeout+0x14>
 8004fe0:	2000      	movs	r0, #0
 8004fe2:	bd70      	pop	{r4, r5, r6, pc}
 8004fe4:	4620      	mov	r0, r4
 8004fe6:	f7ff ff17 	bl	8004e18 <I2C_IsAcknowledgeFailed>
 8004fea:	b9a8      	cbnz	r0, 8005018 <I2C_WaitOnTXEFlagUntilTimeout+0x48>
 8004fec:	1c6a      	adds	r2, r5, #1
 8004fee:	d0f3      	beq.n	8004fd8 <I2C_WaitOnTXEFlagUntilTimeout+0x8>
 8004ff0:	f7ff fd50 	bl	8004a94 <HAL_GetTick>
 8004ff4:	1b80      	subs	r0, r0, r6
 8004ff6:	42a8      	cmp	r0, r5
 8004ff8:	d801      	bhi.n	8004ffe <I2C_WaitOnTXEFlagUntilTimeout+0x2e>
 8004ffa:	2d00      	cmp	r5, #0
 8004ffc:	d1ec      	bne.n	8004fd8 <I2C_WaitOnTXEFlagUntilTimeout+0x8>
 8004ffe:	2300      	movs	r3, #0
 8005000:	2220      	movs	r2, #32
 8005002:	6323      	str	r3, [r4, #48]	; 0x30
 8005004:	f884 203d 	strb.w	r2, [r4, #61]	; 0x3d
 8005008:	f884 303e 	strb.w	r3, [r4, #62]	; 0x3e
 800500c:	6c22      	ldr	r2, [r4, #64]	; 0x40
 800500e:	f884 303c 	strb.w	r3, [r4, #60]	; 0x3c
 8005012:	f042 0220 	orr.w	r2, r2, #32
 8005016:	6422      	str	r2, [r4, #64]	; 0x40
 8005018:	2001      	movs	r0, #1
 800501a:	e7e2      	b.n	8004fe2 <I2C_WaitOnTXEFlagUntilTimeout+0x12>

0800501c <HAL_I2C_Init>:
 800501c:	b570      	push	{r4, r5, r6, lr}
 800501e:	4604      	mov	r4, r0
 8005020:	b908      	cbnz	r0, 8005026 <HAL_I2C_Init+0xa>
 8005022:	2001      	movs	r0, #1
 8005024:	bd70      	pop	{r4, r5, r6, pc}
 8005026:	f890 303d 	ldrb.w	r3, [r0, #61]	; 0x3d
 800502a:	f003 02ff 	and.w	r2, r3, #255	; 0xff
 800502e:	b91b      	cbnz	r3, 8005038 <HAL_I2C_Init+0x1c>
 8005030:	f880 203c 	strb.w	r2, [r0, #60]	; 0x3c
 8005034:	f7ff fa9c 	bl	8004570 <HAL_I2C_MspInit>
 8005038:	2324      	movs	r3, #36	; 0x24
 800503a:	f884 303d 	strb.w	r3, [r4, #61]	; 0x3d
 800503e:	6823      	ldr	r3, [r4, #0]
 8005040:	681a      	ldr	r2, [r3, #0]
 8005042:	f022 0201 	bic.w	r2, r2, #1
 8005046:	601a      	str	r2, [r3, #0]
 8005048:	681a      	ldr	r2, [r3, #0]
 800504a:	f442 4200 	orr.w	r2, r2, #32768	; 0x8000
 800504e:	601a      	str	r2, [r3, #0]
 8005050:	681a      	ldr	r2, [r3, #0]
 8005052:	f422 4200 	bic.w	r2, r2, #32768	; 0x8000
 8005056:	601a      	str	r2, [r3, #0]
 8005058:	f001 fafe 	bl	8006658 <HAL_RCC_GetPCLK1Freq>
 800505c:	4b3f      	ldr	r3, [pc, #252]	; (800515c <HAL_I2C_Init+0x140>)
 800505e:	6865      	ldr	r5, [r4, #4]
 8005060:	429d      	cmp	r5, r3
 8005062:	bf94      	ite	ls
 8005064:	4b3e      	ldrls	r3, [pc, #248]	; (8005160 <HAL_I2C_Init+0x144>)
 8005066:	4b3f      	ldrhi	r3, [pc, #252]	; (8005164 <HAL_I2C_Init+0x148>)
 8005068:	4298      	cmp	r0, r3
 800506a:	bf8c      	ite	hi
 800506c:	2300      	movhi	r3, #0
 800506e:	2301      	movls	r3, #1
 8005070:	2b00      	cmp	r3, #0
 8005072:	d1d6      	bne.n	8005022 <HAL_I2C_Init+0x6>
 8005074:	6822      	ldr	r2, [r4, #0]
 8005076:	4e39      	ldr	r6, [pc, #228]	; (800515c <HAL_I2C_Init+0x140>)
 8005078:	6853      	ldr	r3, [r2, #4]
 800507a:	493b      	ldr	r1, [pc, #236]	; (8005168 <HAL_I2C_Init+0x14c>)
 800507c:	fbb0 f1f1 	udiv	r1, r0, r1
 8005080:	f023 033f 	bic.w	r3, r3, #63	; 0x3f
 8005084:	430b      	orrs	r3, r1
 8005086:	42b5      	cmp	r5, r6
 8005088:	6053      	str	r3, [r2, #4]
 800508a:	bf88      	it	hi
 800508c:	f44f 7696 	movhi.w	r6, #300	; 0x12c
 8005090:	6a13      	ldr	r3, [r2, #32]
 8005092:	bf88      	it	hi
 8005094:	4371      	mulhi	r1, r6
 8005096:	f023 033f 	bic.w	r3, r3, #63	; 0x3f
 800509a:	bf84      	itt	hi
 800509c:	f44f 767a 	movhi.w	r6, #1000	; 0x3e8
 80050a0:	fbb1 f1f6 	udivhi	r1, r1, r6
 80050a4:	3101      	adds	r1, #1
 80050a6:	4319      	orrs	r1, r3
 80050a8:	6211      	str	r1, [r2, #32]
 80050aa:	69d1      	ldr	r1, [r2, #28]
 80050ac:	1e43      	subs	r3, r0, #1
 80050ae:	482b      	ldr	r0, [pc, #172]	; (800515c <HAL_I2C_Init+0x140>)
 80050b0:	f421 414f 	bic.w	r1, r1, #52992	; 0xcf00
 80050b4:	4285      	cmp	r5, r0
 80050b6:	f021 01ff 	bic.w	r1, r1, #255	; 0xff
 80050ba:	d832      	bhi.n	8005122 <HAL_I2C_Init+0x106>
 80050bc:	006d      	lsls	r5, r5, #1
 80050be:	f640 70fc 	movw	r0, #4092	; 0xffc
 80050c2:	fbb3 f3f5 	udiv	r3, r3, r5
 80050c6:	3301      	adds	r3, #1
 80050c8:	4203      	tst	r3, r0
 80050ca:	d042      	beq.n	8005152 <HAL_I2C_Init+0x136>
 80050cc:	f3c3 030b 	ubfx	r3, r3, #0, #12
 80050d0:	430b      	orrs	r3, r1
 80050d2:	61d3      	str	r3, [r2, #28]
 80050d4:	e9d4 3007 	ldrd	r3, r0, [r4, #28]
 80050d8:	6811      	ldr	r1, [r2, #0]
 80050da:	4303      	orrs	r3, r0
 80050dc:	f021 01c0 	bic.w	r1, r1, #192	; 0xc0
 80050e0:	430b      	orrs	r3, r1
 80050e2:	6013      	str	r3, [r2, #0]
 80050e4:	6891      	ldr	r1, [r2, #8]
 80050e6:	e9d4 0303 	ldrd	r0, r3, [r4, #12]
 80050ea:	f421 4103 	bic.w	r1, r1, #33536	; 0x8300
 80050ee:	4303      	orrs	r3, r0
 80050f0:	f021 01ff 	bic.w	r1, r1, #255	; 0xff
 80050f4:	430b      	orrs	r3, r1
 80050f6:	6093      	str	r3, [r2, #8]
 80050f8:	e9d4 3005 	ldrd	r3, r0, [r4, #20]
 80050fc:	68d1      	ldr	r1, [r2, #12]
 80050fe:	4303      	orrs	r3, r0
 8005100:	f021 01ff 	bic.w	r1, r1, #255	; 0xff
 8005104:	430b      	orrs	r3, r1
 8005106:	60d3      	str	r3, [r2, #12]
 8005108:	6813      	ldr	r3, [r2, #0]
 800510a:	f043 0301 	orr.w	r3, r3, #1
 800510e:	6013      	str	r3, [r2, #0]
 8005110:	2000      	movs	r0, #0
 8005112:	2320      	movs	r3, #32
 8005114:	6420      	str	r0, [r4, #64]	; 0x40
 8005116:	f884 303d 	strb.w	r3, [r4, #61]	; 0x3d
 800511a:	6320      	str	r0, [r4, #48]	; 0x30
 800511c:	f884 003e 	strb.w	r0, [r4, #62]	; 0x3e
 8005120:	e780      	b.n	8005024 <HAL_I2C_Init+0x8>
 8005122:	68a0      	ldr	r0, [r4, #8]
 8005124:	b950      	cbnz	r0, 800513c <HAL_I2C_Init+0x120>
 8005126:	eb05 0545 	add.w	r5, r5, r5, lsl #1
 800512a:	fbb3 f3f5 	udiv	r3, r3, r5
 800512e:	3301      	adds	r3, #1
 8005130:	f3c3 030b 	ubfx	r3, r3, #0, #12
 8005134:	b17b      	cbz	r3, 8005156 <HAL_I2C_Init+0x13a>
 8005136:	f443 4300 	orr.w	r3, r3, #32768	; 0x8000
 800513a:	e7c9      	b.n	80050d0 <HAL_I2C_Init+0xb4>
 800513c:	2019      	movs	r0, #25
 800513e:	4345      	muls	r5, r0
 8005140:	fbb3 f3f5 	udiv	r3, r3, r5
 8005144:	3301      	adds	r3, #1
 8005146:	f3c3 030b 	ubfx	r3, r3, #0, #12
 800514a:	b123      	cbz	r3, 8005156 <HAL_I2C_Init+0x13a>
 800514c:	f443 4340 	orr.w	r3, r3, #49152	; 0xc000
 8005150:	e7be      	b.n	80050d0 <HAL_I2C_Init+0xb4>
 8005152:	2304      	movs	r3, #4
 8005154:	e7bc      	b.n	80050d0 <HAL_I2C_Init+0xb4>
 8005156:	2301      	movs	r3, #1
 8005158:	e7ba      	b.n	80050d0 <HAL_I2C_Init+0xb4>
 800515a:	bf00      	nop
 800515c:	000186a0 	.word	0x000186a0
 8005160:	001e847f 	.word	0x001e847f
 8005164:	003d08ff 	.word	0x003d08ff
 8005168:	000f4240 	.word	0x000f4240

0800516c <HAL_I2C_Master_Transmit>:
 800516c:	e92d 43f0 	stmdb	sp!, {r4, r5, r6, r7, r8, r9, lr}
 8005170:	4604      	mov	r4, r0
 8005172:	b085      	sub	sp, #20
 8005174:	4698      	mov	r8, r3
 8005176:	9f0c      	ldr	r7, [sp, #48]	; 0x30
 8005178:	460d      	mov	r5, r1
 800517a:	4691      	mov	r9, r2
 800517c:	f7ff fc8a 	bl	8004a94 <HAL_GetTick>
 8005180:	f894 303d 	ldrb.w	r3, [r4, #61]	; 0x3d
 8005184:	2b20      	cmp	r3, #32
 8005186:	4606      	mov	r6, r0
 8005188:	d004      	beq.n	8005194 <HAL_I2C_Master_Transmit+0x28>
 800518a:	2502      	movs	r5, #2
 800518c:	4628      	mov	r0, r5
 800518e:	b005      	add	sp, #20
 8005190:	e8bd 83f0 	ldmia.w	sp!, {r4, r5, r6, r7, r8, r9, pc}
 8005194:	9000      	str	r0, [sp, #0]
 8005196:	495d      	ldr	r1, [pc, #372]	; (800530c <HAL_I2C_Master_Transmit+0x1a0>)
 8005198:	2319      	movs	r3, #25
 800519a:	2201      	movs	r2, #1
 800519c:	4620      	mov	r0, r4
 800519e:	f7ff fe55 	bl	8004e4c <I2C_WaitOnFlagUntilTimeout>
 80051a2:	2800      	cmp	r0, #0
 80051a4:	d1f1      	bne.n	800518a <HAL_I2C_Master_Transmit+0x1e>
 80051a6:	f894 303c 	ldrb.w	r3, [r4, #60]	; 0x3c
 80051aa:	2b01      	cmp	r3, #1
 80051ac:	d0ed      	beq.n	800518a <HAL_I2C_Master_Transmit+0x1e>
 80051ae:	6821      	ldr	r1, [r4, #0]
 80051b0:	2301      	movs	r3, #1
 80051b2:	f884 303c 	strb.w	r3, [r4, #60]	; 0x3c
 80051b6:	680b      	ldr	r3, [r1, #0]
 80051b8:	07da      	lsls	r2, r3, #31
 80051ba:	bf5e      	ittt	pl
 80051bc:	680b      	ldrpl	r3, [r1, #0]
 80051be:	f043 0301 	orrpl.w	r3, r3, #1
 80051c2:	600b      	strpl	r3, [r1, #0]
 80051c4:	680b      	ldr	r3, [r1, #0]
 80051c6:	f423 6300 	bic.w	r3, r3, #2048	; 0x800
 80051ca:	600b      	str	r3, [r1, #0]
 80051cc:	2321      	movs	r3, #33	; 0x21
 80051ce:	f884 303d 	strb.w	r3, [r4, #61]	; 0x3d
 80051d2:	2310      	movs	r3, #16
 80051d4:	f884 303e 	strb.w	r3, [r4, #62]	; 0x3e
 80051d8:	2300      	movs	r3, #0
 80051da:	6423      	str	r3, [r4, #64]	; 0x40
 80051dc:	f8a4 802a 	strh.w	r8, [r4, #42]	; 0x2a
 80051e0:	8d63      	ldrh	r3, [r4, #42]	; 0x2a
 80051e2:	8523      	strh	r3, [r4, #40]	; 0x28
 80051e4:	4b4a      	ldr	r3, [pc, #296]	; (8005310 <HAL_I2C_Master_Transmit+0x1a4>)
 80051e6:	62e3      	str	r3, [r4, #44]	; 0x2c
 80051e8:	6ae3      	ldr	r3, [r4, #44]	; 0x2c
 80051ea:	f8c4 9024 	str.w	r9, [r4, #36]	; 0x24
 80051ee:	2b08      	cmp	r3, #8
 80051f0:	d004      	beq.n	80051fc <HAL_I2C_Master_Transmit+0x90>
 80051f2:	2b01      	cmp	r3, #1
 80051f4:	d002      	beq.n	80051fc <HAL_I2C_Master_Transmit+0x90>
 80051f6:	f513 3f80 	cmn.w	r3, #65536	; 0x10000
 80051fa:	d104      	bne.n	8005206 <HAL_I2C_Master_Transmit+0x9a>
 80051fc:	680b      	ldr	r3, [r1, #0]
 80051fe:	f443 7380 	orr.w	r3, r3, #256	; 0x100
 8005202:	600b      	str	r3, [r1, #0]
 8005204:	e002      	b.n	800520c <HAL_I2C_Master_Transmit+0xa0>
 8005206:	6b23      	ldr	r3, [r4, #48]	; 0x30
 8005208:	2b12      	cmp	r3, #18
 800520a:	d0f7      	beq.n	80051fc <HAL_I2C_Master_Transmit+0x90>
 800520c:	2200      	movs	r2, #0
 800520e:	9600      	str	r6, [sp, #0]
 8005210:	463b      	mov	r3, r7
 8005212:	f04f 1101 	mov.w	r1, #65537	; 0x10001
 8005216:	4620      	mov	r0, r4
 8005218:	f7ff fe18 	bl	8004e4c <I2C_WaitOnFlagUntilTimeout>
 800521c:	6822      	ldr	r2, [r4, #0]
 800521e:	b138      	cbz	r0, 8005230 <HAL_I2C_Master_Transmit+0xc4>
 8005220:	6813      	ldr	r3, [r2, #0]
 8005222:	05db      	lsls	r3, r3, #23
 8005224:	bf44      	itt	mi
 8005226:	f44f 7300 	movmi.w	r3, #512	; 0x200
 800522a:	6423      	strmi	r3, [r4, #64]	; 0x40
 800522c:	2501      	movs	r5, #1
 800522e:	e7ad      	b.n	800518c <HAL_I2C_Master_Transmit+0x20>
 8005230:	6923      	ldr	r3, [r4, #16]
 8005232:	f5b3 4f80 	cmp.w	r3, #16384	; 0x4000
 8005236:	d121      	bne.n	800527c <HAL_I2C_Master_Transmit+0x110>
 8005238:	f005 05fe 	and.w	r5, r5, #254	; 0xfe
 800523c:	6115      	str	r5, [r2, #16]
 800523e:	4935      	ldr	r1, [pc, #212]	; (8005314 <HAL_I2C_Master_Transmit+0x1a8>)
 8005240:	4633      	mov	r3, r6
 8005242:	463a      	mov	r2, r7
 8005244:	4620      	mov	r0, r4
 8005246:	f7ff fe33 	bl	8004eb0 <I2C_WaitOnMasterAddressFlagUntilTimeout>
 800524a:	4605      	mov	r5, r0
 800524c:	2800      	cmp	r0, #0
 800524e:	d1ed      	bne.n	800522c <HAL_I2C_Master_Transmit+0xc0>
 8005250:	6823      	ldr	r3, [r4, #0]
 8005252:	9003      	str	r0, [sp, #12]
 8005254:	695a      	ldr	r2, [r3, #20]
 8005256:	9203      	str	r2, [sp, #12]
 8005258:	699b      	ldr	r3, [r3, #24]
 800525a:	9303      	str	r3, [sp, #12]
 800525c:	9b03      	ldr	r3, [sp, #12]
 800525e:	8d23      	ldrh	r3, [r4, #40]	; 0x28
 8005260:	b9f3      	cbnz	r3, 80052a0 <HAL_I2C_Master_Transmit+0x134>
 8005262:	6821      	ldr	r1, [r4, #0]
 8005264:	680a      	ldr	r2, [r1, #0]
 8005266:	f442 7200 	orr.w	r2, r2, #512	; 0x200
 800526a:	600a      	str	r2, [r1, #0]
 800526c:	2220      	movs	r2, #32
 800526e:	f884 203d 	strb.w	r2, [r4, #61]	; 0x3d
 8005272:	f884 303c 	strb.w	r3, [r4, #60]	; 0x3c
 8005276:	f884 303e 	strb.w	r3, [r4, #62]	; 0x3e
 800527a:	e787      	b.n	800518c <HAL_I2C_Master_Transmit+0x20>
 800527c:	11eb      	asrs	r3, r5, #7
 800527e:	f003 0306 	and.w	r3, r3, #6
 8005282:	f043 03f0 	orr.w	r3, r3, #240	; 0xf0
 8005286:	6113      	str	r3, [r2, #16]
 8005288:	4923      	ldr	r1, [pc, #140]	; (8005318 <HAL_I2C_Master_Transmit+0x1ac>)
 800528a:	4633      	mov	r3, r6
 800528c:	463a      	mov	r2, r7
 800528e:	4620      	mov	r0, r4
 8005290:	f7ff fe0e 	bl	8004eb0 <I2C_WaitOnMasterAddressFlagUntilTimeout>
 8005294:	2800      	cmp	r0, #0
 8005296:	d1c9      	bne.n	800522c <HAL_I2C_Master_Transmit+0xc0>
 8005298:	6823      	ldr	r3, [r4, #0]
 800529a:	b2ed      	uxtb	r5, r5
 800529c:	611d      	str	r5, [r3, #16]
 800529e:	e7ce      	b.n	800523e <HAL_I2C_Master_Transmit+0xd2>
 80052a0:	4632      	mov	r2, r6
 80052a2:	4639      	mov	r1, r7
 80052a4:	4620      	mov	r0, r4
 80052a6:	f7ff fe93 	bl	8004fd0 <I2C_WaitOnTXEFlagUntilTimeout>
 80052aa:	b140      	cbz	r0, 80052be <HAL_I2C_Master_Transmit+0x152>
 80052ac:	6c23      	ldr	r3, [r4, #64]	; 0x40
 80052ae:	2b04      	cmp	r3, #4
 80052b0:	d1bc      	bne.n	800522c <HAL_I2C_Master_Transmit+0xc0>
 80052b2:	6822      	ldr	r2, [r4, #0]
 80052b4:	6813      	ldr	r3, [r2, #0]
 80052b6:	f443 7300 	orr.w	r3, r3, #512	; 0x200
 80052ba:	6013      	str	r3, [r2, #0]
 80052bc:	e7b6      	b.n	800522c <HAL_I2C_Master_Transmit+0xc0>
 80052be:	6a63      	ldr	r3, [r4, #36]	; 0x24
 80052c0:	6820      	ldr	r0, [r4, #0]
 80052c2:	461a      	mov	r2, r3
 80052c4:	f812 1b01 	ldrb.w	r1, [r2], #1
 80052c8:	6101      	str	r1, [r0, #16]
 80052ca:	6262      	str	r2, [r4, #36]	; 0x24
 80052cc:	8d62      	ldrh	r2, [r4, #42]	; 0x2a
 80052ce:	3a01      	subs	r2, #1
 80052d0:	b292      	uxth	r2, r2
 80052d2:	8562      	strh	r2, [r4, #42]	; 0x2a
 80052d4:	8d22      	ldrh	r2, [r4, #40]	; 0x28
 80052d6:	f8d0 c014 	ldr.w	ip, [r0, #20]
 80052da:	1e51      	subs	r1, r2, #1
 80052dc:	b289      	uxth	r1, r1
 80052de:	f01c 0f04 	tst.w	ip, #4
 80052e2:	8521      	strh	r1, [r4, #40]	; 0x28
 80052e4:	d00a      	beq.n	80052fc <HAL_I2C_Master_Transmit+0x190>
 80052e6:	b149      	cbz	r1, 80052fc <HAL_I2C_Master_Transmit+0x190>
 80052e8:	7859      	ldrb	r1, [r3, #1]
 80052ea:	6101      	str	r1, [r0, #16]
 80052ec:	3302      	adds	r3, #2
 80052ee:	6263      	str	r3, [r4, #36]	; 0x24
 80052f0:	8d63      	ldrh	r3, [r4, #42]	; 0x2a
 80052f2:	3b01      	subs	r3, #1
 80052f4:	b29b      	uxth	r3, r3
 80052f6:	3a02      	subs	r2, #2
 80052f8:	8563      	strh	r3, [r4, #42]	; 0x2a
 80052fa:	8522      	strh	r2, [r4, #40]	; 0x28
 80052fc:	4632      	mov	r2, r6
 80052fe:	4639      	mov	r1, r7
 8005300:	4620      	mov	r0, r4
 8005302:	f7ff fe3f 	bl	8004f84 <I2C_WaitOnBTFFlagUntilTimeout>
 8005306:	2800      	cmp	r0, #0
 8005308:	d0a9      	beq.n	800525e <HAL_I2C_Master_Transmit+0xf2>
 800530a:	e7cf      	b.n	80052ac <HAL_I2C_Master_Transmit+0x140>
 800530c:	00100002 	.word	0x00100002
 8005310:	ffff0000 	.word	0xffff0000
 8005314:	00010002 	.word	0x00010002
 8005318:	00010008 	.word	0x00010008

0800531c <HAL_I2C_Master_Receive>:
 800531c:	e92d 43f0 	stmdb	sp!, {r4, r5, r6, r7, r8, r9, lr}
 8005320:	4604      	mov	r4, r0
 8005322:	b089      	sub	sp, #36	; 0x24
 8005324:	4698      	mov	r8, r3
 8005326:	9f10      	ldr	r7, [sp, #64]	; 0x40
 8005328:	460e      	mov	r6, r1
 800532a:	4691      	mov	r9, r2
 800532c:	f7ff fbb2 	bl	8004a94 <HAL_GetTick>
 8005330:	f894 303d 	ldrb.w	r3, [r4, #61]	; 0x3d
 8005334:	2b20      	cmp	r3, #32
 8005336:	4605      	mov	r5, r0
 8005338:	d004      	beq.n	8005344 <HAL_I2C_Master_Receive+0x28>
 800533a:	2602      	movs	r6, #2
 800533c:	4630      	mov	r0, r6
 800533e:	b009      	add	sp, #36	; 0x24
 8005340:	e8bd 83f0 	ldmia.w	sp!, {r4, r5, r6, r7, r8, r9, pc}
 8005344:	9000      	str	r0, [sp, #0]
 8005346:	499a      	ldr	r1, [pc, #616]	; (80055b0 <HAL_I2C_Master_Receive+0x294>)
 8005348:	2319      	movs	r3, #25
 800534a:	2201      	movs	r2, #1
 800534c:	4620      	mov	r0, r4
 800534e:	f7ff fd7d 	bl	8004e4c <I2C_WaitOnFlagUntilTimeout>
 8005352:	2800      	cmp	r0, #0
 8005354:	d1f1      	bne.n	800533a <HAL_I2C_Master_Receive+0x1e>
 8005356:	f894 303c 	ldrb.w	r3, [r4, #60]	; 0x3c
 800535a:	2b01      	cmp	r3, #1
 800535c:	d0ed      	beq.n	800533a <HAL_I2C_Master_Receive+0x1e>
 800535e:	6821      	ldr	r1, [r4, #0]
 8005360:	2301      	movs	r3, #1
 8005362:	f884 303c 	strb.w	r3, [r4, #60]	; 0x3c
 8005366:	680b      	ldr	r3, [r1, #0]
 8005368:	07db      	lsls	r3, r3, #31
 800536a:	bf5e      	ittt	pl
 800536c:	680b      	ldrpl	r3, [r1, #0]
 800536e:	f043 0301 	orrpl.w	r3, r3, #1
 8005372:	600b      	strpl	r3, [r1, #0]
 8005374:	680b      	ldr	r3, [r1, #0]
 8005376:	f423 6300 	bic.w	r3, r3, #2048	; 0x800
 800537a:	600b      	str	r3, [r1, #0]
 800537c:	2322      	movs	r3, #34	; 0x22
 800537e:	f884 303d 	strb.w	r3, [r4, #61]	; 0x3d
 8005382:	2310      	movs	r3, #16
 8005384:	f884 303e 	strb.w	r3, [r4, #62]	; 0x3e
 8005388:	2300      	movs	r3, #0
 800538a:	6423      	str	r3, [r4, #64]	; 0x40
 800538c:	f8a4 802a 	strh.w	r8, [r4, #42]	; 0x2a
 8005390:	8d63      	ldrh	r3, [r4, #42]	; 0x2a
 8005392:	8523      	strh	r3, [r4, #40]	; 0x28
 8005394:	4b87      	ldr	r3, [pc, #540]	; (80055b4 <HAL_I2C_Master_Receive+0x298>)
 8005396:	62e3      	str	r3, [r4, #44]	; 0x2c
 8005398:	6ae3      	ldr	r3, [r4, #44]	; 0x2c
 800539a:	680a      	ldr	r2, [r1, #0]
 800539c:	f8c4 9024 	str.w	r9, [r4, #36]	; 0x24
 80053a0:	f442 6280 	orr.w	r2, r2, #1024	; 0x400
 80053a4:	2b08      	cmp	r3, #8
 80053a6:	600a      	str	r2, [r1, #0]
 80053a8:	d004      	beq.n	80053b4 <HAL_I2C_Master_Receive+0x98>
 80053aa:	2b01      	cmp	r3, #1
 80053ac:	d002      	beq.n	80053b4 <HAL_I2C_Master_Receive+0x98>
 80053ae:	f513 3f80 	cmn.w	r3, #65536	; 0x10000
 80053b2:	d104      	bne.n	80053be <HAL_I2C_Master_Receive+0xa2>
 80053b4:	680b      	ldr	r3, [r1, #0]
 80053b6:	f443 7380 	orr.w	r3, r3, #256	; 0x100
 80053ba:	600b      	str	r3, [r1, #0]
 80053bc:	e002      	b.n	80053c4 <HAL_I2C_Master_Receive+0xa8>
 80053be:	6b23      	ldr	r3, [r4, #48]	; 0x30
 80053c0:	2b11      	cmp	r3, #17
 80053c2:	d0f7      	beq.n	80053b4 <HAL_I2C_Master_Receive+0x98>
 80053c4:	463b      	mov	r3, r7
 80053c6:	9500      	str	r5, [sp, #0]
 80053c8:	2200      	movs	r2, #0
 80053ca:	f04f 1101 	mov.w	r1, #65537	; 0x10001
 80053ce:	4620      	mov	r0, r4
 80053d0:	f7ff fd3c 	bl	8004e4c <I2C_WaitOnFlagUntilTimeout>
 80053d4:	6823      	ldr	r3, [r4, #0]
 80053d6:	b138      	cbz	r0, 80053e8 <HAL_I2C_Master_Receive+0xcc>
 80053d8:	681b      	ldr	r3, [r3, #0]
 80053da:	05d8      	lsls	r0, r3, #23
 80053dc:	d502      	bpl.n	80053e4 <HAL_I2C_Master_Receive+0xc8>
 80053de:	f44f 7300 	mov.w	r3, #512	; 0x200
 80053e2:	6423      	str	r3, [r4, #64]	; 0x40
 80053e4:	2601      	movs	r6, #1
 80053e6:	e7a9      	b.n	800533c <HAL_I2C_Master_Receive+0x20>
 80053e8:	6922      	ldr	r2, [r4, #16]
 80053ea:	f5b2 4f80 	cmp.w	r2, #16384	; 0x4000
 80053ee:	d127      	bne.n	8005440 <HAL_I2C_Master_Receive+0x124>
 80053f0:	f046 0601 	orr.w	r6, r6, #1
 80053f4:	b2f6      	uxtb	r6, r6
 80053f6:	611e      	str	r6, [r3, #16]
 80053f8:	496f      	ldr	r1, [pc, #444]	; (80055b8 <HAL_I2C_Master_Receive+0x29c>)
 80053fa:	462b      	mov	r3, r5
 80053fc:	463a      	mov	r2, r7
 80053fe:	4620      	mov	r0, r4
 8005400:	f7ff fd56 	bl	8004eb0 <I2C_WaitOnMasterAddressFlagUntilTimeout>
 8005404:	4606      	mov	r6, r0
 8005406:	2800      	cmp	r0, #0
 8005408:	d1ec      	bne.n	80053e4 <HAL_I2C_Master_Receive+0xc8>
 800540a:	8d23      	ldrh	r3, [r4, #40]	; 0x28
 800540c:	6821      	ldr	r1, [r4, #0]
 800540e:	2b00      	cmp	r3, #0
 8005410:	d14b      	bne.n	80054aa <HAL_I2C_Master_Receive+0x18e>
 8005412:	9003      	str	r0, [sp, #12]
 8005414:	694b      	ldr	r3, [r1, #20]
 8005416:	9303      	str	r3, [sp, #12]
 8005418:	698b      	ldr	r3, [r1, #24]
 800541a:	9303      	str	r3, [sp, #12]
 800541c:	9b03      	ldr	r3, [sp, #12]
 800541e:	680b      	ldr	r3, [r1, #0]
 8005420:	f443 7300 	orr.w	r3, r3, #512	; 0x200
 8005424:	600b      	str	r3, [r1, #0]
 8005426:	f8df 8198 	ldr.w	r8, [pc, #408]	; 80055c0 <HAL_I2C_Master_Receive+0x2a4>
 800542a:	8d23      	ldrh	r3, [r4, #40]	; 0x28
 800542c:	2b00      	cmp	r3, #0
 800542e:	d164      	bne.n	80054fa <HAL_I2C_Master_Receive+0x1de>
 8005430:	2220      	movs	r2, #32
 8005432:	f884 203d 	strb.w	r2, [r4, #61]	; 0x3d
 8005436:	f884 303c 	strb.w	r3, [r4, #60]	; 0x3c
 800543a:	f884 303e 	strb.w	r3, [r4, #62]	; 0x3e
 800543e:	e77d      	b.n	800533c <HAL_I2C_Master_Receive+0x20>
 8005440:	ea4f 18e6 	mov.w	r8, r6, asr #7
 8005444:	f008 0806 	and.w	r8, r8, #6
 8005448:	f048 02f0 	orr.w	r2, r8, #240	; 0xf0
 800544c:	611a      	str	r2, [r3, #16]
 800544e:	495b      	ldr	r1, [pc, #364]	; (80055bc <HAL_I2C_Master_Receive+0x2a0>)
 8005450:	462b      	mov	r3, r5
 8005452:	463a      	mov	r2, r7
 8005454:	4620      	mov	r0, r4
 8005456:	f7ff fd2b 	bl	8004eb0 <I2C_WaitOnMasterAddressFlagUntilTimeout>
 800545a:	2800      	cmp	r0, #0
 800545c:	d1c2      	bne.n	80053e4 <HAL_I2C_Master_Receive+0xc8>
 800545e:	6823      	ldr	r3, [r4, #0]
 8005460:	4955      	ldr	r1, [pc, #340]	; (80055b8 <HAL_I2C_Master_Receive+0x29c>)
 8005462:	b2f6      	uxtb	r6, r6
 8005464:	611e      	str	r6, [r3, #16]
 8005466:	463a      	mov	r2, r7
 8005468:	462b      	mov	r3, r5
 800546a:	4620      	mov	r0, r4
 800546c:	f7ff fd20 	bl	8004eb0 <I2C_WaitOnMasterAddressFlagUntilTimeout>
 8005470:	2800      	cmp	r0, #0
 8005472:	d1b7      	bne.n	80053e4 <HAL_I2C_Master_Receive+0xc8>
 8005474:	6823      	ldr	r3, [r4, #0]
 8005476:	9007      	str	r0, [sp, #28]
 8005478:	695a      	ldr	r2, [r3, #20]
 800547a:	9207      	str	r2, [sp, #28]
 800547c:	699a      	ldr	r2, [r3, #24]
 800547e:	9207      	str	r2, [sp, #28]
 8005480:	9a07      	ldr	r2, [sp, #28]
 8005482:	681a      	ldr	r2, [r3, #0]
 8005484:	f442 7280 	orr.w	r2, r2, #256	; 0x100
 8005488:	601a      	str	r2, [r3, #0]
 800548a:	f04f 1101 	mov.w	r1, #65537	; 0x10001
 800548e:	4602      	mov	r2, r0
 8005490:	9500      	str	r5, [sp, #0]
 8005492:	463b      	mov	r3, r7
 8005494:	4620      	mov	r0, r4
 8005496:	f7ff fcd9 	bl	8004e4c <I2C_WaitOnFlagUntilTimeout>
 800549a:	6822      	ldr	r2, [r4, #0]
 800549c:	b108      	cbz	r0, 80054a2 <HAL_I2C_Master_Receive+0x186>
 800549e:	6813      	ldr	r3, [r2, #0]
 80054a0:	e79b      	b.n	80053da <HAL_I2C_Master_Receive+0xbe>
 80054a2:	f048 03f1 	orr.w	r3, r8, #241	; 0xf1
 80054a6:	6113      	str	r3, [r2, #16]
 80054a8:	e7a6      	b.n	80053f8 <HAL_I2C_Master_Receive+0xdc>
 80054aa:	2b01      	cmp	r3, #1
 80054ac:	d10a      	bne.n	80054c4 <HAL_I2C_Master_Receive+0x1a8>
 80054ae:	680b      	ldr	r3, [r1, #0]
 80054b0:	f423 6380 	bic.w	r3, r3, #1024	; 0x400
 80054b4:	600b      	str	r3, [r1, #0]
 80054b6:	9004      	str	r0, [sp, #16]
 80054b8:	694b      	ldr	r3, [r1, #20]
 80054ba:	9304      	str	r3, [sp, #16]
 80054bc:	698b      	ldr	r3, [r1, #24]
 80054be:	9304      	str	r3, [sp, #16]
 80054c0:	9b04      	ldr	r3, [sp, #16]
 80054c2:	e7ac      	b.n	800541e <HAL_I2C_Master_Receive+0x102>
 80054c4:	2b02      	cmp	r3, #2
 80054c6:	680b      	ldr	r3, [r1, #0]
 80054c8:	d10d      	bne.n	80054e6 <HAL_I2C_Master_Receive+0x1ca>
 80054ca:	f423 6380 	bic.w	r3, r3, #1024	; 0x400
 80054ce:	600b      	str	r3, [r1, #0]
 80054d0:	680b      	ldr	r3, [r1, #0]
 80054d2:	f443 6300 	orr.w	r3, r3, #2048	; 0x800
 80054d6:	600b      	str	r3, [r1, #0]
 80054d8:	9005      	str	r0, [sp, #20]
 80054da:	694b      	ldr	r3, [r1, #20]
 80054dc:	9305      	str	r3, [sp, #20]
 80054de:	698b      	ldr	r3, [r1, #24]
 80054e0:	9305      	str	r3, [sp, #20]
 80054e2:	9b05      	ldr	r3, [sp, #20]
 80054e4:	e79f      	b.n	8005426 <HAL_I2C_Master_Receive+0x10a>
 80054e6:	f443 6380 	orr.w	r3, r3, #1024	; 0x400
 80054ea:	600b      	str	r3, [r1, #0]
 80054ec:	9006      	str	r0, [sp, #24]
 80054ee:	694b      	ldr	r3, [r1, #20]
 80054f0:	9306      	str	r3, [sp, #24]
 80054f2:	698b      	ldr	r3, [r1, #24]
 80054f4:	9306      	str	r3, [sp, #24]
 80054f6:	9b06      	ldr	r3, [sp, #24]
 80054f8:	e795      	b.n	8005426 <HAL_I2C_Master_Receive+0x10a>
 80054fa:	2b03      	cmp	r3, #3
 80054fc:	d862      	bhi.n	80055c4 <HAL_I2C_Master_Receive+0x2a8>
 80054fe:	2b01      	cmp	r3, #1
 8005500:	d116      	bne.n	8005530 <HAL_I2C_Master_Receive+0x214>
 8005502:	462a      	mov	r2, r5
 8005504:	4639      	mov	r1, r7
 8005506:	4620      	mov	r0, r4
 8005508:	f7ff fd0d 	bl	8004f26 <I2C_WaitOnRXNEFlagUntilTimeout>
 800550c:	2800      	cmp	r0, #0
 800550e:	f47f af69 	bne.w	80053e4 <HAL_I2C_Master_Receive+0xc8>
 8005512:	6823      	ldr	r3, [r4, #0]
 8005514:	691a      	ldr	r2, [r3, #16]
 8005516:	6a63      	ldr	r3, [r4, #36]	; 0x24
 8005518:	701a      	strb	r2, [r3, #0]
 800551a:	6a63      	ldr	r3, [r4, #36]	; 0x24
 800551c:	3301      	adds	r3, #1
 800551e:	6263      	str	r3, [r4, #36]	; 0x24
 8005520:	8d23      	ldrh	r3, [r4, #40]	; 0x28
 8005522:	3b01      	subs	r3, #1
 8005524:	8523      	strh	r3, [r4, #40]	; 0x28
 8005526:	8d63      	ldrh	r3, [r4, #42]	; 0x2a
 8005528:	3b01      	subs	r3, #1
 800552a:	b29b      	uxth	r3, r3
 800552c:	8563      	strh	r3, [r4, #42]	; 0x2a
 800552e:	e77c      	b.n	800542a <HAL_I2C_Master_Receive+0x10e>
 8005530:	2b02      	cmp	r3, #2
 8005532:	9500      	str	r5, [sp, #0]
 8005534:	463b      	mov	r3, r7
 8005536:	f04f 0200 	mov.w	r2, #0
 800553a:	4641      	mov	r1, r8
 800553c:	4620      	mov	r0, r4
 800553e:	d11a      	bne.n	8005576 <HAL_I2C_Master_Receive+0x25a>
 8005540:	f7ff fc84 	bl	8004e4c <I2C_WaitOnFlagUntilTimeout>
 8005544:	2800      	cmp	r0, #0
 8005546:	f47f af4d 	bne.w	80053e4 <HAL_I2C_Master_Receive+0xc8>
 800554a:	6823      	ldr	r3, [r4, #0]
 800554c:	681a      	ldr	r2, [r3, #0]
 800554e:	f442 7200 	orr.w	r2, r2, #512	; 0x200
 8005552:	601a      	str	r2, [r3, #0]
 8005554:	691a      	ldr	r2, [r3, #16]
 8005556:	6a63      	ldr	r3, [r4, #36]	; 0x24
 8005558:	701a      	strb	r2, [r3, #0]
 800555a:	6a62      	ldr	r2, [r4, #36]	; 0x24
 800555c:	1c53      	adds	r3, r2, #1
 800555e:	6263      	str	r3, [r4, #36]	; 0x24
 8005560:	8d23      	ldrh	r3, [r4, #40]	; 0x28
 8005562:	3b01      	subs	r3, #1
 8005564:	8523      	strh	r3, [r4, #40]	; 0x28
 8005566:	8d63      	ldrh	r3, [r4, #42]	; 0x2a
 8005568:	3b01      	subs	r3, #1
 800556a:	b29b      	uxth	r3, r3
 800556c:	8563      	strh	r3, [r4, #42]	; 0x2a
 800556e:	6823      	ldr	r3, [r4, #0]
 8005570:	691b      	ldr	r3, [r3, #16]
 8005572:	7053      	strb	r3, [r2, #1]
 8005574:	e7d1      	b.n	800551a <HAL_I2C_Master_Receive+0x1fe>
 8005576:	f7ff fc69 	bl	8004e4c <I2C_WaitOnFlagUntilTimeout>
 800557a:	2800      	cmp	r0, #0
 800557c:	f47f af32 	bne.w	80053e4 <HAL_I2C_Master_Receive+0xc8>
 8005580:	6823      	ldr	r3, [r4, #0]
 8005582:	681a      	ldr	r2, [r3, #0]
 8005584:	f422 6280 	bic.w	r2, r2, #1024	; 0x400
 8005588:	601a      	str	r2, [r3, #0]
 800558a:	691a      	ldr	r2, [r3, #16]
 800558c:	6a63      	ldr	r3, [r4, #36]	; 0x24
 800558e:	701a      	strb	r2, [r3, #0]
 8005590:	6a63      	ldr	r3, [r4, #36]	; 0x24
 8005592:	9500      	str	r5, [sp, #0]
 8005594:	3301      	adds	r3, #1
 8005596:	6263      	str	r3, [r4, #36]	; 0x24
 8005598:	8d23      	ldrh	r3, [r4, #40]	; 0x28
 800559a:	3b01      	subs	r3, #1
 800559c:	8523      	strh	r3, [r4, #40]	; 0x28
 800559e:	8d63      	ldrh	r3, [r4, #42]	; 0x2a
 80055a0:	3b01      	subs	r3, #1
 80055a2:	b29b      	uxth	r3, r3
 80055a4:	8563      	strh	r3, [r4, #42]	; 0x2a
 80055a6:	4602      	mov	r2, r0
 80055a8:	463b      	mov	r3, r7
 80055aa:	4641      	mov	r1, r8
 80055ac:	4620      	mov	r0, r4
 80055ae:	e7c7      	b.n	8005540 <HAL_I2C_Master_Receive+0x224>
 80055b0:	00100002 	.word	0x00100002
 80055b4:	ffff0000 	.word	0xffff0000
 80055b8:	00010002 	.word	0x00010002
 80055bc:	00010008 	.word	0x00010008
 80055c0:	00010004 	.word	0x00010004
 80055c4:	462a      	mov	r2, r5
 80055c6:	4639      	mov	r1, r7
 80055c8:	4620      	mov	r0, r4
 80055ca:	f7ff fcac 	bl	8004f26 <I2C_WaitOnRXNEFlagUntilTimeout>
 80055ce:	2800      	cmp	r0, #0
 80055d0:	f47f af08 	bne.w	80053e4 <HAL_I2C_Master_Receive+0xc8>
 80055d4:	6823      	ldr	r3, [r4, #0]
 80055d6:	691a      	ldr	r2, [r3, #16]
 80055d8:	6a63      	ldr	r3, [r4, #36]	; 0x24
 80055da:	701a      	strb	r2, [r3, #0]
 80055dc:	6a62      	ldr	r2, [r4, #36]	; 0x24
 80055de:	1c53      	adds	r3, r2, #1
 80055e0:	6263      	str	r3, [r4, #36]	; 0x24
 80055e2:	8d23      	ldrh	r3, [r4, #40]	; 0x28
 80055e4:	3b01      	subs	r3, #1
 80055e6:	8523      	strh	r3, [r4, #40]	; 0x28
 80055e8:	8d63      	ldrh	r3, [r4, #42]	; 0x2a
 80055ea:	3b01      	subs	r3, #1
 80055ec:	b29b      	uxth	r3, r3
 80055ee:	8563      	strh	r3, [r4, #42]	; 0x2a
 80055f0:	6823      	ldr	r3, [r4, #0]
 80055f2:	6959      	ldr	r1, [r3, #20]
 80055f4:	0749      	lsls	r1, r1, #29
 80055f6:	f57f af18 	bpl.w	800542a <HAL_I2C_Master_Receive+0x10e>
 80055fa:	e7b9      	b.n	8005570 <HAL_I2C_Master_Receive+0x254>

080055fc <HAL_I2C_MasterTxCpltCallback>:
 80055fc:	4770      	bx	lr

080055fe <HAL_I2C_MasterRxCpltCallback>:
 80055fe:	4770      	bx	lr

08005600 <HAL_I2C_SlaveTxCpltCallback>:
 8005600:	4770      	bx	lr

08005602 <HAL_I2C_SlaveRxCpltCallback>:
 8005602:	4770      	bx	lr

08005604 <HAL_I2C_AddrCallback>:
 8005604:	4770      	bx	lr

08005606 <HAL_I2C_ListenCpltCallback>:
 8005606:	4770      	bx	lr

08005608 <HAL_I2C_MemTxCpltCallback>:
 8005608:	4770      	bx	lr

0800560a <I2C_MemoryTransmit_TXE_BTF>:
 800560a:	f890 203d 	ldrb.w	r2, [r0, #61]	; 0x3d
 800560e:	b508      	push	{r3, lr}
 8005610:	6d03      	ldr	r3, [r0, #80]	; 0x50
 8005612:	b2d2      	uxtb	r2, r2
 8005614:	b983      	cbnz	r3, 8005638 <I2C_MemoryTransmit_TXE_BTF+0x2e>
 8005616:	6cc3      	ldr	r3, [r0, #76]	; 0x4c
 8005618:	6802      	ldr	r2, [r0, #0]
 800561a:	2b01      	cmp	r3, #1
 800561c:	6c83      	ldr	r3, [r0, #72]	; 0x48
 800561e:	d105      	bne.n	800562c <I2C_MemoryTransmit_TXE_BTF+0x22>
 8005620:	b2db      	uxtb	r3, r3
 8005622:	6113      	str	r3, [r2, #16]
 8005624:	6d03      	ldr	r3, [r0, #80]	; 0x50
 8005626:	3302      	adds	r3, #2
 8005628:	6503      	str	r3, [r0, #80]	; 0x50
 800562a:	bd08      	pop	{r3, pc}
 800562c:	f3c3 2307 	ubfx	r3, r3, #8, #8
 8005630:	6113      	str	r3, [r2, #16]
 8005632:	6d03      	ldr	r3, [r0, #80]	; 0x50
 8005634:	3301      	adds	r3, #1
 8005636:	e7f7      	b.n	8005628 <I2C_MemoryTransmit_TXE_BTF+0x1e>
 8005638:	6d03      	ldr	r3, [r0, #80]	; 0x50
 800563a:	2b01      	cmp	r3, #1
 800563c:	d103      	bne.n	8005646 <I2C_MemoryTransmit_TXE_BTF+0x3c>
 800563e:	6c83      	ldr	r3, [r0, #72]	; 0x48
 8005640:	6802      	ldr	r2, [r0, #0]
 8005642:	b2db      	uxtb	r3, r3
 8005644:	e7f4      	b.n	8005630 <I2C_MemoryTransmit_TXE_BTF+0x26>
 8005646:	6d03      	ldr	r3, [r0, #80]	; 0x50
 8005648:	2b02      	cmp	r3, #2
 800564a:	d1ee      	bne.n	800562a <I2C_MemoryTransmit_TXE_BTF+0x20>
 800564c:	2a22      	cmp	r2, #34	; 0x22
 800564e:	d105      	bne.n	800565c <I2C_MemoryTransmit_TXE_BTF+0x52>
 8005650:	6802      	ldr	r2, [r0, #0]
 8005652:	6813      	ldr	r3, [r2, #0]
 8005654:	f443 7380 	orr.w	r3, r3, #256	; 0x100
 8005658:	6013      	str	r3, [r2, #0]
 800565a:	e7ea      	b.n	8005632 <I2C_MemoryTransmit_TXE_BTF+0x28>
 800565c:	8d43      	ldrh	r3, [r0, #42]	; 0x2a
 800565e:	b29b      	uxth	r3, r3
 8005660:	b163      	cbz	r3, 800567c <I2C_MemoryTransmit_TXE_BTF+0x72>
 8005662:	2a21      	cmp	r2, #33	; 0x21
 8005664:	d10a      	bne.n	800567c <I2C_MemoryTransmit_TXE_BTF+0x72>
 8005666:	6a43      	ldr	r3, [r0, #36]	; 0x24
 8005668:	6802      	ldr	r2, [r0, #0]
 800566a:	f813 1b01 	ldrb.w	r1, [r3], #1
 800566e:	6111      	str	r1, [r2, #16]
 8005670:	6243      	str	r3, [r0, #36]	; 0x24
 8005672:	8d43      	ldrh	r3, [r0, #42]	; 0x2a
 8005674:	3b01      	subs	r3, #1
 8005676:	b29b      	uxth	r3, r3
 8005678:	8543      	strh	r3, [r0, #42]	; 0x2a
 800567a:	e7d6      	b.n	800562a <I2C_MemoryTransmit_TXE_BTF+0x20>
 800567c:	8d43      	ldrh	r3, [r0, #42]	; 0x2a
 800567e:	b29b      	uxth	r3, r3
 8005680:	2b00      	cmp	r3, #0
 8005682:	d1d2      	bne.n	800562a <I2C_MemoryTransmit_TXE_BTF+0x20>
 8005684:	2a21      	cmp	r2, #33	; 0x21
 8005686:	d1d0      	bne.n	800562a <I2C_MemoryTransmit_TXE_BTF+0x20>
 8005688:	6802      	ldr	r2, [r0, #0]
 800568a:	6851      	ldr	r1, [r2, #4]
 800568c:	f421 61e0 	bic.w	r1, r1, #1792	; 0x700
 8005690:	6051      	str	r1, [r2, #4]
 8005692:	6811      	ldr	r1, [r2, #0]
 8005694:	f441 7100 	orr.w	r1, r1, #512	; 0x200
 8005698:	6011      	str	r1, [r2, #0]
 800569a:	2220      	movs	r2, #32
 800569c:	6303      	str	r3, [r0, #48]	; 0x30
 800569e:	f880 203d 	strb.w	r2, [r0, #61]	; 0x3d
 80056a2:	f880 303e 	strb.w	r3, [r0, #62]	; 0x3e
 80056a6:	f7ff ffaf 	bl	8005608 <HAL_I2C_MemTxCpltCallback>
 80056aa:	e7be      	b.n	800562a <I2C_MemoryTransmit_TXE_BTF+0x20>

080056ac <HAL_I2C_MemRxCpltCallback>:
 80056ac:	4770      	bx	lr

080056ae <HAL_I2C_ErrorCallback>:
 80056ae:	4770      	bx	lr

080056b0 <HAL_I2C_AbortCpltCallback>:
 80056b0:	4770      	bx	lr
	...

080056b4 <I2C_DMAAbort>:
 80056b4:	b537      	push	{r0, r1, r2, r4, r5, lr}
 80056b6:	2300      	movs	r3, #0
 80056b8:	9301      	str	r3, [sp, #4]
 80056ba:	4b2d      	ldr	r3, [pc, #180]	; (8005770 <I2C_DMAAbort+0xbc>)
 80056bc:	6b80      	ldr	r0, [r0, #56]	; 0x38
 80056be:	681b      	ldr	r3, [r3, #0]
 80056c0:	f890 203d 	ldrb.w	r2, [r0, #61]	; 0x3d
 80056c4:	f246 11a8 	movw	r1, #25000	; 0x61a8
 80056c8:	fbb3 f3f1 	udiv	r3, r3, r1
 80056cc:	2123      	movs	r1, #35	; 0x23
 80056ce:	434b      	muls	r3, r1
 80056d0:	9301      	str	r3, [sp, #4]
 80056d2:	6803      	ldr	r3, [r0, #0]
 80056d4:	b2d2      	uxtb	r2, r2
 80056d6:	9901      	ldr	r1, [sp, #4]
 80056d8:	bb41      	cbnz	r1, 800572c <I2C_DMAAbort+0x78>
 80056da:	6c01      	ldr	r1, [r0, #64]	; 0x40
 80056dc:	f041 0120 	orr.w	r1, r1, #32
 80056e0:	6401      	str	r1, [r0, #64]	; 0x40
 80056e2:	6b44      	ldr	r4, [r0, #52]	; 0x34
 80056e4:	b10c      	cbz	r4, 80056ea <I2C_DMAAbort+0x36>
 80056e6:	2100      	movs	r1, #0
 80056e8:	63e1      	str	r1, [r4, #60]	; 0x3c
 80056ea:	6b81      	ldr	r1, [r0, #56]	; 0x38
 80056ec:	b109      	cbz	r1, 80056f2 <I2C_DMAAbort+0x3e>
 80056ee:	2500      	movs	r5, #0
 80056f0:	63cd      	str	r5, [r1, #60]	; 0x3c
 80056f2:	681d      	ldr	r5, [r3, #0]
 80056f4:	f425 6580 	bic.w	r5, r5, #1024	; 0x400
 80056f8:	601d      	str	r5, [r3, #0]
 80056fa:	2500      	movs	r5, #0
 80056fc:	8545      	strh	r5, [r0, #42]	; 0x2a
 80056fe:	b104      	cbz	r4, 8005702 <I2C_DMAAbort+0x4e>
 8005700:	6525      	str	r5, [r4, #80]	; 0x50
 8005702:	b101      	cbz	r1, 8005706 <I2C_DMAAbort+0x52>
 8005704:	650d      	str	r5, [r1, #80]	; 0x50
 8005706:	6819      	ldr	r1, [r3, #0]
 8005708:	f021 0101 	bic.w	r1, r1, #1
 800570c:	6019      	str	r1, [r3, #0]
 800570e:	f890 103d 	ldrb.w	r1, [r0, #61]	; 0x3d
 8005712:	2960      	cmp	r1, #96	; 0x60
 8005714:	d111      	bne.n	800573a <I2C_DMAAbort+0x86>
 8005716:	2320      	movs	r3, #32
 8005718:	f880 303d 	strb.w	r3, [r0, #61]	; 0x3d
 800571c:	2300      	movs	r3, #0
 800571e:	f880 303e 	strb.w	r3, [r0, #62]	; 0x3e
 8005722:	6403      	str	r3, [r0, #64]	; 0x40
 8005724:	f7ff ffc4 	bl	80056b0 <HAL_I2C_AbortCpltCallback>
 8005728:	b003      	add	sp, #12
 800572a:	bd30      	pop	{r4, r5, pc}
 800572c:	9901      	ldr	r1, [sp, #4]
 800572e:	3901      	subs	r1, #1
 8005730:	9101      	str	r1, [sp, #4]
 8005732:	6819      	ldr	r1, [r3, #0]
 8005734:	0589      	lsls	r1, r1, #22
 8005736:	d4ce      	bmi.n	80056d6 <I2C_DMAAbort+0x22>
 8005738:	e7d3      	b.n	80056e2 <I2C_DMAAbort+0x2e>
 800573a:	f002 0228 	and.w	r2, r2, #40	; 0x28
 800573e:	2a28      	cmp	r2, #40	; 0x28
 8005740:	d10e      	bne.n	8005760 <I2C_DMAAbort+0xac>
 8005742:	6819      	ldr	r1, [r3, #0]
 8005744:	f041 0101 	orr.w	r1, r1, #1
 8005748:	6019      	str	r1, [r3, #0]
 800574a:	6819      	ldr	r1, [r3, #0]
 800574c:	f441 6180 	orr.w	r1, r1, #1024	; 0x400
 8005750:	6019      	str	r1, [r3, #0]
 8005752:	2300      	movs	r3, #0
 8005754:	6303      	str	r3, [r0, #48]	; 0x30
 8005756:	f880 203d 	strb.w	r2, [r0, #61]	; 0x3d
 800575a:	f7ff ffa8 	bl	80056ae <HAL_I2C_ErrorCallback>
 800575e:	e7e3      	b.n	8005728 <I2C_DMAAbort+0x74>
 8005760:	2320      	movs	r3, #32
 8005762:	f880 303d 	strb.w	r3, [r0, #61]	; 0x3d
 8005766:	2300      	movs	r3, #0
 8005768:	f880 303e 	strb.w	r3, [r0, #62]	; 0x3e
 800576c:	e7f5      	b.n	800575a <I2C_DMAAbort+0xa6>
 800576e:	bf00      	nop
 8005770:	20000004 	.word	0x20000004

08005774 <I2C_ITError>:
 8005774:	b510      	push	{r4, lr}
 8005776:	f890 203d 	ldrb.w	r2, [r0, #61]	; 0x3d
 800577a:	f890 303e 	ldrb.w	r3, [r0, #62]	; 0x3e
 800577e:	2b10      	cmp	r3, #16
 8005780:	b2d9      	uxtb	r1, r3
 8005782:	4604      	mov	r4, r0
 8005784:	6803      	ldr	r3, [r0, #0]
 8005786:	b2d2      	uxtb	r2, r2
 8005788:	d001      	beq.n	800578e <I2C_ITError+0x1a>
 800578a:	2940      	cmp	r1, #64	; 0x40
 800578c:	d113      	bne.n	80057b6 <I2C_ITError+0x42>
 800578e:	2a22      	cmp	r2, #34	; 0x22
 8005790:	d111      	bne.n	80057b6 <I2C_ITError+0x42>
 8005792:	6819      	ldr	r1, [r3, #0]
 8005794:	f421 6100 	bic.w	r1, r1, #2048	; 0x800
 8005798:	6019      	str	r1, [r3, #0]
 800579a:	6859      	ldr	r1, [r3, #4]
 800579c:	f411 6100 	ands.w	r1, r1, #2048	; 0x800
 80057a0:	d106      	bne.n	80057b0 <I2C_ITError+0x3c>
 80057a2:	2a60      	cmp	r2, #96	; 0x60
 80057a4:	bf1e      	ittt	ne
 80057a6:	2220      	movne	r2, #32
 80057a8:	f884 203d 	strbne.w	r2, [r4, #61]	; 0x3d
 80057ac:	f884 103e 	strbne.w	r1, [r4, #62]	; 0x3e
 80057b0:	2200      	movs	r2, #0
 80057b2:	6322      	str	r2, [r4, #48]	; 0x30
 80057b4:	e007      	b.n	80057c6 <I2C_ITError+0x52>
 80057b6:	f002 0128 	and.w	r1, r2, #40	; 0x28
 80057ba:	2928      	cmp	r1, #40	; 0x28
 80057bc:	d1ed      	bne.n	800579a <I2C_ITError+0x26>
 80057be:	2200      	movs	r2, #0
 80057c0:	6322      	str	r2, [r4, #48]	; 0x30
 80057c2:	f884 103d 	strb.w	r1, [r4, #61]	; 0x3d
 80057c6:	685a      	ldr	r2, [r3, #4]
 80057c8:	f412 6200 	ands.w	r2, r2, #2048	; 0x800
 80057cc:	d04f      	beq.n	800586e <I2C_ITError+0xfa>
 80057ce:	685a      	ldr	r2, [r3, #4]
 80057d0:	6b60      	ldr	r0, [r4, #52]	; 0x34
 80057d2:	f422 6200 	bic.w	r2, r2, #2048	; 0x800
 80057d6:	605a      	str	r2, [r3, #4]
 80057d8:	f890 3035 	ldrb.w	r3, [r0, #53]	; 0x35
 80057dc:	2b01      	cmp	r3, #1
 80057de:	4b37      	ldr	r3, [pc, #220]	; (80058bc <I2C_ITError+0x148>)
 80057e0:	d02b      	beq.n	800583a <I2C_ITError+0xc6>
 80057e2:	6503      	str	r3, [r0, #80]	; 0x50
 80057e4:	f7ff fa1a 	bl	8004c1c <HAL_DMA_Abort_IT>
 80057e8:	b150      	cbz	r0, 8005800 <I2C_ITError+0x8c>
 80057ea:	6822      	ldr	r2, [r4, #0]
 80057ec:	6b60      	ldr	r0, [r4, #52]	; 0x34
 80057ee:	6813      	ldr	r3, [r2, #0]
 80057f0:	f023 0301 	bic.w	r3, r3, #1
 80057f4:	6013      	str	r3, [r2, #0]
 80057f6:	2320      	movs	r3, #32
 80057f8:	f884 303d 	strb.w	r3, [r4, #61]	; 0x3d
 80057fc:	6d03      	ldr	r3, [r0, #80]	; 0x50
 80057fe:	4798      	blx	r3
 8005800:	6c23      	ldr	r3, [r4, #64]	; 0x40
 8005802:	0719      	lsls	r1, r3, #28
 8005804:	bf1f      	itttt	ne
 8005806:	6822      	ldrne	r2, [r4, #0]
 8005808:	6853      	ldrne	r3, [r2, #4]
 800580a:	f423 63e0 	bicne.w	r3, r3, #1792	; 0x700
 800580e:	6053      	strne	r3, [r2, #4]
 8005810:	f894 303d 	ldrb.w	r3, [r4, #61]	; 0x3d
 8005814:	6c22      	ldr	r2, [r4, #64]	; 0x40
 8005816:	0752      	lsls	r2, r2, #29
 8005818:	b2db      	uxtb	r3, r3
 800581a:	d50d      	bpl.n	8005838 <I2C_ITError+0xc4>
 800581c:	2b28      	cmp	r3, #40	; 0x28
 800581e:	d10b      	bne.n	8005838 <I2C_ITError+0xc4>
 8005820:	4b27      	ldr	r3, [pc, #156]	; (80058c0 <I2C_ITError+0x14c>)
 8005822:	62e3      	str	r3, [r4, #44]	; 0x2c
 8005824:	2220      	movs	r2, #32
 8005826:	2300      	movs	r3, #0
 8005828:	6323      	str	r3, [r4, #48]	; 0x30
 800582a:	4620      	mov	r0, r4
 800582c:	f884 203d 	strb.w	r2, [r4, #61]	; 0x3d
 8005830:	f884 303e 	strb.w	r3, [r4, #62]	; 0x3e
 8005834:	f7ff fee7 	bl	8005606 <HAL_I2C_ListenCpltCallback>
 8005838:	bd10      	pop	{r4, pc}
 800583a:	6ba0      	ldr	r0, [r4, #56]	; 0x38
 800583c:	6503      	str	r3, [r0, #80]	; 0x50
 800583e:	f7ff f9ed 	bl	8004c1c <HAL_DMA_Abort_IT>
 8005842:	2800      	cmp	r0, #0
 8005844:	d0dc      	beq.n	8005800 <I2C_ITError+0x8c>
 8005846:	6823      	ldr	r3, [r4, #0]
 8005848:	695a      	ldr	r2, [r3, #20]
 800584a:	0651      	lsls	r1, r2, #25
 800584c:	d505      	bpl.n	800585a <I2C_ITError+0xe6>
 800584e:	691a      	ldr	r2, [r3, #16]
 8005850:	6a63      	ldr	r3, [r4, #36]	; 0x24
 8005852:	701a      	strb	r2, [r3, #0]
 8005854:	6a63      	ldr	r3, [r4, #36]	; 0x24
 8005856:	3301      	adds	r3, #1
 8005858:	6263      	str	r3, [r4, #36]	; 0x24
 800585a:	6822      	ldr	r2, [r4, #0]
 800585c:	6ba0      	ldr	r0, [r4, #56]	; 0x38
 800585e:	6813      	ldr	r3, [r2, #0]
 8005860:	f023 0301 	bic.w	r3, r3, #1
 8005864:	6013      	str	r3, [r2, #0]
 8005866:	2320      	movs	r3, #32
 8005868:	f884 303d 	strb.w	r3, [r4, #61]	; 0x3d
 800586c:	e7c6      	b.n	80057fc <I2C_ITError+0x88>
 800586e:	f894 103d 	ldrb.w	r1, [r4, #61]	; 0x3d
 8005872:	2960      	cmp	r1, #96	; 0x60
 8005874:	d115      	bne.n	80058a2 <I2C_ITError+0x12e>
 8005876:	2120      	movs	r1, #32
 8005878:	f884 103d 	strb.w	r1, [r4, #61]	; 0x3d
 800587c:	6422      	str	r2, [r4, #64]	; 0x40
 800587e:	695a      	ldr	r2, [r3, #20]
 8005880:	0652      	lsls	r2, r2, #25
 8005882:	d505      	bpl.n	8005890 <I2C_ITError+0x11c>
 8005884:	691a      	ldr	r2, [r3, #16]
 8005886:	6a63      	ldr	r3, [r4, #36]	; 0x24
 8005888:	701a      	strb	r2, [r3, #0]
 800588a:	6a63      	ldr	r3, [r4, #36]	; 0x24
 800588c:	3301      	adds	r3, #1
 800588e:	6263      	str	r3, [r4, #36]	; 0x24
 8005890:	6822      	ldr	r2, [r4, #0]
 8005892:	6813      	ldr	r3, [r2, #0]
 8005894:	f023 0301 	bic.w	r3, r3, #1
 8005898:	6013      	str	r3, [r2, #0]
 800589a:	4620      	mov	r0, r4
 800589c:	f7ff ff08 	bl	80056b0 <HAL_I2C_AbortCpltCallback>
 80058a0:	e7ae      	b.n	8005800 <I2C_ITError+0x8c>
 80058a2:	695a      	ldr	r2, [r3, #20]
 80058a4:	0650      	lsls	r0, r2, #25
 80058a6:	d505      	bpl.n	80058b4 <I2C_ITError+0x140>
 80058a8:	691a      	ldr	r2, [r3, #16]
 80058aa:	6a63      	ldr	r3, [r4, #36]	; 0x24
 80058ac:	701a      	strb	r2, [r3, #0]
 80058ae:	6a63      	ldr	r3, [r4, #36]	; 0x24
 80058b0:	3301      	adds	r3, #1
 80058b2:	6263      	str	r3, [r4, #36]	; 0x24
 80058b4:	4620      	mov	r0, r4
 80058b6:	f7ff fefa 	bl	80056ae <HAL_I2C_ErrorCallback>
 80058ba:	e7a1      	b.n	8005800 <I2C_ITError+0x8c>
 80058bc:	080056b5 	.word	0x080056b5
 80058c0:	ffff0000 	.word	0xffff0000

080058c4 <HAL_I2C_EV_IRQHandler>:
 80058c4:	b5f0      	push	{r4, r5, r6, r7, lr}
 80058c6:	6803      	ldr	r3, [r0, #0]
 80058c8:	4604      	mov	r4, r0
 80058ca:	685a      	ldr	r2, [r3, #4]
 80058cc:	6ac6      	ldr	r6, [r0, #44]	; 0x2c
 80058ce:	f890 003e 	ldrb.w	r0, [r0, #62]	; 0x3e
 80058d2:	f894 103d 	ldrb.w	r1, [r4, #61]	; 0x3d
 80058d6:	2810      	cmp	r0, #16
 80058d8:	b08f      	sub	sp, #60	; 0x3c
 80058da:	b2c5      	uxtb	r5, r0
 80058dc:	b2c9      	uxtb	r1, r1
 80058de:	d002      	beq.n	80058e6 <HAL_I2C_EV_IRQHandler+0x22>
 80058e0:	2d40      	cmp	r5, #64	; 0x40
 80058e2:	f040 82c0 	bne.w	8005e66 <HAL_I2C_EV_IRQHandler+0x5a2>
 80058e6:	699f      	ldr	r7, [r3, #24]
 80058e8:	6958      	ldr	r0, [r3, #20]
 80058ea:	f010 0f01 	tst.w	r0, #1
 80058ee:	d107      	bne.n	8005900 <HAL_I2C_EV_IRQHandler+0x3c>
 80058f0:	f5b6 0f2a 	cmp.w	r6, #11141120	; 0xaa0000
 80058f4:	d002      	beq.n	80058fc <HAL_I2C_EV_IRQHandler+0x38>
 80058f6:	f1b6 4f2a 	cmp.w	r6, #2852126720	; 0xaa000000
 80058fa:	d151      	bne.n	80059a0 <HAL_I2C_EV_IRQHandler+0xdc>
 80058fc:	b00f      	add	sp, #60	; 0x3c
 80058fe:	bdf0      	pop	{r4, r5, r6, r7, pc}
 8005900:	0596      	lsls	r6, r2, #22
 8005902:	d54d      	bpl.n	80059a0 <HAL_I2C_EV_IRQHandler+0xdc>
 8005904:	6ae2      	ldr	r2, [r4, #44]	; 0x2c
 8005906:	f5b2 0f2a 	cmp.w	r2, #11141120	; 0xaa0000
 800590a:	d10c      	bne.n	8005926 <HAL_I2C_EV_IRQHandler+0x62>
 800590c:	2201      	movs	r2, #1
 800590e:	62e2      	str	r2, [r4, #44]	; 0x2c
 8005910:	f894 203e 	ldrb.w	r2, [r4, #62]	; 0x3e
 8005914:	2a40      	cmp	r2, #64	; 0x40
 8005916:	d111      	bne.n	800593c <HAL_I2C_EV_IRQHandler+0x78>
 8005918:	6d22      	ldr	r2, [r4, #80]	; 0x50
 800591a:	b952      	cbnz	r2, 8005932 <HAL_I2C_EV_IRQHandler+0x6e>
 800591c:	6c62      	ldr	r2, [r4, #68]	; 0x44
 800591e:	f002 02fe 	and.w	r2, r2, #254	; 0xfe
 8005922:	611a      	str	r2, [r3, #16]
 8005924:	e7ea      	b.n	80058fc <HAL_I2C_EV_IRQHandler+0x38>
 8005926:	6ae2      	ldr	r2, [r4, #44]	; 0x2c
 8005928:	f1b2 4f2a 	cmp.w	r2, #2852126720	; 0xaa000000
 800592c:	d1f0      	bne.n	8005910 <HAL_I2C_EV_IRQHandler+0x4c>
 800592e:	2208      	movs	r2, #8
 8005930:	e7ed      	b.n	800590e <HAL_I2C_EV_IRQHandler+0x4a>
 8005932:	6c62      	ldr	r2, [r4, #68]	; 0x44
 8005934:	f042 0201 	orr.w	r2, r2, #1
 8005938:	b2d2      	uxtb	r2, r2
 800593a:	e7f2      	b.n	8005922 <HAL_I2C_EV_IRQHandler+0x5e>
 800593c:	6922      	ldr	r2, [r4, #16]
 800593e:	f5b2 4f80 	cmp.w	r2, #16384	; 0x4000
 8005942:	d11a      	bne.n	800597a <HAL_I2C_EV_IRQHandler+0xb6>
 8005944:	f894 203d 	ldrb.w	r2, [r4, #61]	; 0x3d
 8005948:	2a21      	cmp	r2, #33	; 0x21
 800594a:	6c62      	ldr	r2, [r4, #68]	; 0x44
 800594c:	d111      	bne.n	8005972 <HAL_I2C_EV_IRQHandler+0xae>
 800594e:	f002 02fe 	and.w	r2, r2, #254	; 0xfe
 8005952:	611a      	str	r2, [r3, #16]
 8005954:	6b62      	ldr	r2, [r4, #52]	; 0x34
 8005956:	b10a      	cbz	r2, 800595c <HAL_I2C_EV_IRQHandler+0x98>
 8005958:	6bd2      	ldr	r2, [r2, #60]	; 0x3c
 800595a:	b92a      	cbnz	r2, 8005968 <HAL_I2C_EV_IRQHandler+0xa4>
 800595c:	6ba2      	ldr	r2, [r4, #56]	; 0x38
 800595e:	2a00      	cmp	r2, #0
 8005960:	d0cc      	beq.n	80058fc <HAL_I2C_EV_IRQHandler+0x38>
 8005962:	6bd2      	ldr	r2, [r2, #60]	; 0x3c
 8005964:	2a00      	cmp	r2, #0
 8005966:	d0c9      	beq.n	80058fc <HAL_I2C_EV_IRQHandler+0x38>
 8005968:	685a      	ldr	r2, [r3, #4]
 800596a:	f442 6200 	orr.w	r2, r2, #2048	; 0x800
 800596e:	605a      	str	r2, [r3, #4]
 8005970:	e7c4      	b.n	80058fc <HAL_I2C_EV_IRQHandler+0x38>
 8005972:	f042 0201 	orr.w	r2, r2, #1
 8005976:	b2d2      	uxtb	r2, r2
 8005978:	e7eb      	b.n	8005952 <HAL_I2C_EV_IRQHandler+0x8e>
 800597a:	6d22      	ldr	r2, [r4, #80]	; 0x50
 800597c:	b932      	cbnz	r2, 800598c <HAL_I2C_EV_IRQHandler+0xc8>
 800597e:	6c62      	ldr	r2, [r4, #68]	; 0x44
 8005980:	11d2      	asrs	r2, r2, #7
 8005982:	f002 0206 	and.w	r2, r2, #6
 8005986:	f042 02f0 	orr.w	r2, r2, #240	; 0xf0
 800598a:	e7ca      	b.n	8005922 <HAL_I2C_EV_IRQHandler+0x5e>
 800598c:	6d22      	ldr	r2, [r4, #80]	; 0x50
 800598e:	2a01      	cmp	r2, #1
 8005990:	d1b4      	bne.n	80058fc <HAL_I2C_EV_IRQHandler+0x38>
 8005992:	6c62      	ldr	r2, [r4, #68]	; 0x44
 8005994:	11d2      	asrs	r2, r2, #7
 8005996:	f002 0206 	and.w	r2, r2, #6
 800599a:	f042 02f1 	orr.w	r2, r2, #241	; 0xf1
 800599e:	e7c0      	b.n	8005922 <HAL_I2C_EV_IRQHandler+0x5e>
 80059a0:	0706      	lsls	r6, r0, #28
 80059a2:	d503      	bpl.n	80059ac <HAL_I2C_EV_IRQHandler+0xe8>
 80059a4:	0596      	lsls	r6, r2, #22
 80059a6:	d501      	bpl.n	80059ac <HAL_I2C_EV_IRQHandler+0xe8>
 80059a8:	6c62      	ldr	r2, [r4, #68]	; 0x44
 80059aa:	e7e4      	b.n	8005976 <HAL_I2C_EV_IRQHandler+0xb2>
 80059ac:	0786      	lsls	r6, r0, #30
 80059ae:	f140 80dd 	bpl.w	8005b6c <HAL_I2C_EV_IRQHandler+0x2a8>
 80059b2:	0596      	lsls	r6, r2, #22
 80059b4:	f140 80da 	bpl.w	8005b6c <HAL_I2C_EV_IRQHandler+0x2a8>
 80059b8:	f894 103e 	ldrb.w	r1, [r4, #62]	; 0x3e
 80059bc:	6ae2      	ldr	r2, [r4, #44]	; 0x2c
 80059be:	6b25      	ldr	r5, [r4, #48]	; 0x30
 80059c0:	f894 003d 	ldrb.w	r0, [r4, #61]	; 0x3d
 80059c4:	2822      	cmp	r0, #34	; 0x22
 80059c6:	b2c9      	uxtb	r1, r1
 80059c8:	f040 80c8 	bne.w	8005b5c <HAL_I2C_EV_IRQHandler+0x298>
 80059cc:	6d20      	ldr	r0, [r4, #80]	; 0x50
 80059ce:	b940      	cbnz	r0, 80059e2 <HAL_I2C_EV_IRQHandler+0x11e>
 80059d0:	2940      	cmp	r1, #64	; 0x40
 80059d2:	d106      	bne.n	80059e2 <HAL_I2C_EV_IRQHandler+0x11e>
 80059d4:	9001      	str	r0, [sp, #4]
 80059d6:	695a      	ldr	r2, [r3, #20]
 80059d8:	9201      	str	r2, [sp, #4]
 80059da:	699b      	ldr	r3, [r3, #24]
 80059dc:	9301      	str	r3, [sp, #4]
 80059de:	9b01      	ldr	r3, [sp, #4]
 80059e0:	e78c      	b.n	80058fc <HAL_I2C_EV_IRQHandler+0x38>
 80059e2:	6d21      	ldr	r1, [r4, #80]	; 0x50
 80059e4:	b989      	cbnz	r1, 8005a0a <HAL_I2C_EV_IRQHandler+0x146>
 80059e6:	6920      	ldr	r0, [r4, #16]
 80059e8:	f5b0 4f40 	cmp.w	r0, #49152	; 0xc000
 80059ec:	d10d      	bne.n	8005a0a <HAL_I2C_EV_IRQHandler+0x146>
 80059ee:	9102      	str	r1, [sp, #8]
 80059f0:	695a      	ldr	r2, [r3, #20]
 80059f2:	9202      	str	r2, [sp, #8]
 80059f4:	699a      	ldr	r2, [r3, #24]
 80059f6:	9202      	str	r2, [sp, #8]
 80059f8:	9a02      	ldr	r2, [sp, #8]
 80059fa:	681a      	ldr	r2, [r3, #0]
 80059fc:	f442 7280 	orr.w	r2, r2, #256	; 0x100
 8005a00:	601a      	str	r2, [r3, #0]
 8005a02:	6d23      	ldr	r3, [r4, #80]	; 0x50
 8005a04:	3301      	adds	r3, #1
 8005a06:	6523      	str	r3, [r4, #80]	; 0x50
 8005a08:	e778      	b.n	80058fc <HAL_I2C_EV_IRQHandler+0x38>
 8005a0a:	8d61      	ldrh	r1, [r4, #42]	; 0x2a
 8005a0c:	b289      	uxth	r1, r1
 8005a0e:	b951      	cbnz	r1, 8005a26 <HAL_I2C_EV_IRQHandler+0x162>
 8005a10:	9103      	str	r1, [sp, #12]
 8005a12:	695a      	ldr	r2, [r3, #20]
 8005a14:	9203      	str	r2, [sp, #12]
 8005a16:	699a      	ldr	r2, [r3, #24]
 8005a18:	9203      	str	r2, [sp, #12]
 8005a1a:	9a03      	ldr	r2, [sp, #12]
 8005a1c:	681a      	ldr	r2, [r3, #0]
 8005a1e:	f442 7200 	orr.w	r2, r2, #512	; 0x200
 8005a22:	601a      	str	r2, [r3, #0]
 8005a24:	e019      	b.n	8005a5a <HAL_I2C_EV_IRQHandler+0x196>
 8005a26:	8d61      	ldrh	r1, [r4, #42]	; 0x2a
 8005a28:	b289      	uxth	r1, r1
 8005a2a:	2901      	cmp	r1, #1
 8005a2c:	d149      	bne.n	8005ac2 <HAL_I2C_EV_IRQHandler+0x1fe>
 8005a2e:	f512 3f80 	cmn.w	r2, #65536	; 0x10000
 8005a32:	d11b      	bne.n	8005a6c <HAL_I2C_EV_IRQHandler+0x1a8>
 8005a34:	681a      	ldr	r2, [r3, #0]
 8005a36:	f422 6280 	bic.w	r2, r2, #1024	; 0x400
 8005a3a:	601a      	str	r2, [r3, #0]
 8005a3c:	685a      	ldr	r2, [r3, #4]
 8005a3e:	f412 6200 	ands.w	r2, r2, #2048	; 0x800
 8005a42:	d00c      	beq.n	8005a5e <HAL_I2C_EV_IRQHandler+0x19a>
 8005a44:	681a      	ldr	r2, [r3, #0]
 8005a46:	f422 6280 	bic.w	r2, r2, #1024	; 0x400
 8005a4a:	601a      	str	r2, [r3, #0]
 8005a4c:	2200      	movs	r2, #0
 8005a4e:	9204      	str	r2, [sp, #16]
 8005a50:	695a      	ldr	r2, [r3, #20]
 8005a52:	9204      	str	r2, [sp, #16]
 8005a54:	699b      	ldr	r3, [r3, #24]
 8005a56:	9304      	str	r3, [sp, #16]
 8005a58:	9b04      	ldr	r3, [sp, #16]
 8005a5a:	2300      	movs	r3, #0
 8005a5c:	e7d3      	b.n	8005a06 <HAL_I2C_EV_IRQHandler+0x142>
 8005a5e:	9205      	str	r2, [sp, #20]
 8005a60:	695a      	ldr	r2, [r3, #20]
 8005a62:	9205      	str	r2, [sp, #20]
 8005a64:	699a      	ldr	r2, [r3, #24]
 8005a66:	9205      	str	r2, [sp, #20]
 8005a68:	9a05      	ldr	r2, [sp, #20]
 8005a6a:	e7d7      	b.n	8005a1c <HAL_I2C_EV_IRQHandler+0x158>
 8005a6c:	2a08      	cmp	r2, #8
 8005a6e:	d01c      	beq.n	8005aaa <HAL_I2C_EV_IRQHandler+0x1e6>
 8005a70:	2a20      	cmp	r2, #32
 8005a72:	d01a      	beq.n	8005aaa <HAL_I2C_EV_IRQHandler+0x1e6>
 8005a74:	2d12      	cmp	r5, #18
 8005a76:	d10d      	bne.n	8005a94 <HAL_I2C_EV_IRQHandler+0x1d0>
 8005a78:	2a01      	cmp	r2, #1
 8005a7a:	d116      	bne.n	8005aaa <HAL_I2C_EV_IRQHandler+0x1e6>
 8005a7c:	681a      	ldr	r2, [r3, #0]
 8005a7e:	f422 6280 	bic.w	r2, r2, #1024	; 0x400
 8005a82:	601a      	str	r2, [r3, #0]
 8005a84:	2200      	movs	r2, #0
 8005a86:	9206      	str	r2, [sp, #24]
 8005a88:	695a      	ldr	r2, [r3, #20]
 8005a8a:	9206      	str	r2, [sp, #24]
 8005a8c:	699b      	ldr	r3, [r3, #24]
 8005a8e:	9306      	str	r3, [sp, #24]
 8005a90:	9b06      	ldr	r3, [sp, #24]
 8005a92:	e7e2      	b.n	8005a5a <HAL_I2C_EV_IRQHandler+0x196>
 8005a94:	2a10      	cmp	r2, #16
 8005a96:	d8f1      	bhi.n	8005a7c <HAL_I2C_EV_IRQHandler+0x1b8>
 8005a98:	4991      	ldr	r1, [pc, #580]	; (8005ce0 <HAL_I2C_EV_IRQHandler+0x41c>)
 8005a9a:	fa21 f202 	lsr.w	r2, r1, r2
 8005a9e:	07d7      	lsls	r7, r2, #31
 8005aa0:	d5ec      	bpl.n	8005a7c <HAL_I2C_EV_IRQHandler+0x1b8>
 8005aa2:	681a      	ldr	r2, [r3, #0]
 8005aa4:	f442 6280 	orr.w	r2, r2, #1024	; 0x400
 8005aa8:	e7eb      	b.n	8005a82 <HAL_I2C_EV_IRQHandler+0x1be>
 8005aaa:	681a      	ldr	r2, [r3, #0]
 8005aac:	f422 6280 	bic.w	r2, r2, #1024	; 0x400
 8005ab0:	601a      	str	r2, [r3, #0]
 8005ab2:	2200      	movs	r2, #0
 8005ab4:	9207      	str	r2, [sp, #28]
 8005ab6:	695a      	ldr	r2, [r3, #20]
 8005ab8:	9207      	str	r2, [sp, #28]
 8005aba:	699a      	ldr	r2, [r3, #24]
 8005abc:	9207      	str	r2, [sp, #28]
 8005abe:	9a07      	ldr	r2, [sp, #28]
 8005ac0:	e7ac      	b.n	8005a1c <HAL_I2C_EV_IRQHandler+0x158>
 8005ac2:	8d61      	ldrh	r1, [r4, #42]	; 0x2a
 8005ac4:	b289      	uxth	r1, r1
 8005ac6:	2902      	cmp	r1, #2
 8005ac8:	d12a      	bne.n	8005b20 <HAL_I2C_EV_IRQHandler+0x25c>
 8005aca:	2a10      	cmp	r2, #16
 8005acc:	d803      	bhi.n	8005ad6 <HAL_I2C_EV_IRQHandler+0x212>
 8005ace:	4984      	ldr	r1, [pc, #528]	; (8005ce0 <HAL_I2C_EV_IRQHandler+0x41c>)
 8005ad0:	40d1      	lsrs	r1, r2
 8005ad2:	07ce      	lsls	r6, r1, #31
 8005ad4:	d420      	bmi.n	8005b18 <HAL_I2C_EV_IRQHandler+0x254>
 8005ad6:	6819      	ldr	r1, [r3, #0]
 8005ad8:	f421 6180 	bic.w	r1, r1, #1024	; 0x400
 8005adc:	6019      	str	r1, [r3, #0]
 8005ade:	6819      	ldr	r1, [r3, #0]
 8005ae0:	f441 6100 	orr.w	r1, r1, #2048	; 0x800
 8005ae4:	6019      	str	r1, [r3, #0]
 8005ae6:	6859      	ldr	r1, [r3, #4]
 8005ae8:	050d      	lsls	r5, r1, #20
 8005aea:	d50d      	bpl.n	8005b08 <HAL_I2C_EV_IRQHandler+0x244>
 8005aec:	f512 3f80 	cmn.w	r2, #65536	; 0x10000
 8005af0:	d006      	beq.n	8005b00 <HAL_I2C_EV_IRQHandler+0x23c>
 8005af2:	1e51      	subs	r1, r2, #1
 8005af4:	291f      	cmp	r1, #31
 8005af6:	d807      	bhi.n	8005b08 <HAL_I2C_EV_IRQHandler+0x244>
 8005af8:	4a7a      	ldr	r2, [pc, #488]	; (8005ce4 <HAL_I2C_EV_IRQHandler+0x420>)
 8005afa:	40ca      	lsrs	r2, r1
 8005afc:	07d0      	lsls	r0, r2, #31
 8005afe:	d503      	bpl.n	8005b08 <HAL_I2C_EV_IRQHandler+0x244>
 8005b00:	685a      	ldr	r2, [r3, #4]
 8005b02:	f442 5280 	orr.w	r2, r2, #4096	; 0x1000
 8005b06:	605a      	str	r2, [r3, #4]
 8005b08:	2200      	movs	r2, #0
 8005b0a:	9208      	str	r2, [sp, #32]
 8005b0c:	695a      	ldr	r2, [r3, #20]
 8005b0e:	9208      	str	r2, [sp, #32]
 8005b10:	699b      	ldr	r3, [r3, #24]
 8005b12:	9308      	str	r3, [sp, #32]
 8005b14:	9b08      	ldr	r3, [sp, #32]
 8005b16:	e7a0      	b.n	8005a5a <HAL_I2C_EV_IRQHandler+0x196>
 8005b18:	6819      	ldr	r1, [r3, #0]
 8005b1a:	f441 6180 	orr.w	r1, r1, #1024	; 0x400
 8005b1e:	e7e1      	b.n	8005ae4 <HAL_I2C_EV_IRQHandler+0x220>
 8005b20:	6819      	ldr	r1, [r3, #0]
 8005b22:	f441 6180 	orr.w	r1, r1, #1024	; 0x400
 8005b26:	6019      	str	r1, [r3, #0]
 8005b28:	6859      	ldr	r1, [r3, #4]
 8005b2a:	0509      	lsls	r1, r1, #20
 8005b2c:	d50e      	bpl.n	8005b4c <HAL_I2C_EV_IRQHandler+0x288>
 8005b2e:	f512 3f80 	cmn.w	r2, #65536	; 0x10000
 8005b32:	d007      	beq.n	8005b44 <HAL_I2C_EV_IRQHandler+0x280>
 8005b34:	3a01      	subs	r2, #1
 8005b36:	2a1f      	cmp	r2, #31
 8005b38:	d808      	bhi.n	8005b4c <HAL_I2C_EV_IRQHandler+0x288>
 8005b3a:	496a      	ldr	r1, [pc, #424]	; (8005ce4 <HAL_I2C_EV_IRQHandler+0x420>)
 8005b3c:	fa21 f202 	lsr.w	r2, r1, r2
 8005b40:	07d2      	lsls	r2, r2, #31
 8005b42:	d503      	bpl.n	8005b4c <HAL_I2C_EV_IRQHandler+0x288>
 8005b44:	685a      	ldr	r2, [r3, #4]
 8005b46:	f442 5280 	orr.w	r2, r2, #4096	; 0x1000
 8005b4a:	605a      	str	r2, [r3, #4]
 8005b4c:	2200      	movs	r2, #0
 8005b4e:	9209      	str	r2, [sp, #36]	; 0x24
 8005b50:	695a      	ldr	r2, [r3, #20]
 8005b52:	9209      	str	r2, [sp, #36]	; 0x24
 8005b54:	699b      	ldr	r3, [r3, #24]
 8005b56:	9309      	str	r3, [sp, #36]	; 0x24
 8005b58:	9b09      	ldr	r3, [sp, #36]	; 0x24
 8005b5a:	e77e      	b.n	8005a5a <HAL_I2C_EV_IRQHandler+0x196>
 8005b5c:	2200      	movs	r2, #0
 8005b5e:	920a      	str	r2, [sp, #40]	; 0x28
 8005b60:	695a      	ldr	r2, [r3, #20]
 8005b62:	920a      	str	r2, [sp, #40]	; 0x28
 8005b64:	699b      	ldr	r3, [r3, #24]
 8005b66:	930a      	str	r3, [sp, #40]	; 0x28
 8005b68:	9b0a      	ldr	r3, [sp, #40]	; 0x28
 8005b6a:	e6c7      	b.n	80058fc <HAL_I2C_EV_IRQHandler+0x38>
 8005b6c:	077f      	lsls	r7, r7, #29
 8005b6e:	f140 808d 	bpl.w	8005c8c <HAL_I2C_EV_IRQHandler+0x3c8>
 8005b72:	685e      	ldr	r6, [r3, #4]
 8005b74:	0536      	lsls	r6, r6, #20
 8005b76:	f53f aec1 	bmi.w	80058fc <HAL_I2C_EV_IRQHandler+0x38>
 8005b7a:	0607      	lsls	r7, r0, #24
 8005b7c:	f3c0 0680 	ubfx	r6, r0, #2, #1
 8005b80:	d53e      	bpl.n	8005c00 <HAL_I2C_EV_IRQHandler+0x33c>
 8005b82:	0550      	lsls	r0, r2, #21
 8005b84:	d53c      	bpl.n	8005c00 <HAL_I2C_EV_IRQHandler+0x33c>
 8005b86:	2e00      	cmp	r6, #0
 8005b88:	d13d      	bne.n	8005c06 <HAL_I2C_EV_IRQHandler+0x342>
 8005b8a:	f894 203d 	ldrb.w	r2, [r4, #61]	; 0x3d
 8005b8e:	8d25      	ldrh	r5, [r4, #40]	; 0x28
 8005b90:	f894 103e 	ldrb.w	r1, [r4, #62]	; 0x3e
 8005b94:	6ae0      	ldr	r0, [r4, #44]	; 0x2c
 8005b96:	b2d2      	uxtb	r2, r2
 8005b98:	b2c9      	uxtb	r1, r1
 8005b9a:	b9c5      	cbnz	r5, 8005bce <HAL_I2C_EV_IRQHandler+0x30a>
 8005b9c:	2a21      	cmp	r2, #33	; 0x21
 8005b9e:	d118      	bne.n	8005bd2 <HAL_I2C_EV_IRQHandler+0x30e>
 8005ba0:	2808      	cmp	r0, #8
 8005ba2:	d058      	beq.n	8005c56 <HAL_I2C_EV_IRQHandler+0x392>
 8005ba4:	2820      	cmp	r0, #32
 8005ba6:	d056      	beq.n	8005c56 <HAL_I2C_EV_IRQHandler+0x392>
 8005ba8:	f510 3f80 	cmn.w	r0, #65536	; 0x10000
 8005bac:	d053      	beq.n	8005c56 <HAL_I2C_EV_IRQHandler+0x392>
 8005bae:	685a      	ldr	r2, [r3, #4]
 8005bb0:	f422 62e0 	bic.w	r2, r2, #1792	; 0x700
 8005bb4:	605a      	str	r2, [r3, #4]
 8005bb6:	2311      	movs	r3, #17
 8005bb8:	6323      	str	r3, [r4, #48]	; 0x30
 8005bba:	2300      	movs	r3, #0
 8005bbc:	f884 303e 	strb.w	r3, [r4, #62]	; 0x3e
 8005bc0:	2320      	movs	r3, #32
 8005bc2:	f884 303d 	strb.w	r3, [r4, #61]	; 0x3d
 8005bc6:	4620      	mov	r0, r4
 8005bc8:	f7ff fd18 	bl	80055fc <HAL_I2C_MasterTxCpltCallback>
 8005bcc:	e696      	b.n	80058fc <HAL_I2C_EV_IRQHandler+0x38>
 8005bce:	2a21      	cmp	r2, #33	; 0x21
 8005bd0:	d005      	beq.n	8005bde <HAL_I2C_EV_IRQHandler+0x31a>
 8005bd2:	2940      	cmp	r1, #64	; 0x40
 8005bd4:	f47f ae92 	bne.w	80058fc <HAL_I2C_EV_IRQHandler+0x38>
 8005bd8:	2a22      	cmp	r2, #34	; 0x22
 8005bda:	f47f ae8f 	bne.w	80058fc <HAL_I2C_EV_IRQHandler+0x38>
 8005bde:	8d62      	ldrh	r2, [r4, #42]	; 0x2a
 8005be0:	b292      	uxth	r2, r2
 8005be2:	b91a      	cbnz	r2, 8005bec <HAL_I2C_EV_IRQHandler+0x328>
 8005be4:	685a      	ldr	r2, [r3, #4]
 8005be6:	f422 6280 	bic.w	r2, r2, #1024	; 0x400
 8005bea:	e6c0      	b.n	800596e <HAL_I2C_EV_IRQHandler+0xaa>
 8005bec:	f894 203e 	ldrb.w	r2, [r4, #62]	; 0x3e
 8005bf0:	2a40      	cmp	r2, #64	; 0x40
 8005bf2:	d116      	bne.n	8005c22 <HAL_I2C_EV_IRQHandler+0x35e>
 8005bf4:	4620      	mov	r0, r4
 8005bf6:	b00f      	add	sp, #60	; 0x3c
 8005bf8:	e8bd 40f0 	ldmia.w	sp!, {r4, r5, r6, r7, lr}
 8005bfc:	f7ff bd05 	b.w	800560a <I2C_MemoryTransmit_TXE_BTF>
 8005c00:	2e00      	cmp	r6, #0
 8005c02:	f43f ae7b 	beq.w	80058fc <HAL_I2C_EV_IRQHandler+0x38>
 8005c06:	0597      	lsls	r7, r2, #22
 8005c08:	f57f ae78 	bpl.w	80058fc <HAL_I2C_EV_IRQHandler+0x38>
 8005c0c:	2921      	cmp	r1, #33	; 0x21
 8005c0e:	d139      	bne.n	8005c84 <HAL_I2C_EV_IRQHandler+0x3c0>
 8005c10:	6ae1      	ldr	r1, [r4, #44]	; 0x2c
 8005c12:	f894 203d 	ldrb.w	r2, [r4, #61]	; 0x3d
 8005c16:	2a21      	cmp	r2, #33	; 0x21
 8005c18:	f47f ae70 	bne.w	80058fc <HAL_I2C_EV_IRQHandler+0x38>
 8005c1c:	8d62      	ldrh	r2, [r4, #42]	; 0x2a
 8005c1e:	b292      	uxth	r2, r2
 8005c20:	b14a      	cbz	r2, 8005c36 <HAL_I2C_EV_IRQHandler+0x372>
 8005c22:	6a62      	ldr	r2, [r4, #36]	; 0x24
 8005c24:	f812 1b01 	ldrb.w	r1, [r2], #1
 8005c28:	6119      	str	r1, [r3, #16]
 8005c2a:	6262      	str	r2, [r4, #36]	; 0x24
 8005c2c:	8d63      	ldrh	r3, [r4, #42]	; 0x2a
 8005c2e:	3b01      	subs	r3, #1
 8005c30:	b29b      	uxth	r3, r3
 8005c32:	8563      	strh	r3, [r4, #42]	; 0x2a
 8005c34:	e662      	b.n	80058fc <HAL_I2C_EV_IRQHandler+0x38>
 8005c36:	2908      	cmp	r1, #8
 8005c38:	d00d      	beq.n	8005c56 <HAL_I2C_EV_IRQHandler+0x392>
 8005c3a:	2920      	cmp	r1, #32
 8005c3c:	d00b      	beq.n	8005c56 <HAL_I2C_EV_IRQHandler+0x392>
 8005c3e:	f511 3f80 	cmn.w	r1, #65536	; 0x10000
 8005c42:	d008      	beq.n	8005c56 <HAL_I2C_EV_IRQHandler+0x392>
 8005c44:	6859      	ldr	r1, [r3, #4]
 8005c46:	f421 61e0 	bic.w	r1, r1, #1792	; 0x700
 8005c4a:	6059      	str	r1, [r3, #4]
 8005c4c:	2311      	movs	r3, #17
 8005c4e:	6323      	str	r3, [r4, #48]	; 0x30
 8005c50:	f884 203e 	strb.w	r2, [r4, #62]	; 0x3e
 8005c54:	e7b4      	b.n	8005bc0 <HAL_I2C_EV_IRQHandler+0x2fc>
 8005c56:	685a      	ldr	r2, [r3, #4]
 8005c58:	f422 62e0 	bic.w	r2, r2, #1792	; 0x700
 8005c5c:	605a      	str	r2, [r3, #4]
 8005c5e:	681a      	ldr	r2, [r3, #0]
 8005c60:	f442 7200 	orr.w	r2, r2, #512	; 0x200
 8005c64:	601a      	str	r2, [r3, #0]
 8005c66:	2300      	movs	r3, #0
 8005c68:	2220      	movs	r2, #32
 8005c6a:	6323      	str	r3, [r4, #48]	; 0x30
 8005c6c:	f884 203d 	strb.w	r2, [r4, #61]	; 0x3d
 8005c70:	f894 203e 	ldrb.w	r2, [r4, #62]	; 0x3e
 8005c74:	f884 303e 	strb.w	r3, [r4, #62]	; 0x3e
 8005c78:	2a40      	cmp	r2, #64	; 0x40
 8005c7a:	4620      	mov	r0, r4
 8005c7c:	d1a4      	bne.n	8005bc8 <HAL_I2C_EV_IRQHandler+0x304>
 8005c7e:	f7ff fcc3 	bl	8005608 <HAL_I2C_MemTxCpltCallback>
 8005c82:	e63b      	b.n	80058fc <HAL_I2C_EV_IRQHandler+0x38>
 8005c84:	2d40      	cmp	r5, #64	; 0x40
 8005c86:	f47f ae39 	bne.w	80058fc <HAL_I2C_EV_IRQHandler+0x38>
 8005c8a:	e7b3      	b.n	8005bf4 <HAL_I2C_EV_IRQHandler+0x330>
 8005c8c:	6859      	ldr	r1, [r3, #4]
 8005c8e:	050e      	lsls	r6, r1, #20
 8005c90:	f53f ae34 	bmi.w	80058fc <HAL_I2C_EV_IRQHandler+0x38>
 8005c94:	0645      	lsls	r5, r0, #25
 8005c96:	f3c0 0180 	ubfx	r1, r0, #2, #1
 8005c9a:	d57a      	bpl.n	8005d92 <HAL_I2C_EV_IRQHandler+0x4ce>
 8005c9c:	0550      	lsls	r0, r2, #21
 8005c9e:	d578      	bpl.n	8005d92 <HAL_I2C_EV_IRQHandler+0x4ce>
 8005ca0:	2900      	cmp	r1, #0
 8005ca2:	d179      	bne.n	8005d98 <HAL_I2C_EV_IRQHandler+0x4d4>
 8005ca4:	f894 203d 	ldrb.w	r2, [r4, #61]	; 0x3d
 8005ca8:	2a22      	cmp	r2, #34	; 0x22
 8005caa:	f47f ae27 	bne.w	80058fc <HAL_I2C_EV_IRQHandler+0x38>
 8005cae:	8d62      	ldrh	r2, [r4, #42]	; 0x2a
 8005cb0:	b292      	uxth	r2, r2
 8005cb2:	2a03      	cmp	r2, #3
 8005cb4:	d918      	bls.n	8005ce8 <HAL_I2C_EV_IRQHandler+0x424>
 8005cb6:	691a      	ldr	r2, [r3, #16]
 8005cb8:	6a63      	ldr	r3, [r4, #36]	; 0x24
 8005cba:	701a      	strb	r2, [r3, #0]
 8005cbc:	6a63      	ldr	r3, [r4, #36]	; 0x24
 8005cbe:	3301      	adds	r3, #1
 8005cc0:	6263      	str	r3, [r4, #36]	; 0x24
 8005cc2:	8d63      	ldrh	r3, [r4, #42]	; 0x2a
 8005cc4:	3b01      	subs	r3, #1
 8005cc6:	b29b      	uxth	r3, r3
 8005cc8:	8563      	strh	r3, [r4, #42]	; 0x2a
 8005cca:	8d63      	ldrh	r3, [r4, #42]	; 0x2a
 8005ccc:	b29b      	uxth	r3, r3
 8005cce:	2b03      	cmp	r3, #3
 8005cd0:	f47f ae14 	bne.w	80058fc <HAL_I2C_EV_IRQHandler+0x38>
 8005cd4:	6822      	ldr	r2, [r4, #0]
 8005cd6:	6853      	ldr	r3, [r2, #4]
 8005cd8:	f423 6380 	bic.w	r3, r3, #1024	; 0x400
 8005cdc:	6053      	str	r3, [r2, #4]
 8005cde:	e60d      	b.n	80058fc <HAL_I2C_EV_IRQHandler+0x38>
 8005ce0:	00010014 	.word	0x00010014
 8005ce4:	80008081 	.word	0x80008081
 8005ce8:	6ae0      	ldr	r0, [r4, #44]	; 0x2c
 8005cea:	2802      	cmp	r0, #2
 8005cec:	f43f af7a 	beq.w	8005be4 <HAL_I2C_EV_IRQHandler+0x320>
 8005cf0:	2a01      	cmp	r2, #1
 8005cf2:	f63f af77 	bhi.w	8005be4 <HAL_I2C_EV_IRQHandler+0x320>
 8005cf6:	4a75      	ldr	r2, [pc, #468]	; (8005ecc <HAL_I2C_EV_IRQHandler+0x608>)
 8005cf8:	910b      	str	r1, [sp, #44]	; 0x2c
 8005cfa:	6812      	ldr	r2, [r2, #0]
 8005cfc:	f246 11a8 	movw	r1, #25000	; 0x61a8
 8005d00:	fbb2 f2f1 	udiv	r2, r2, r1
 8005d04:	eb02 0282 	add.w	r2, r2, r2, lsl #2
 8005d08:	920b      	str	r2, [sp, #44]	; 0x2c
 8005d0a:	9a0b      	ldr	r2, [sp, #44]	; 0x2c
 8005d0c:	3a01      	subs	r2, #1
 8005d0e:	920b      	str	r2, [sp, #44]	; 0x2c
 8005d10:	990b      	ldr	r1, [sp, #44]	; 0x2c
 8005d12:	b9d1      	cbnz	r1, 8005d4a <HAL_I2C_EV_IRQHandler+0x486>
 8005d14:	6c22      	ldr	r2, [r4, #64]	; 0x40
 8005d16:	f042 0220 	orr.w	r2, r2, #32
 8005d1a:	6422      	str	r2, [r4, #64]	; 0x40
 8005d1c:	685a      	ldr	r2, [r3, #4]
 8005d1e:	f422 62e0 	bic.w	r2, r2, #1792	; 0x700
 8005d22:	605a      	str	r2, [r3, #4]
 8005d24:	691a      	ldr	r2, [r3, #16]
 8005d26:	6a63      	ldr	r3, [r4, #36]	; 0x24
 8005d28:	701a      	strb	r2, [r3, #0]
 8005d2a:	6a63      	ldr	r3, [r4, #36]	; 0x24
 8005d2c:	3301      	adds	r3, #1
 8005d2e:	6263      	str	r3, [r4, #36]	; 0x24
 8005d30:	8d63      	ldrh	r3, [r4, #42]	; 0x2a
 8005d32:	3b01      	subs	r3, #1
 8005d34:	b29b      	uxth	r3, r3
 8005d36:	8563      	strh	r3, [r4, #42]	; 0x2a
 8005d38:	2320      	movs	r3, #32
 8005d3a:	f884 303d 	strb.w	r3, [r4, #61]	; 0x3d
 8005d3e:	4620      	mov	r0, r4
 8005d40:	f884 103e 	strb.w	r1, [r4, #62]	; 0x3e
 8005d44:	f7ff fcb3 	bl	80056ae <HAL_I2C_ErrorCallback>
 8005d48:	e5d8      	b.n	80058fc <HAL_I2C_EV_IRQHandler+0x38>
 8005d4a:	681a      	ldr	r2, [r3, #0]
 8005d4c:	f412 7200 	ands.w	r2, r2, #512	; 0x200
 8005d50:	d1db      	bne.n	8005d0a <HAL_I2C_EV_IRQHandler+0x446>
 8005d52:	6819      	ldr	r1, [r3, #0]
 8005d54:	f421 6180 	bic.w	r1, r1, #1024	; 0x400
 8005d58:	6019      	str	r1, [r3, #0]
 8005d5a:	6859      	ldr	r1, [r3, #4]
 8005d5c:	f421 61e0 	bic.w	r1, r1, #1792	; 0x700
 8005d60:	6059      	str	r1, [r3, #4]
 8005d62:	6919      	ldr	r1, [r3, #16]
 8005d64:	6a63      	ldr	r3, [r4, #36]	; 0x24
 8005d66:	7019      	strb	r1, [r3, #0]
 8005d68:	6a63      	ldr	r3, [r4, #36]	; 0x24
 8005d6a:	3301      	adds	r3, #1
 8005d6c:	6263      	str	r3, [r4, #36]	; 0x24
 8005d6e:	8d63      	ldrh	r3, [r4, #42]	; 0x2a
 8005d70:	3b01      	subs	r3, #1
 8005d72:	b29b      	uxth	r3, r3
 8005d74:	8563      	strh	r3, [r4, #42]	; 0x2a
 8005d76:	2320      	movs	r3, #32
 8005d78:	f884 303d 	strb.w	r3, [r4, #61]	; 0x3d
 8005d7c:	f894 303e 	ldrb.w	r3, [r4, #62]	; 0x3e
 8005d80:	f884 203e 	strb.w	r2, [r4, #62]	; 0x3e
 8005d84:	2b40      	cmp	r3, #64	; 0x40
 8005d86:	d168      	bne.n	8005e5a <HAL_I2C_EV_IRQHandler+0x596>
 8005d88:	6322      	str	r2, [r4, #48]	; 0x30
 8005d8a:	4620      	mov	r0, r4
 8005d8c:	f7ff fc8e 	bl	80056ac <HAL_I2C_MemRxCpltCallback>
 8005d90:	e5b4      	b.n	80058fc <HAL_I2C_EV_IRQHandler+0x38>
 8005d92:	2900      	cmp	r1, #0
 8005d94:	f43f adb2 	beq.w	80058fc <HAL_I2C_EV_IRQHandler+0x38>
 8005d98:	0592      	lsls	r2, r2, #22
 8005d9a:	f57f adaf 	bpl.w	80058fc <HAL_I2C_EV_IRQHandler+0x38>
 8005d9e:	6ae2      	ldr	r2, [r4, #44]	; 0x2c
 8005da0:	8d60      	ldrh	r0, [r4, #42]	; 0x2a
 8005da2:	6a61      	ldr	r1, [r4, #36]	; 0x24
 8005da4:	b280      	uxth	r0, r0
 8005da6:	2804      	cmp	r0, #4
 8005da8:	d109      	bne.n	8005dbe <HAL_I2C_EV_IRQHandler+0x4fa>
 8005daa:	685a      	ldr	r2, [r3, #4]
 8005dac:	f422 6280 	bic.w	r2, r2, #1024	; 0x400
 8005db0:	605a      	str	r2, [r3, #4]
 8005db2:	691b      	ldr	r3, [r3, #16]
 8005db4:	700b      	strb	r3, [r1, #0]
 8005db6:	6a63      	ldr	r3, [r4, #36]	; 0x24
 8005db8:	3301      	adds	r3, #1
 8005dba:	6263      	str	r3, [r4, #36]	; 0x24
 8005dbc:	e736      	b.n	8005c2c <HAL_I2C_EV_IRQHandler+0x368>
 8005dbe:	8d60      	ldrh	r0, [r4, #42]	; 0x2a
 8005dc0:	b280      	uxth	r0, r0
 8005dc2:	2803      	cmp	r0, #3
 8005dc4:	d10c      	bne.n	8005de0 <HAL_I2C_EV_IRQHandler+0x51c>
 8005dc6:	6858      	ldr	r0, [r3, #4]
 8005dc8:	2a04      	cmp	r2, #4
 8005dca:	f420 6080 	bic.w	r0, r0, #1024	; 0x400
 8005dce:	6058      	str	r0, [r3, #4]
 8005dd0:	d0ef      	beq.n	8005db2 <HAL_I2C_EV_IRQHandler+0x4ee>
 8005dd2:	2a02      	cmp	r2, #2
 8005dd4:	d0ed      	beq.n	8005db2 <HAL_I2C_EV_IRQHandler+0x4ee>
 8005dd6:	681a      	ldr	r2, [r3, #0]
 8005dd8:	f422 6280 	bic.w	r2, r2, #1024	; 0x400
 8005ddc:	601a      	str	r2, [r3, #0]
 8005dde:	e7e8      	b.n	8005db2 <HAL_I2C_EV_IRQHandler+0x4ee>
 8005de0:	8d60      	ldrh	r0, [r4, #42]	; 0x2a
 8005de2:	b280      	uxth	r0, r0
 8005de4:	2802      	cmp	r0, #2
 8005de6:	d1e4      	bne.n	8005db2 <HAL_I2C_EV_IRQHandler+0x4ee>
 8005de8:	2a01      	cmp	r2, #1
 8005dea:	d001      	beq.n	8005df0 <HAL_I2C_EV_IRQHandler+0x52c>
 8005dec:	2a10      	cmp	r2, #16
 8005dee:	d128      	bne.n	8005e42 <HAL_I2C_EV_IRQHandler+0x57e>
 8005df0:	681a      	ldr	r2, [r3, #0]
 8005df2:	f422 6280 	bic.w	r2, r2, #1024	; 0x400
 8005df6:	601a      	str	r2, [r3, #0]
 8005df8:	691b      	ldr	r3, [r3, #16]
 8005dfa:	700b      	strb	r3, [r1, #0]
 8005dfc:	6a62      	ldr	r2, [r4, #36]	; 0x24
 8005dfe:	1c53      	adds	r3, r2, #1
 8005e00:	6263      	str	r3, [r4, #36]	; 0x24
 8005e02:	8d63      	ldrh	r3, [r4, #42]	; 0x2a
 8005e04:	3b01      	subs	r3, #1
 8005e06:	b29b      	uxth	r3, r3
 8005e08:	8563      	strh	r3, [r4, #42]	; 0x2a
 8005e0a:	6823      	ldr	r3, [r4, #0]
 8005e0c:	691b      	ldr	r3, [r3, #16]
 8005e0e:	7053      	strb	r3, [r2, #1]
 8005e10:	6a63      	ldr	r3, [r4, #36]	; 0x24
 8005e12:	6822      	ldr	r2, [r4, #0]
 8005e14:	3301      	adds	r3, #1
 8005e16:	6263      	str	r3, [r4, #36]	; 0x24
 8005e18:	8d63      	ldrh	r3, [r4, #42]	; 0x2a
 8005e1a:	3b01      	subs	r3, #1
 8005e1c:	b29b      	uxth	r3, r3
 8005e1e:	8563      	strh	r3, [r4, #42]	; 0x2a
 8005e20:	6853      	ldr	r3, [r2, #4]
 8005e22:	f423 7340 	bic.w	r3, r3, #768	; 0x300
 8005e26:	6053      	str	r3, [r2, #4]
 8005e28:	2320      	movs	r3, #32
 8005e2a:	f884 303d 	strb.w	r3, [r4, #61]	; 0x3d
 8005e2e:	f894 303e 	ldrb.w	r3, [r4, #62]	; 0x3e
 8005e32:	2b40      	cmp	r3, #64	; 0x40
 8005e34:	f04f 0300 	mov.w	r3, #0
 8005e38:	f884 303e 	strb.w	r3, [r4, #62]	; 0x3e
 8005e3c:	d10d      	bne.n	8005e5a <HAL_I2C_EV_IRQHandler+0x596>
 8005e3e:	6323      	str	r3, [r4, #48]	; 0x30
 8005e40:	e7a3      	b.n	8005d8a <HAL_I2C_EV_IRQHandler+0x4c6>
 8005e42:	2a04      	cmp	r2, #4
 8005e44:	d001      	beq.n	8005e4a <HAL_I2C_EV_IRQHandler+0x586>
 8005e46:	2a02      	cmp	r2, #2
 8005e48:	d103      	bne.n	8005e52 <HAL_I2C_EV_IRQHandler+0x58e>
 8005e4a:	681a      	ldr	r2, [r3, #0]
 8005e4c:	f442 6280 	orr.w	r2, r2, #1024	; 0x400
 8005e50:	e7d1      	b.n	8005df6 <HAL_I2C_EV_IRQHandler+0x532>
 8005e52:	681a      	ldr	r2, [r3, #0]
 8005e54:	f442 7200 	orr.w	r2, r2, #512	; 0x200
 8005e58:	e7cd      	b.n	8005df6 <HAL_I2C_EV_IRQHandler+0x532>
 8005e5a:	2312      	movs	r3, #18
 8005e5c:	6323      	str	r3, [r4, #48]	; 0x30
 8005e5e:	4620      	mov	r0, r4
 8005e60:	f7ff fbcd 	bl	80055fe <HAL_I2C_MasterRxCpltCallback>
 8005e64:	e54a      	b.n	80058fc <HAL_I2C_EV_IRQHandler+0x38>
 8005e66:	6c20      	ldr	r0, [r4, #64]	; 0x40
 8005e68:	b310      	cbz	r0, 8005eb0 <HAL_I2C_EV_IRQHandler+0x5ec>
 8005e6a:	6958      	ldr	r0, [r3, #20]
 8005e6c:	2500      	movs	r5, #0
 8005e6e:	0787      	lsls	r7, r0, #30
 8005e70:	d52e      	bpl.n	8005ed0 <HAL_I2C_EV_IRQHandler+0x60c>
 8005e72:	0596      	lsls	r6, r2, #22
 8005e74:	d52c      	bpl.n	8005ed0 <HAL_I2C_EV_IRQHandler+0x60c>
 8005e76:	6c22      	ldr	r2, [r4, #64]	; 0x40
 8005e78:	b102      	cbz	r2, 8005e7c <HAL_I2C_EV_IRQHandler+0x5b8>
 8005e7a:	699d      	ldr	r5, [r3, #24]
 8005e7c:	f894 203d 	ldrb.w	r2, [r4, #61]	; 0x3d
 8005e80:	f002 0228 	and.w	r2, r2, #40	; 0x28
 8005e84:	2a28      	cmp	r2, #40	; 0x28
 8005e86:	d116      	bne.n	8005eb6 <HAL_I2C_EV_IRQHandler+0x5f2>
 8005e88:	685a      	ldr	r2, [r3, #4]
 8005e8a:	f422 6280 	bic.w	r2, r2, #1024	; 0x400
 8005e8e:	605a      	str	r2, [r3, #4]
 8005e90:	062f      	lsls	r7, r5, #24
 8005e92:	ea6f 0195 	mvn.w	r1, r5, lsr #2
 8005e96:	f04f 0300 	mov.w	r3, #0
 8005e9a:	bf54      	ite	pl
 8005e9c:	89a2      	ldrhpl	r2, [r4, #12]
 8005e9e:	8b22      	ldrhmi	r2, [r4, #24]
 8005ea0:	f884 303c 	strb.w	r3, [r4, #60]	; 0x3c
 8005ea4:	f001 0101 	and.w	r1, r1, #1
 8005ea8:	4620      	mov	r0, r4
 8005eaa:	f7ff fbab 	bl	8005604 <HAL_I2C_AddrCallback>
 8005eae:	e525      	b.n	80058fc <HAL_I2C_EV_IRQHandler+0x38>
 8005eb0:	699d      	ldr	r5, [r3, #24]
 8005eb2:	6958      	ldr	r0, [r3, #20]
 8005eb4:	e7db      	b.n	8005e6e <HAL_I2C_EV_IRQHandler+0x5aa>
 8005eb6:	2200      	movs	r2, #0
 8005eb8:	920c      	str	r2, [sp, #48]	; 0x30
 8005eba:	6959      	ldr	r1, [r3, #20]
 8005ebc:	910c      	str	r1, [sp, #48]	; 0x30
 8005ebe:	699b      	ldr	r3, [r3, #24]
 8005ec0:	930c      	str	r3, [sp, #48]	; 0x30
 8005ec2:	9b0c      	ldr	r3, [sp, #48]	; 0x30
 8005ec4:	f884 203c 	strb.w	r2, [r4, #60]	; 0x3c
 8005ec8:	e518      	b.n	80058fc <HAL_I2C_EV_IRQHandler+0x38>
 8005eca:	bf00      	nop
 8005ecc:	20000004 	.word	0x20000004
 8005ed0:	06c6      	lsls	r6, r0, #27
 8005ed2:	f140 80b1 	bpl.w	8006038 <HAL_I2C_EV_IRQHandler+0x774>
 8005ed6:	0595      	lsls	r5, r2, #22
 8005ed8:	f140 80ae 	bpl.w	8006038 <HAL_I2C_EV_IRQHandler+0x774>
 8005edc:	f894 503d 	ldrb.w	r5, [r4, #61]	; 0x3d
 8005ee0:	685a      	ldr	r2, [r3, #4]
 8005ee2:	f422 62e0 	bic.w	r2, r2, #1792	; 0x700
 8005ee6:	605a      	str	r2, [r3, #4]
 8005ee8:	2200      	movs	r2, #0
 8005eea:	920d      	str	r2, [sp, #52]	; 0x34
 8005eec:	695a      	ldr	r2, [r3, #20]
 8005eee:	920d      	str	r2, [sp, #52]	; 0x34
 8005ef0:	681a      	ldr	r2, [r3, #0]
 8005ef2:	f042 0201 	orr.w	r2, r2, #1
 8005ef6:	601a      	str	r2, [r3, #0]
 8005ef8:	9a0d      	ldr	r2, [sp, #52]	; 0x34
 8005efa:	681a      	ldr	r2, [r3, #0]
 8005efc:	f422 6280 	bic.w	r2, r2, #1024	; 0x400
 8005f00:	601a      	str	r2, [r3, #0]
 8005f02:	685a      	ldr	r2, [r3, #4]
 8005f04:	0510      	lsls	r0, r2, #20
 8005f06:	b2ed      	uxtb	r5, r5
 8005f08:	d520      	bpl.n	8005f4c <HAL_I2C_EV_IRQHandler+0x688>
 8005f0a:	f005 02f7 	and.w	r2, r5, #247	; 0xf7
 8005f0e:	2a22      	cmp	r2, #34	; 0x22
 8005f10:	d14a      	bne.n	8005fa8 <HAL_I2C_EV_IRQHandler+0x6e4>
 8005f12:	6ba0      	ldr	r0, [r4, #56]	; 0x38
 8005f14:	6802      	ldr	r2, [r0, #0]
 8005f16:	6852      	ldr	r2, [r2, #4]
 8005f18:	b292      	uxth	r2, r2
 8005f1a:	8562      	strh	r2, [r4, #42]	; 0x2a
 8005f1c:	8d62      	ldrh	r2, [r4, #42]	; 0x2a
 8005f1e:	b292      	uxth	r2, r2
 8005f20:	b11a      	cbz	r2, 8005f2a <HAL_I2C_EV_IRQHandler+0x666>
 8005f22:	6c22      	ldr	r2, [r4, #64]	; 0x40
 8005f24:	f042 0204 	orr.w	r2, r2, #4
 8005f28:	6422      	str	r2, [r4, #64]	; 0x40
 8005f2a:	685a      	ldr	r2, [r3, #4]
 8005f2c:	f422 6200 	bic.w	r2, r2, #2048	; 0x800
 8005f30:	605a      	str	r2, [r3, #4]
 8005f32:	f7fe fe85 	bl	8004c40 <HAL_DMA_GetState>
 8005f36:	2801      	cmp	r0, #1
 8005f38:	d008      	beq.n	8005f4c <HAL_I2C_EV_IRQHandler+0x688>
 8005f3a:	6ba0      	ldr	r0, [r4, #56]	; 0x38
 8005f3c:	4b79      	ldr	r3, [pc, #484]	; (8006124 <HAL_I2C_EV_IRQHandler+0x860>)
 8005f3e:	6503      	str	r3, [r0, #80]	; 0x50
 8005f40:	f7fe fe6c 	bl	8004c1c <HAL_DMA_Abort_IT>
 8005f44:	b110      	cbz	r0, 8005f4c <HAL_I2C_EV_IRQHandler+0x688>
 8005f46:	6ba0      	ldr	r0, [r4, #56]	; 0x38
 8005f48:	6d03      	ldr	r3, [r0, #80]	; 0x50
 8005f4a:	4798      	blx	r3
 8005f4c:	8d63      	ldrh	r3, [r4, #42]	; 0x2a
 8005f4e:	b29b      	uxth	r3, r3
 8005f50:	b313      	cbz	r3, 8005f98 <HAL_I2C_EV_IRQHandler+0x6d4>
 8005f52:	6823      	ldr	r3, [r4, #0]
 8005f54:	695a      	ldr	r2, [r3, #20]
 8005f56:	0751      	lsls	r1, r2, #29
 8005f58:	d509      	bpl.n	8005f6e <HAL_I2C_EV_IRQHandler+0x6aa>
 8005f5a:	691a      	ldr	r2, [r3, #16]
 8005f5c:	6a63      	ldr	r3, [r4, #36]	; 0x24
 8005f5e:	701a      	strb	r2, [r3, #0]
 8005f60:	6a63      	ldr	r3, [r4, #36]	; 0x24
 8005f62:	3301      	adds	r3, #1
 8005f64:	6263      	str	r3, [r4, #36]	; 0x24
 8005f66:	8d63      	ldrh	r3, [r4, #42]	; 0x2a
 8005f68:	3b01      	subs	r3, #1
 8005f6a:	b29b      	uxth	r3, r3
 8005f6c:	8563      	strh	r3, [r4, #42]	; 0x2a
 8005f6e:	6823      	ldr	r3, [r4, #0]
 8005f70:	695a      	ldr	r2, [r3, #20]
 8005f72:	0652      	lsls	r2, r2, #25
 8005f74:	d509      	bpl.n	8005f8a <HAL_I2C_EV_IRQHandler+0x6c6>
 8005f76:	691a      	ldr	r2, [r3, #16]
 8005f78:	6a63      	ldr	r3, [r4, #36]	; 0x24
 8005f7a:	701a      	strb	r2, [r3, #0]
 8005f7c:	6a63      	ldr	r3, [r4, #36]	; 0x24
 8005f7e:	3301      	adds	r3, #1
 8005f80:	6263      	str	r3, [r4, #36]	; 0x24
 8005f82:	8d63      	ldrh	r3, [r4, #42]	; 0x2a
 8005f84:	3b01      	subs	r3, #1
 8005f86:	b29b      	uxth	r3, r3
 8005f88:	8563      	strh	r3, [r4, #42]	; 0x2a
 8005f8a:	8d63      	ldrh	r3, [r4, #42]	; 0x2a
 8005f8c:	b29b      	uxth	r3, r3
 8005f8e:	b11b      	cbz	r3, 8005f98 <HAL_I2C_EV_IRQHandler+0x6d4>
 8005f90:	6c23      	ldr	r3, [r4, #64]	; 0x40
 8005f92:	f043 0304 	orr.w	r3, r3, #4
 8005f96:	6423      	str	r3, [r4, #64]	; 0x40
 8005f98:	6c23      	ldr	r3, [r4, #64]	; 0x40
 8005f9a:	b313      	cbz	r3, 8005fe2 <HAL_I2C_EV_IRQHandler+0x71e>
 8005f9c:	4620      	mov	r0, r4
 8005f9e:	b00f      	add	sp, #60	; 0x3c
 8005fa0:	e8bd 40f0 	ldmia.w	sp!, {r4, r5, r6, r7, lr}
 8005fa4:	f7ff bbe6 	b.w	8005774 <I2C_ITError>
 8005fa8:	6b60      	ldr	r0, [r4, #52]	; 0x34
 8005faa:	6802      	ldr	r2, [r0, #0]
 8005fac:	6852      	ldr	r2, [r2, #4]
 8005fae:	b292      	uxth	r2, r2
 8005fb0:	8562      	strh	r2, [r4, #42]	; 0x2a
 8005fb2:	8d62      	ldrh	r2, [r4, #42]	; 0x2a
 8005fb4:	b292      	uxth	r2, r2
 8005fb6:	b11a      	cbz	r2, 8005fc0 <HAL_I2C_EV_IRQHandler+0x6fc>
 8005fb8:	6c22      	ldr	r2, [r4, #64]	; 0x40
 8005fba:	f042 0204 	orr.w	r2, r2, #4
 8005fbe:	6422      	str	r2, [r4, #64]	; 0x40
 8005fc0:	685a      	ldr	r2, [r3, #4]
 8005fc2:	f422 6200 	bic.w	r2, r2, #2048	; 0x800
 8005fc6:	605a      	str	r2, [r3, #4]
 8005fc8:	f7fe fe3a 	bl	8004c40 <HAL_DMA_GetState>
 8005fcc:	2801      	cmp	r0, #1
 8005fce:	d0bd      	beq.n	8005f4c <HAL_I2C_EV_IRQHandler+0x688>
 8005fd0:	6b60      	ldr	r0, [r4, #52]	; 0x34
 8005fd2:	4b54      	ldr	r3, [pc, #336]	; (8006124 <HAL_I2C_EV_IRQHandler+0x860>)
 8005fd4:	6503      	str	r3, [r0, #80]	; 0x50
 8005fd6:	f7fe fe21 	bl	8004c1c <HAL_DMA_Abort_IT>
 8005fda:	2800      	cmp	r0, #0
 8005fdc:	d0b6      	beq.n	8005f4c <HAL_I2C_EV_IRQHandler+0x688>
 8005fde:	6b60      	ldr	r0, [r4, #52]	; 0x34
 8005fe0:	e7b2      	b.n	8005f48 <HAL_I2C_EV_IRQHandler+0x684>
 8005fe2:	2d2a      	cmp	r5, #42	; 0x2a
 8005fe4:	d106      	bne.n	8005ff4 <HAL_I2C_EV_IRQHandler+0x730>
 8005fe6:	6323      	str	r3, [r4, #48]	; 0x30
 8005fe8:	2328      	movs	r3, #40	; 0x28
 8005fea:	f884 303d 	strb.w	r3, [r4, #61]	; 0x3d
 8005fee:	4620      	mov	r0, r4
 8005ff0:	f7ff fb07 	bl	8005602 <HAL_I2C_SlaveRxCpltCallback>
 8005ff4:	f894 303d 	ldrb.w	r3, [r4, #61]	; 0x3d
 8005ff8:	2b28      	cmp	r3, #40	; 0x28
 8005ffa:	d10c      	bne.n	8006016 <HAL_I2C_EV_IRQHandler+0x752>
 8005ffc:	4b4a      	ldr	r3, [pc, #296]	; (8006128 <HAL_I2C_EV_IRQHandler+0x864>)
 8005ffe:	62e3      	str	r3, [r4, #44]	; 0x2c
 8006000:	2220      	movs	r2, #32
 8006002:	2300      	movs	r3, #0
 8006004:	6323      	str	r3, [r4, #48]	; 0x30
 8006006:	4620      	mov	r0, r4
 8006008:	f884 203d 	strb.w	r2, [r4, #61]	; 0x3d
 800600c:	f884 303e 	strb.w	r3, [r4, #62]	; 0x3e
 8006010:	f7ff faf9 	bl	8005606 <HAL_I2C_ListenCpltCallback>
 8006014:	e472      	b.n	80058fc <HAL_I2C_EV_IRQHandler+0x38>
 8006016:	6b23      	ldr	r3, [r4, #48]	; 0x30
 8006018:	2b22      	cmp	r3, #34	; 0x22
 800601a:	d002      	beq.n	8006022 <HAL_I2C_EV_IRQHandler+0x75e>
 800601c:	2d22      	cmp	r5, #34	; 0x22
 800601e:	f47f ac6d 	bne.w	80058fc <HAL_I2C_EV_IRQHandler+0x38>
 8006022:	2300      	movs	r3, #0
 8006024:	2220      	movs	r2, #32
 8006026:	6323      	str	r3, [r4, #48]	; 0x30
 8006028:	f884 203d 	strb.w	r2, [r4, #61]	; 0x3d
 800602c:	f884 303e 	strb.w	r3, [r4, #62]	; 0x3e
 8006030:	4620      	mov	r0, r4
 8006032:	f7ff fae6 	bl	8005602 <HAL_I2C_SlaveRxCpltCallback>
 8006036:	e461      	b.n	80058fc <HAL_I2C_EV_IRQHandler+0x38>
 8006038:	f001 01f7 	and.w	r1, r1, #247	; 0xf7
 800603c:	2921      	cmp	r1, #33	; 0x21
 800603e:	f3c0 0580 	ubfx	r5, r0, #2, #1
 8006042:	d135      	bne.n	80060b0 <HAL_I2C_EV_IRQHandler+0x7ec>
 8006044:	0607      	lsls	r7, r0, #24
 8006046:	d527      	bpl.n	8006098 <HAL_I2C_EV_IRQHandler+0x7d4>
 8006048:	0556      	lsls	r6, r2, #21
 800604a:	d525      	bpl.n	8006098 <HAL_I2C_EV_IRQHandler+0x7d4>
 800604c:	bb3d      	cbnz	r5, 800609e <HAL_I2C_EV_IRQHandler+0x7da>
 800604e:	f894 003d 	ldrb.w	r0, [r4, #61]	; 0x3d
 8006052:	8d62      	ldrh	r2, [r4, #42]	; 0x2a
 8006054:	b292      	uxth	r2, r2
 8006056:	b2c0      	uxtb	r0, r0
 8006058:	2a00      	cmp	r2, #0
 800605a:	f43f ac4f 	beq.w	80058fc <HAL_I2C_EV_IRQHandler+0x38>
 800605e:	6a62      	ldr	r2, [r4, #36]	; 0x24
 8006060:	f812 5b01 	ldrb.w	r5, [r2], #1
 8006064:	611d      	str	r5, [r3, #16]
 8006066:	6262      	str	r2, [r4, #36]	; 0x24
 8006068:	8d62      	ldrh	r2, [r4, #42]	; 0x2a
 800606a:	3a01      	subs	r2, #1
 800606c:	b292      	uxth	r2, r2
 800606e:	8562      	strh	r2, [r4, #42]	; 0x2a
 8006070:	8d62      	ldrh	r2, [r4, #42]	; 0x2a
 8006072:	b292      	uxth	r2, r2
 8006074:	2a00      	cmp	r2, #0
 8006076:	f47f ac41 	bne.w	80058fc <HAL_I2C_EV_IRQHandler+0x38>
 800607a:	2829      	cmp	r0, #41	; 0x29
 800607c:	f47f ac3e 	bne.w	80058fc <HAL_I2C_EV_IRQHandler+0x38>
 8006080:	685a      	ldr	r2, [r3, #4]
 8006082:	f422 6280 	bic.w	r2, r2, #1024	; 0x400
 8006086:	605a      	str	r2, [r3, #4]
 8006088:	2328      	movs	r3, #40	; 0x28
 800608a:	6321      	str	r1, [r4, #48]	; 0x30
 800608c:	4620      	mov	r0, r4
 800608e:	f884 303d 	strb.w	r3, [r4, #61]	; 0x3d
 8006092:	f7ff fab5 	bl	8005600 <HAL_I2C_SlaveTxCpltCallback>
 8006096:	e431      	b.n	80058fc <HAL_I2C_EV_IRQHandler+0x38>
 8006098:	2d00      	cmp	r5, #0
 800609a:	f43f ac2f 	beq.w	80058fc <HAL_I2C_EV_IRQHandler+0x38>
 800609e:	0595      	lsls	r5, r2, #22
 80060a0:	f57f ac2c 	bpl.w	80058fc <HAL_I2C_EV_IRQHandler+0x38>
 80060a4:	8d62      	ldrh	r2, [r4, #42]	; 0x2a
 80060a6:	b292      	uxth	r2, r2
 80060a8:	2a00      	cmp	r2, #0
 80060aa:	f43f ac27 	beq.w	80058fc <HAL_I2C_EV_IRQHandler+0x38>
 80060ae:	e5b8      	b.n	8005c22 <HAL_I2C_EV_IRQHandler+0x35e>
 80060b0:	0640      	lsls	r0, r0, #25
 80060b2:	d527      	bpl.n	8006104 <HAL_I2C_EV_IRQHandler+0x840>
 80060b4:	0551      	lsls	r1, r2, #21
 80060b6:	d525      	bpl.n	8006104 <HAL_I2C_EV_IRQHandler+0x840>
 80060b8:	bb3d      	cbnz	r5, 800610a <HAL_I2C_EV_IRQHandler+0x846>
 80060ba:	f894 203d 	ldrb.w	r2, [r4, #61]	; 0x3d
 80060be:	8d61      	ldrh	r1, [r4, #42]	; 0x2a
 80060c0:	b289      	uxth	r1, r1
 80060c2:	b2d2      	uxtb	r2, r2
 80060c4:	2900      	cmp	r1, #0
 80060c6:	f43f ac19 	beq.w	80058fc <HAL_I2C_EV_IRQHandler+0x38>
 80060ca:	6919      	ldr	r1, [r3, #16]
 80060cc:	6a63      	ldr	r3, [r4, #36]	; 0x24
 80060ce:	7019      	strb	r1, [r3, #0]
 80060d0:	6a63      	ldr	r3, [r4, #36]	; 0x24
 80060d2:	3301      	adds	r3, #1
 80060d4:	6263      	str	r3, [r4, #36]	; 0x24
 80060d6:	8d63      	ldrh	r3, [r4, #42]	; 0x2a
 80060d8:	3b01      	subs	r3, #1
 80060da:	b29b      	uxth	r3, r3
 80060dc:	8563      	strh	r3, [r4, #42]	; 0x2a
 80060de:	8d63      	ldrh	r3, [r4, #42]	; 0x2a
 80060e0:	b29b      	uxth	r3, r3
 80060e2:	2b00      	cmp	r3, #0
 80060e4:	f47f ac0a 	bne.w	80058fc <HAL_I2C_EV_IRQHandler+0x38>
 80060e8:	2a2a      	cmp	r2, #42	; 0x2a
 80060ea:	f47f ac07 	bne.w	80058fc <HAL_I2C_EV_IRQHandler+0x38>
 80060ee:	6822      	ldr	r2, [r4, #0]
 80060f0:	6853      	ldr	r3, [r2, #4]
 80060f2:	f423 6380 	bic.w	r3, r3, #1024	; 0x400
 80060f6:	6053      	str	r3, [r2, #4]
 80060f8:	2322      	movs	r3, #34	; 0x22
 80060fa:	6323      	str	r3, [r4, #48]	; 0x30
 80060fc:	2328      	movs	r3, #40	; 0x28
 80060fe:	f884 303d 	strb.w	r3, [r4, #61]	; 0x3d
 8006102:	e795      	b.n	8006030 <HAL_I2C_EV_IRQHandler+0x76c>
 8006104:	2d00      	cmp	r5, #0
 8006106:	f43f abf9 	beq.w	80058fc <HAL_I2C_EV_IRQHandler+0x38>
 800610a:	0592      	lsls	r2, r2, #22
 800610c:	f57f abf6 	bpl.w	80058fc <HAL_I2C_EV_IRQHandler+0x38>
 8006110:	8d62      	ldrh	r2, [r4, #42]	; 0x2a
 8006112:	b292      	uxth	r2, r2
 8006114:	2a00      	cmp	r2, #0
 8006116:	f43f abf1 	beq.w	80058fc <HAL_I2C_EV_IRQHandler+0x38>
 800611a:	691a      	ldr	r2, [r3, #16]
 800611c:	6a63      	ldr	r3, [r4, #36]	; 0x24
 800611e:	701a      	strb	r2, [r3, #0]
 8006120:	e649      	b.n	8005db6 <HAL_I2C_EV_IRQHandler+0x4f2>
 8006122:	bf00      	nop
 8006124:	080056b5 	.word	0x080056b5
 8006128:	ffff0000 	.word	0xffff0000

0800612c <HAL_PWR_EnableBkUpAccess>:
 800612c:	4b04      	ldr	r3, [pc, #16]	; (8006140 <HAL_PWR_EnableBkUpAccess+0x14>)
 800612e:	2201      	movs	r2, #1
 8006130:	621a      	str	r2, [r3, #32]
 8006132:	4b04      	ldr	r3, [pc, #16]	; (8006144 <HAL_PWR_EnableBkUpAccess+0x18>)
 8006134:	b082      	sub	sp, #8
 8006136:	681b      	ldr	r3, [r3, #0]
 8006138:	9301      	str	r3, [sp, #4]
 800613a:	9b01      	ldr	r3, [sp, #4]
 800613c:	b002      	add	sp, #8
 800613e:	4770      	bx	lr
 8006140:	420e0000 	.word	0x420e0000
 8006144:	40007000 	.word	0x40007000

08006148 <HAL_PWR_DisableBkUpAccess>:
 8006148:	4b04      	ldr	r3, [pc, #16]	; (800615c <HAL_PWR_DisableBkUpAccess+0x14>)
 800614a:	2200      	movs	r2, #0
 800614c:	621a      	str	r2, [r3, #32]
 800614e:	4b04      	ldr	r3, [pc, #16]	; (8006160 <HAL_PWR_DisableBkUpAccess+0x18>)
 8006150:	b082      	sub	sp, #8
 8006152:	681b      	ldr	r3, [r3, #0]
 8006154:	9301      	str	r3, [sp, #4]
 8006156:	9b01      	ldr	r3, [sp, #4]
 8006158:	b002      	add	sp, #8
 800615a:	4770      	bx	lr
 800615c:	420e0000 	.word	0x420e0000
 8006160:	40007000 	.word	0x40007000

08006164 <HAL_RCC_OscConfig>:
 8006164:	e92d 41f3 	stmdb	sp!, {r0, r1, r4, r5, r6, r7, r8, lr}
 8006168:	4604      	mov	r4, r0
 800616a:	b340      	cbz	r0, 80061be <HAL_RCC_OscConfig+0x5a>
 800616c:	6803      	ldr	r3, [r0, #0]
 800616e:	07dd      	lsls	r5, r3, #31
 8006170:	d410      	bmi.n	8006194 <HAL_RCC_OscConfig+0x30>
 8006172:	6823      	ldr	r3, [r4, #0]
 8006174:	0798      	lsls	r0, r3, #30
 8006176:	d45e      	bmi.n	8006236 <HAL_RCC_OscConfig+0xd2>
 8006178:	6823      	ldr	r3, [r4, #0]
 800617a:	071a      	lsls	r2, r3, #28
 800617c:	f100 80a0 	bmi.w	80062c0 <HAL_RCC_OscConfig+0x15c>
 8006180:	6823      	ldr	r3, [r4, #0]
 8006182:	075b      	lsls	r3, r3, #29
 8006184:	f100 80c0 	bmi.w	8006308 <HAL_RCC_OscConfig+0x1a4>
 8006188:	69a0      	ldr	r0, [r4, #24]
 800618a:	2800      	cmp	r0, #0
 800618c:	f040 8128 	bne.w	80063e0 <HAL_RCC_OscConfig+0x27c>
 8006190:	2000      	movs	r0, #0
 8006192:	e02b      	b.n	80061ec <HAL_RCC_OscConfig+0x88>
 8006194:	4b8f      	ldr	r3, [pc, #572]	; (80063d4 <HAL_RCC_OscConfig+0x270>)
 8006196:	689a      	ldr	r2, [r3, #8]
 8006198:	f002 020c 	and.w	r2, r2, #12
 800619c:	2a04      	cmp	r2, #4
 800619e:	d007      	beq.n	80061b0 <HAL_RCC_OscConfig+0x4c>
 80061a0:	689a      	ldr	r2, [r3, #8]
 80061a2:	f002 020c 	and.w	r2, r2, #12
 80061a6:	2a08      	cmp	r2, #8
 80061a8:	d10b      	bne.n	80061c2 <HAL_RCC_OscConfig+0x5e>
 80061aa:	685a      	ldr	r2, [r3, #4]
 80061ac:	0251      	lsls	r1, r2, #9
 80061ae:	d508      	bpl.n	80061c2 <HAL_RCC_OscConfig+0x5e>
 80061b0:	4b88      	ldr	r3, [pc, #544]	; (80063d4 <HAL_RCC_OscConfig+0x270>)
 80061b2:	681b      	ldr	r3, [r3, #0]
 80061b4:	039a      	lsls	r2, r3, #14
 80061b6:	d5dc      	bpl.n	8006172 <HAL_RCC_OscConfig+0xe>
 80061b8:	6863      	ldr	r3, [r4, #4]
 80061ba:	2b00      	cmp	r3, #0
 80061bc:	d1d9      	bne.n	8006172 <HAL_RCC_OscConfig+0xe>
 80061be:	2001      	movs	r0, #1
 80061c0:	e014      	b.n	80061ec <HAL_RCC_OscConfig+0x88>
 80061c2:	6862      	ldr	r2, [r4, #4]
 80061c4:	f5b2 3f80 	cmp.w	r2, #65536	; 0x10000
 80061c8:	d113      	bne.n	80061f2 <HAL_RCC_OscConfig+0x8e>
 80061ca:	681a      	ldr	r2, [r3, #0]
 80061cc:	f442 3280 	orr.w	r2, r2, #65536	; 0x10000
 80061d0:	601a      	str	r2, [r3, #0]
 80061d2:	f7fe fc5f 	bl	8004a94 <HAL_GetTick>
 80061d6:	4e7f      	ldr	r6, [pc, #508]	; (80063d4 <HAL_RCC_OscConfig+0x270>)
 80061d8:	4605      	mov	r5, r0
 80061da:	6833      	ldr	r3, [r6, #0]
 80061dc:	039b      	lsls	r3, r3, #14
 80061de:	d4c8      	bmi.n	8006172 <HAL_RCC_OscConfig+0xe>
 80061e0:	f7fe fc58 	bl	8004a94 <HAL_GetTick>
 80061e4:	1b40      	subs	r0, r0, r5
 80061e6:	2864      	cmp	r0, #100	; 0x64
 80061e8:	d9f7      	bls.n	80061da <HAL_RCC_OscConfig+0x76>
 80061ea:	2003      	movs	r0, #3
 80061ec:	b002      	add	sp, #8
 80061ee:	e8bd 81f0 	ldmia.w	sp!, {r4, r5, r6, r7, r8, pc}
 80061f2:	4d78      	ldr	r5, [pc, #480]	; (80063d4 <HAL_RCC_OscConfig+0x270>)
 80061f4:	f5b2 2fa0 	cmp.w	r2, #327680	; 0x50000
 80061f8:	682b      	ldr	r3, [r5, #0]
 80061fa:	d107      	bne.n	800620c <HAL_RCC_OscConfig+0xa8>
 80061fc:	f443 2380 	orr.w	r3, r3, #262144	; 0x40000
 8006200:	602b      	str	r3, [r5, #0]
 8006202:	682b      	ldr	r3, [r5, #0]
 8006204:	f443 3380 	orr.w	r3, r3, #65536	; 0x10000
 8006208:	602b      	str	r3, [r5, #0]
 800620a:	e7e2      	b.n	80061d2 <HAL_RCC_OscConfig+0x6e>
 800620c:	f423 3380 	bic.w	r3, r3, #65536	; 0x10000
 8006210:	602b      	str	r3, [r5, #0]
 8006212:	682b      	ldr	r3, [r5, #0]
 8006214:	f423 2380 	bic.w	r3, r3, #262144	; 0x40000
 8006218:	602b      	str	r3, [r5, #0]
 800621a:	2a00      	cmp	r2, #0
 800621c:	d1d9      	bne.n	80061d2 <HAL_RCC_OscConfig+0x6e>
 800621e:	f7fe fc39 	bl	8004a94 <HAL_GetTick>
 8006222:	4606      	mov	r6, r0
 8006224:	682b      	ldr	r3, [r5, #0]
 8006226:	039f      	lsls	r7, r3, #14
 8006228:	d5a3      	bpl.n	8006172 <HAL_RCC_OscConfig+0xe>
 800622a:	f7fe fc33 	bl	8004a94 <HAL_GetTick>
 800622e:	1b80      	subs	r0, r0, r6
 8006230:	2864      	cmp	r0, #100	; 0x64
 8006232:	d9f7      	bls.n	8006224 <HAL_RCC_OscConfig+0xc0>
 8006234:	e7d9      	b.n	80061ea <HAL_RCC_OscConfig+0x86>
 8006236:	4b67      	ldr	r3, [pc, #412]	; (80063d4 <HAL_RCC_OscConfig+0x270>)
 8006238:	689a      	ldr	r2, [r3, #8]
 800623a:	f012 0f0c 	tst.w	r2, #12
 800623e:	d007      	beq.n	8006250 <HAL_RCC_OscConfig+0xec>
 8006240:	689a      	ldr	r2, [r3, #8]
 8006242:	f002 020c 	and.w	r2, r2, #12
 8006246:	2a08      	cmp	r2, #8
 8006248:	d111      	bne.n	800626e <HAL_RCC_OscConfig+0x10a>
 800624a:	685b      	ldr	r3, [r3, #4]
 800624c:	025e      	lsls	r6, r3, #9
 800624e:	d40e      	bmi.n	800626e <HAL_RCC_OscConfig+0x10a>
 8006250:	4a60      	ldr	r2, [pc, #384]	; (80063d4 <HAL_RCC_OscConfig+0x270>)
 8006252:	6813      	ldr	r3, [r2, #0]
 8006254:	079d      	lsls	r5, r3, #30
 8006256:	d502      	bpl.n	800625e <HAL_RCC_OscConfig+0xfa>
 8006258:	68e3      	ldr	r3, [r4, #12]
 800625a:	2b01      	cmp	r3, #1
 800625c:	d1af      	bne.n	80061be <HAL_RCC_OscConfig+0x5a>
 800625e:	6813      	ldr	r3, [r2, #0]
 8006260:	6921      	ldr	r1, [r4, #16]
 8006262:	f023 03f8 	bic.w	r3, r3, #248	; 0xf8
 8006266:	ea43 03c1 	orr.w	r3, r3, r1, lsl #3
 800626a:	6013      	str	r3, [r2, #0]
 800626c:	e784      	b.n	8006178 <HAL_RCC_OscConfig+0x14>
 800626e:	68e2      	ldr	r2, [r4, #12]
 8006270:	4b59      	ldr	r3, [pc, #356]	; (80063d8 <HAL_RCC_OscConfig+0x274>)
 8006272:	b1b2      	cbz	r2, 80062a2 <HAL_RCC_OscConfig+0x13e>
 8006274:	2201      	movs	r2, #1
 8006276:	601a      	str	r2, [r3, #0]
 8006278:	f7fe fc0c 	bl	8004a94 <HAL_GetTick>
 800627c:	4d55      	ldr	r5, [pc, #340]	; (80063d4 <HAL_RCC_OscConfig+0x270>)
 800627e:	4606      	mov	r6, r0
 8006280:	682b      	ldr	r3, [r5, #0]
 8006282:	0798      	lsls	r0, r3, #30
 8006284:	d507      	bpl.n	8006296 <HAL_RCC_OscConfig+0x132>
 8006286:	682b      	ldr	r3, [r5, #0]
 8006288:	6922      	ldr	r2, [r4, #16]
 800628a:	f023 03f8 	bic.w	r3, r3, #248	; 0xf8
 800628e:	ea43 03c2 	orr.w	r3, r3, r2, lsl #3
 8006292:	602b      	str	r3, [r5, #0]
 8006294:	e770      	b.n	8006178 <HAL_RCC_OscConfig+0x14>
 8006296:	f7fe fbfd 	bl	8004a94 <HAL_GetTick>
 800629a:	1b80      	subs	r0, r0, r6
 800629c:	2802      	cmp	r0, #2
 800629e:	d9ef      	bls.n	8006280 <HAL_RCC_OscConfig+0x11c>
 80062a0:	e7a3      	b.n	80061ea <HAL_RCC_OscConfig+0x86>
 80062a2:	601a      	str	r2, [r3, #0]
 80062a4:	f7fe fbf6 	bl	8004a94 <HAL_GetTick>
 80062a8:	4e4a      	ldr	r6, [pc, #296]	; (80063d4 <HAL_RCC_OscConfig+0x270>)
 80062aa:	4605      	mov	r5, r0
 80062ac:	6833      	ldr	r3, [r6, #0]
 80062ae:	0799      	lsls	r1, r3, #30
 80062b0:	f57f af62 	bpl.w	8006178 <HAL_RCC_OscConfig+0x14>
 80062b4:	f7fe fbee 	bl	8004a94 <HAL_GetTick>
 80062b8:	1b40      	subs	r0, r0, r5
 80062ba:	2802      	cmp	r0, #2
 80062bc:	d9f6      	bls.n	80062ac <HAL_RCC_OscConfig+0x148>
 80062be:	e794      	b.n	80061ea <HAL_RCC_OscConfig+0x86>
 80062c0:	6962      	ldr	r2, [r4, #20]
 80062c2:	4b45      	ldr	r3, [pc, #276]	; (80063d8 <HAL_RCC_OscConfig+0x274>)
 80062c4:	b182      	cbz	r2, 80062e8 <HAL_RCC_OscConfig+0x184>
 80062c6:	2201      	movs	r2, #1
 80062c8:	f8c3 2e80 	str.w	r2, [r3, #3712]	; 0xe80
 80062cc:	f7fe fbe2 	bl	8004a94 <HAL_GetTick>
 80062d0:	4e40      	ldr	r6, [pc, #256]	; (80063d4 <HAL_RCC_OscConfig+0x270>)
 80062d2:	4605      	mov	r5, r0
 80062d4:	6f73      	ldr	r3, [r6, #116]	; 0x74
 80062d6:	079f      	lsls	r7, r3, #30
 80062d8:	f53f af52 	bmi.w	8006180 <HAL_RCC_OscConfig+0x1c>
 80062dc:	f7fe fbda 	bl	8004a94 <HAL_GetTick>
 80062e0:	1b40      	subs	r0, r0, r5
 80062e2:	2802      	cmp	r0, #2
 80062e4:	d9f6      	bls.n	80062d4 <HAL_RCC_OscConfig+0x170>
 80062e6:	e780      	b.n	80061ea <HAL_RCC_OscConfig+0x86>
 80062e8:	f8c3 2e80 	str.w	r2, [r3, #3712]	; 0xe80
 80062ec:	f7fe fbd2 	bl	8004a94 <HAL_GetTick>
 80062f0:	4e38      	ldr	r6, [pc, #224]	; (80063d4 <HAL_RCC_OscConfig+0x270>)
 80062f2:	4605      	mov	r5, r0
 80062f4:	6f73      	ldr	r3, [r6, #116]	; 0x74
 80062f6:	0798      	lsls	r0, r3, #30
 80062f8:	f57f af42 	bpl.w	8006180 <HAL_RCC_OscConfig+0x1c>
 80062fc:	f7fe fbca 	bl	8004a94 <HAL_GetTick>
 8006300:	1b40      	subs	r0, r0, r5
 8006302:	2802      	cmp	r0, #2
 8006304:	d9f6      	bls.n	80062f4 <HAL_RCC_OscConfig+0x190>
 8006306:	e770      	b.n	80061ea <HAL_RCC_OscConfig+0x86>
 8006308:	4b32      	ldr	r3, [pc, #200]	; (80063d4 <HAL_RCC_OscConfig+0x270>)
 800630a:	6c1a      	ldr	r2, [r3, #64]	; 0x40
 800630c:	f012 5280 	ands.w	r2, r2, #268435456	; 0x10000000
 8006310:	d128      	bne.n	8006364 <HAL_RCC_OscConfig+0x200>
 8006312:	9201      	str	r2, [sp, #4]
 8006314:	6c1a      	ldr	r2, [r3, #64]	; 0x40
 8006316:	f042 5280 	orr.w	r2, r2, #268435456	; 0x10000000
 800631a:	641a      	str	r2, [r3, #64]	; 0x40
 800631c:	6c1b      	ldr	r3, [r3, #64]	; 0x40
 800631e:	f003 5380 	and.w	r3, r3, #268435456	; 0x10000000
 8006322:	9301      	str	r3, [sp, #4]
 8006324:	9b01      	ldr	r3, [sp, #4]
 8006326:	2701      	movs	r7, #1
 8006328:	4d2c      	ldr	r5, [pc, #176]	; (80063dc <HAL_RCC_OscConfig+0x278>)
 800632a:	682b      	ldr	r3, [r5, #0]
 800632c:	05d9      	lsls	r1, r3, #23
 800632e:	d51b      	bpl.n	8006368 <HAL_RCC_OscConfig+0x204>
 8006330:	68a3      	ldr	r3, [r4, #8]
 8006332:	4d28      	ldr	r5, [pc, #160]	; (80063d4 <HAL_RCC_OscConfig+0x270>)
 8006334:	2b01      	cmp	r3, #1
 8006336:	d127      	bne.n	8006388 <HAL_RCC_OscConfig+0x224>
 8006338:	6f2b      	ldr	r3, [r5, #112]	; 0x70
 800633a:	f043 0301 	orr.w	r3, r3, #1
 800633e:	672b      	str	r3, [r5, #112]	; 0x70
 8006340:	f7fe fba8 	bl	8004a94 <HAL_GetTick>
 8006344:	4e23      	ldr	r6, [pc, #140]	; (80063d4 <HAL_RCC_OscConfig+0x270>)
 8006346:	4605      	mov	r5, r0
 8006348:	f241 3888 	movw	r8, #5000	; 0x1388
 800634c:	6f33      	ldr	r3, [r6, #112]	; 0x70
 800634e:	079b      	lsls	r3, r3, #30
 8006350:	d539      	bpl.n	80063c6 <HAL_RCC_OscConfig+0x262>
 8006352:	2f00      	cmp	r7, #0
 8006354:	f43f af18 	beq.w	8006188 <HAL_RCC_OscConfig+0x24>
 8006358:	4a1e      	ldr	r2, [pc, #120]	; (80063d4 <HAL_RCC_OscConfig+0x270>)
 800635a:	6c13      	ldr	r3, [r2, #64]	; 0x40
 800635c:	f023 5380 	bic.w	r3, r3, #268435456	; 0x10000000
 8006360:	6413      	str	r3, [r2, #64]	; 0x40
 8006362:	e711      	b.n	8006188 <HAL_RCC_OscConfig+0x24>
 8006364:	2700      	movs	r7, #0
 8006366:	e7df      	b.n	8006328 <HAL_RCC_OscConfig+0x1c4>
 8006368:	682b      	ldr	r3, [r5, #0]
 800636a:	f443 7380 	orr.w	r3, r3, #256	; 0x100
 800636e:	602b      	str	r3, [r5, #0]
 8006370:	f7fe fb90 	bl	8004a94 <HAL_GetTick>
 8006374:	4606      	mov	r6, r0
 8006376:	682b      	ldr	r3, [r5, #0]
 8006378:	05da      	lsls	r2, r3, #23
 800637a:	d4d9      	bmi.n	8006330 <HAL_RCC_OscConfig+0x1cc>
 800637c:	f7fe fb8a 	bl	8004a94 <HAL_GetTick>
 8006380:	1b80      	subs	r0, r0, r6
 8006382:	2802      	cmp	r0, #2
 8006384:	d9f7      	bls.n	8006376 <HAL_RCC_OscConfig+0x212>
 8006386:	e730      	b.n	80061ea <HAL_RCC_OscConfig+0x86>
 8006388:	2b05      	cmp	r3, #5
 800638a:	d104      	bne.n	8006396 <HAL_RCC_OscConfig+0x232>
 800638c:	6f2b      	ldr	r3, [r5, #112]	; 0x70
 800638e:	f043 0304 	orr.w	r3, r3, #4
 8006392:	672b      	str	r3, [r5, #112]	; 0x70
 8006394:	e7d0      	b.n	8006338 <HAL_RCC_OscConfig+0x1d4>
 8006396:	6f2a      	ldr	r2, [r5, #112]	; 0x70
 8006398:	f022 0201 	bic.w	r2, r2, #1
 800639c:	672a      	str	r2, [r5, #112]	; 0x70
 800639e:	6f2a      	ldr	r2, [r5, #112]	; 0x70
 80063a0:	f022 0204 	bic.w	r2, r2, #4
 80063a4:	672a      	str	r2, [r5, #112]	; 0x70
 80063a6:	2b00      	cmp	r3, #0
 80063a8:	d1ca      	bne.n	8006340 <HAL_RCC_OscConfig+0x1dc>
 80063aa:	f7fe fb73 	bl	8004a94 <HAL_GetTick>
 80063ae:	f241 3888 	movw	r8, #5000	; 0x1388
 80063b2:	4606      	mov	r6, r0
 80063b4:	6f2b      	ldr	r3, [r5, #112]	; 0x70
 80063b6:	0798      	lsls	r0, r3, #30
 80063b8:	d5cb      	bpl.n	8006352 <HAL_RCC_OscConfig+0x1ee>
 80063ba:	f7fe fb6b 	bl	8004a94 <HAL_GetTick>
 80063be:	1b80      	subs	r0, r0, r6
 80063c0:	4540      	cmp	r0, r8
 80063c2:	d9f7      	bls.n	80063b4 <HAL_RCC_OscConfig+0x250>
 80063c4:	e711      	b.n	80061ea <HAL_RCC_OscConfig+0x86>
 80063c6:	f7fe fb65 	bl	8004a94 <HAL_GetTick>
 80063ca:	1b40      	subs	r0, r0, r5
 80063cc:	4540      	cmp	r0, r8
 80063ce:	d9bd      	bls.n	800634c <HAL_RCC_OscConfig+0x1e8>
 80063d0:	e70b      	b.n	80061ea <HAL_RCC_OscConfig+0x86>
 80063d2:	bf00      	nop
 80063d4:	40023800 	.word	0x40023800
 80063d8:	42470000 	.word	0x42470000
 80063dc:	40007000 	.word	0x40007000
 80063e0:	4d36      	ldr	r5, [pc, #216]	; (80064bc <HAL_RCC_OscConfig+0x358>)
 80063e2:	68ab      	ldr	r3, [r5, #8]
 80063e4:	f003 030c 	and.w	r3, r3, #12
 80063e8:	2b08      	cmp	r3, #8
 80063ea:	d03d      	beq.n	8006468 <HAL_RCC_OscConfig+0x304>
 80063ec:	4b34      	ldr	r3, [pc, #208]	; (80064c0 <HAL_RCC_OscConfig+0x35c>)
 80063ee:	2200      	movs	r2, #0
 80063f0:	2802      	cmp	r0, #2
 80063f2:	661a      	str	r2, [r3, #96]	; 0x60
 80063f4:	d12b      	bne.n	800644e <HAL_RCC_OscConfig+0x2ea>
 80063f6:	f7fe fb4d 	bl	8004a94 <HAL_GetTick>
 80063fa:	4606      	mov	r6, r0
 80063fc:	682b      	ldr	r3, [r5, #0]
 80063fe:	0199      	lsls	r1, r3, #6
 8006400:	d41f      	bmi.n	8006442 <HAL_RCC_OscConfig+0x2de>
 8006402:	e9d4 3207 	ldrd	r3, r2, [r4, #28]
 8006406:	4313      	orrs	r3, r2
 8006408:	6a62      	ldr	r2, [r4, #36]	; 0x24
 800640a:	ea43 1382 	orr.w	r3, r3, r2, lsl #6
 800640e:	6ae2      	ldr	r2, [r4, #44]	; 0x2c
 8006410:	ea43 6302 	orr.w	r3, r3, r2, lsl #24
 8006414:	6aa2      	ldr	r2, [r4, #40]	; 0x28
 8006416:	0852      	lsrs	r2, r2, #1
 8006418:	3a01      	subs	r2, #1
 800641a:	ea43 4302 	orr.w	r3, r3, r2, lsl #16
 800641e:	606b      	str	r3, [r5, #4]
 8006420:	4b27      	ldr	r3, [pc, #156]	; (80064c0 <HAL_RCC_OscConfig+0x35c>)
 8006422:	4d26      	ldr	r5, [pc, #152]	; (80064bc <HAL_RCC_OscConfig+0x358>)
 8006424:	2201      	movs	r2, #1
 8006426:	661a      	str	r2, [r3, #96]	; 0x60
 8006428:	f7fe fb34 	bl	8004a94 <HAL_GetTick>
 800642c:	4604      	mov	r4, r0
 800642e:	682b      	ldr	r3, [r5, #0]
 8006430:	019a      	lsls	r2, r3, #6
 8006432:	f53f aead 	bmi.w	8006190 <HAL_RCC_OscConfig+0x2c>
 8006436:	f7fe fb2d 	bl	8004a94 <HAL_GetTick>
 800643a:	1b00      	subs	r0, r0, r4
 800643c:	2802      	cmp	r0, #2
 800643e:	d9f6      	bls.n	800642e <HAL_RCC_OscConfig+0x2ca>
 8006440:	e6d3      	b.n	80061ea <HAL_RCC_OscConfig+0x86>
 8006442:	f7fe fb27 	bl	8004a94 <HAL_GetTick>
 8006446:	1b80      	subs	r0, r0, r6
 8006448:	2802      	cmp	r0, #2
 800644a:	d9d7      	bls.n	80063fc <HAL_RCC_OscConfig+0x298>
 800644c:	e6cd      	b.n	80061ea <HAL_RCC_OscConfig+0x86>
 800644e:	f7fe fb21 	bl	8004a94 <HAL_GetTick>
 8006452:	4604      	mov	r4, r0
 8006454:	682b      	ldr	r3, [r5, #0]
 8006456:	019b      	lsls	r3, r3, #6
 8006458:	f57f ae9a 	bpl.w	8006190 <HAL_RCC_OscConfig+0x2c>
 800645c:	f7fe fb1a 	bl	8004a94 <HAL_GetTick>
 8006460:	1b00      	subs	r0, r0, r4
 8006462:	2802      	cmp	r0, #2
 8006464:	d9f6      	bls.n	8006454 <HAL_RCC_OscConfig+0x2f0>
 8006466:	e6c0      	b.n	80061ea <HAL_RCC_OscConfig+0x86>
 8006468:	2801      	cmp	r0, #1
 800646a:	f43f aebf 	beq.w	80061ec <HAL_RCC_OscConfig+0x88>
 800646e:	686b      	ldr	r3, [r5, #4]
 8006470:	69e2      	ldr	r2, [r4, #28]
 8006472:	f403 0180 	and.w	r1, r3, #4194304	; 0x400000
 8006476:	4291      	cmp	r1, r2
 8006478:	f47f aea1 	bne.w	80061be <HAL_RCC_OscConfig+0x5a>
 800647c:	6a21      	ldr	r1, [r4, #32]
 800647e:	f003 023f 	and.w	r2, r3, #63	; 0x3f
 8006482:	428a      	cmp	r2, r1
 8006484:	f47f ae9b 	bne.w	80061be <HAL_RCC_OscConfig+0x5a>
 8006488:	6a61      	ldr	r1, [r4, #36]	; 0x24
 800648a:	f647 72c0 	movw	r2, #32704	; 0x7fc0
 800648e:	401a      	ands	r2, r3
 8006490:	ebb2 1f81 	cmp.w	r2, r1, lsl #6
 8006494:	f47f ae93 	bne.w	80061be <HAL_RCC_OscConfig+0x5a>
 8006498:	6aa2      	ldr	r2, [r4, #40]	; 0x28
 800649a:	0852      	lsrs	r2, r2, #1
 800649c:	f403 3140 	and.w	r1, r3, #196608	; 0x30000
 80064a0:	3a01      	subs	r2, #1
 80064a2:	ebb1 4f02 	cmp.w	r1, r2, lsl #16
 80064a6:	f47f ae8a 	bne.w	80061be <HAL_RCC_OscConfig+0x5a>
 80064aa:	6ae2      	ldr	r2, [r4, #44]	; 0x2c
 80064ac:	f003 6370 	and.w	r3, r3, #251658240	; 0xf000000
 80064b0:	ebb3 6f02 	cmp.w	r3, r2, lsl #24
 80064b4:	f43f ae6c 	beq.w	8006190 <HAL_RCC_OscConfig+0x2c>
 80064b8:	e681      	b.n	80061be <HAL_RCC_OscConfig+0x5a>
 80064ba:	bf00      	nop
 80064bc:	40023800 	.word	0x40023800
 80064c0:	42470000 	.word	0x42470000

080064c4 <HAL_RCC_GetSysClockFreq>:
 80064c4:	4913      	ldr	r1, [pc, #76]	; (8006514 <HAL_RCC_GetSysClockFreq+0x50>)
 80064c6:	b508      	push	{r3, lr}
 80064c8:	688b      	ldr	r3, [r1, #8]
 80064ca:	f003 030c 	and.w	r3, r3, #12
 80064ce:	2b04      	cmp	r3, #4
 80064d0:	d01c      	beq.n	800650c <HAL_RCC_GetSysClockFreq+0x48>
 80064d2:	2b08      	cmp	r3, #8
 80064d4:	d11c      	bne.n	8006510 <HAL_RCC_GetSysClockFreq+0x4c>
 80064d6:	684a      	ldr	r2, [r1, #4]
 80064d8:	684b      	ldr	r3, [r1, #4]
 80064da:	6849      	ldr	r1, [r1, #4]
 80064dc:	f413 0380 	ands.w	r3, r3, #4194304	; 0x400000
 80064e0:	bf14      	ite	ne
 80064e2:	480d      	ldrne	r0, [pc, #52]	; (8006518 <HAL_RCC_GetSysClockFreq+0x54>)
 80064e4:	480d      	ldreq	r0, [pc, #52]	; (800651c <HAL_RCC_GetSysClockFreq+0x58>)
 80064e6:	f3c1 1188 	ubfx	r1, r1, #6, #9
 80064ea:	bf18      	it	ne
 80064ec:	2300      	movne	r3, #0
 80064ee:	f002 023f 	and.w	r2, r2, #63	; 0x3f
 80064f2:	fba1 0100 	umull	r0, r1, r1, r0
 80064f6:	f7fa fbc7 	bl	8000c88 <__aeabi_uldivmod>
 80064fa:	4b06      	ldr	r3, [pc, #24]	; (8006514 <HAL_RCC_GetSysClockFreq+0x50>)
 80064fc:	685b      	ldr	r3, [r3, #4]
 80064fe:	f3c3 4301 	ubfx	r3, r3, #16, #2
 8006502:	3301      	adds	r3, #1
 8006504:	005b      	lsls	r3, r3, #1
 8006506:	fbb0 f0f3 	udiv	r0, r0, r3
 800650a:	bd08      	pop	{r3, pc}
 800650c:	4802      	ldr	r0, [pc, #8]	; (8006518 <HAL_RCC_GetSysClockFreq+0x54>)
 800650e:	e7fc      	b.n	800650a <HAL_RCC_GetSysClockFreq+0x46>
 8006510:	4802      	ldr	r0, [pc, #8]	; (800651c <HAL_RCC_GetSysClockFreq+0x58>)
 8006512:	e7fa      	b.n	800650a <HAL_RCC_GetSysClockFreq+0x46>
 8006514:	40023800 	.word	0x40023800
 8006518:	017d7840 	.word	0x017d7840
 800651c:	00f42400 	.word	0x00f42400

08006520 <HAL_RCC_ClockConfig>:
 8006520:	e92d 41f0 	stmdb	sp!, {r4, r5, r6, r7, r8, lr}
 8006524:	460d      	mov	r5, r1
 8006526:	4604      	mov	r4, r0
 8006528:	b910      	cbnz	r0, 8006530 <HAL_RCC_ClockConfig+0x10>
 800652a:	2001      	movs	r0, #1
 800652c:	e8bd 81f0 	ldmia.w	sp!, {r4, r5, r6, r7, r8, pc}
 8006530:	4b44      	ldr	r3, [pc, #272]	; (8006644 <HAL_RCC_ClockConfig+0x124>)
 8006532:	681a      	ldr	r2, [r3, #0]
 8006534:	f002 0207 	and.w	r2, r2, #7
 8006538:	428a      	cmp	r2, r1
 800653a:	d328      	bcc.n	800658e <HAL_RCC_ClockConfig+0x6e>
 800653c:	6822      	ldr	r2, [r4, #0]
 800653e:	0797      	lsls	r7, r2, #30
 8006540:	d42d      	bmi.n	800659e <HAL_RCC_ClockConfig+0x7e>
 8006542:	07d0      	lsls	r0, r2, #31
 8006544:	d441      	bmi.n	80065ca <HAL_RCC_ClockConfig+0xaa>
 8006546:	4b3f      	ldr	r3, [pc, #252]	; (8006644 <HAL_RCC_ClockConfig+0x124>)
 8006548:	681a      	ldr	r2, [r3, #0]
 800654a:	f002 0207 	and.w	r2, r2, #7
 800654e:	42aa      	cmp	r2, r5
 8006550:	d866      	bhi.n	8006620 <HAL_RCC_ClockConfig+0x100>
 8006552:	6822      	ldr	r2, [r4, #0]
 8006554:	0751      	lsls	r1, r2, #29
 8006556:	d46c      	bmi.n	8006632 <HAL_RCC_ClockConfig+0x112>
 8006558:	0713      	lsls	r3, r2, #28
 800655a:	d507      	bpl.n	800656c <HAL_RCC_ClockConfig+0x4c>
 800655c:	4a3a      	ldr	r2, [pc, #232]	; (8006648 <HAL_RCC_ClockConfig+0x128>)
 800655e:	6921      	ldr	r1, [r4, #16]
 8006560:	6893      	ldr	r3, [r2, #8]
 8006562:	f423 4360 	bic.w	r3, r3, #57344	; 0xe000
 8006566:	ea43 03c1 	orr.w	r3, r3, r1, lsl #3
 800656a:	6093      	str	r3, [r2, #8]
 800656c:	f7ff ffaa 	bl	80064c4 <HAL_RCC_GetSysClockFreq>
 8006570:	4b35      	ldr	r3, [pc, #212]	; (8006648 <HAL_RCC_ClockConfig+0x128>)
 8006572:	4a36      	ldr	r2, [pc, #216]	; (800664c <HAL_RCC_ClockConfig+0x12c>)
 8006574:	689b      	ldr	r3, [r3, #8]
 8006576:	f3c3 1303 	ubfx	r3, r3, #4, #4
 800657a:	5cd3      	ldrb	r3, [r2, r3]
 800657c:	40d8      	lsrs	r0, r3
 800657e:	4b34      	ldr	r3, [pc, #208]	; (8006650 <HAL_RCC_ClockConfig+0x130>)
 8006580:	6018      	str	r0, [r3, #0]
 8006582:	4b34      	ldr	r3, [pc, #208]	; (8006654 <HAL_RCC_ClockConfig+0x134>)
 8006584:	6818      	ldr	r0, [r3, #0]
 8006586:	f7fe fa3b 	bl	8004a00 <HAL_InitTick>
 800658a:	2000      	movs	r0, #0
 800658c:	e7ce      	b.n	800652c <HAL_RCC_ClockConfig+0xc>
 800658e:	b2ca      	uxtb	r2, r1
 8006590:	701a      	strb	r2, [r3, #0]
 8006592:	681b      	ldr	r3, [r3, #0]
 8006594:	f003 0307 	and.w	r3, r3, #7
 8006598:	428b      	cmp	r3, r1
 800659a:	d1c6      	bne.n	800652a <HAL_RCC_ClockConfig+0xa>
 800659c:	e7ce      	b.n	800653c <HAL_RCC_ClockConfig+0x1c>
 800659e:	4b2a      	ldr	r3, [pc, #168]	; (8006648 <HAL_RCC_ClockConfig+0x128>)
 80065a0:	f012 0f04 	tst.w	r2, #4
 80065a4:	bf1e      	ittt	ne
 80065a6:	6899      	ldrne	r1, [r3, #8]
 80065a8:	f441 51e0 	orrne.w	r1, r1, #7168	; 0x1c00
 80065ac:	6099      	strne	r1, [r3, #8]
 80065ae:	0716      	lsls	r6, r2, #28
 80065b0:	bf42      	ittt	mi
 80065b2:	6899      	ldrmi	r1, [r3, #8]
 80065b4:	f441 4160 	orrmi.w	r1, r1, #57344	; 0xe000
 80065b8:	6099      	strmi	r1, [r3, #8]
 80065ba:	4923      	ldr	r1, [pc, #140]	; (8006648 <HAL_RCC_ClockConfig+0x128>)
 80065bc:	68a0      	ldr	r0, [r4, #8]
 80065be:	688b      	ldr	r3, [r1, #8]
 80065c0:	f023 03f0 	bic.w	r3, r3, #240	; 0xf0
 80065c4:	4303      	orrs	r3, r0
 80065c6:	608b      	str	r3, [r1, #8]
 80065c8:	e7bb      	b.n	8006542 <HAL_RCC_ClockConfig+0x22>
 80065ca:	6862      	ldr	r2, [r4, #4]
 80065cc:	4b1e      	ldr	r3, [pc, #120]	; (8006648 <HAL_RCC_ClockConfig+0x128>)
 80065ce:	2a01      	cmp	r2, #1
 80065d0:	d11c      	bne.n	800660c <HAL_RCC_ClockConfig+0xec>
 80065d2:	681b      	ldr	r3, [r3, #0]
 80065d4:	f413 3f00 	tst.w	r3, #131072	; 0x20000
 80065d8:	d0a7      	beq.n	800652a <HAL_RCC_ClockConfig+0xa>
 80065da:	4e1b      	ldr	r6, [pc, #108]	; (8006648 <HAL_RCC_ClockConfig+0x128>)
 80065dc:	68b3      	ldr	r3, [r6, #8]
 80065de:	f023 0303 	bic.w	r3, r3, #3
 80065e2:	4313      	orrs	r3, r2
 80065e4:	60b3      	str	r3, [r6, #8]
 80065e6:	f7fe fa55 	bl	8004a94 <HAL_GetTick>
 80065ea:	f241 3888 	movw	r8, #5000	; 0x1388
 80065ee:	4607      	mov	r7, r0
 80065f0:	68b3      	ldr	r3, [r6, #8]
 80065f2:	6862      	ldr	r2, [r4, #4]
 80065f4:	f003 030c 	and.w	r3, r3, #12
 80065f8:	ebb3 0f82 	cmp.w	r3, r2, lsl #2
 80065fc:	d0a3      	beq.n	8006546 <HAL_RCC_ClockConfig+0x26>
 80065fe:	f7fe fa49 	bl	8004a94 <HAL_GetTick>
 8006602:	1bc0      	subs	r0, r0, r7
 8006604:	4540      	cmp	r0, r8
 8006606:	d9f3      	bls.n	80065f0 <HAL_RCC_ClockConfig+0xd0>
 8006608:	2003      	movs	r0, #3
 800660a:	e78f      	b.n	800652c <HAL_RCC_ClockConfig+0xc>
 800660c:	1e91      	subs	r1, r2, #2
 800660e:	2901      	cmp	r1, #1
 8006610:	681b      	ldr	r3, [r3, #0]
 8006612:	d802      	bhi.n	800661a <HAL_RCC_ClockConfig+0xfa>
 8006614:	f013 7f00 	tst.w	r3, #33554432	; 0x2000000
 8006618:	e7de      	b.n	80065d8 <HAL_RCC_ClockConfig+0xb8>
 800661a:	f013 0f02 	tst.w	r3, #2
 800661e:	e7db      	b.n	80065d8 <HAL_RCC_ClockConfig+0xb8>
 8006620:	b2ea      	uxtb	r2, r5
 8006622:	701a      	strb	r2, [r3, #0]
 8006624:	681b      	ldr	r3, [r3, #0]
 8006626:	f003 0307 	and.w	r3, r3, #7
 800662a:	42ab      	cmp	r3, r5
 800662c:	f47f af7d 	bne.w	800652a <HAL_RCC_ClockConfig+0xa>
 8006630:	e78f      	b.n	8006552 <HAL_RCC_ClockConfig+0x32>
 8006632:	4905      	ldr	r1, [pc, #20]	; (8006648 <HAL_RCC_ClockConfig+0x128>)
 8006634:	68e0      	ldr	r0, [r4, #12]
 8006636:	688b      	ldr	r3, [r1, #8]
 8006638:	f423 53e0 	bic.w	r3, r3, #7168	; 0x1c00
 800663c:	4303      	orrs	r3, r0
 800663e:	608b      	str	r3, [r1, #8]
 8006640:	e78a      	b.n	8006558 <HAL_RCC_ClockConfig+0x38>
 8006642:	bf00      	nop
 8006644:	40023c00 	.word	0x40023c00
 8006648:	40023800 	.word	0x40023800
 800664c:	0800e280 	.word	0x0800e280
 8006650:	20000004 	.word	0x20000004
 8006654:	2000000c 	.word	0x2000000c

08006658 <HAL_RCC_GetPCLK1Freq>:
 8006658:	4b04      	ldr	r3, [pc, #16]	; (800666c <HAL_RCC_GetPCLK1Freq+0x14>)
 800665a:	4a05      	ldr	r2, [pc, #20]	; (8006670 <HAL_RCC_GetPCLK1Freq+0x18>)
 800665c:	689b      	ldr	r3, [r3, #8]
 800665e:	f3c3 2382 	ubfx	r3, r3, #10, #3
 8006662:	5cd3      	ldrb	r3, [r2, r3]
 8006664:	4a03      	ldr	r2, [pc, #12]	; (8006674 <HAL_RCC_GetPCLK1Freq+0x1c>)
 8006666:	6810      	ldr	r0, [r2, #0]
 8006668:	40d8      	lsrs	r0, r3
 800666a:	4770      	bx	lr
 800666c:	40023800 	.word	0x40023800
 8006670:	0800e290 	.word	0x0800e290
 8006674:	20000004 	.word	0x20000004

08006678 <HAL_RCC_GetPCLK2Freq>:
 8006678:	4b04      	ldr	r3, [pc, #16]	; (800668c <HAL_RCC_GetPCLK2Freq+0x14>)
 800667a:	4a05      	ldr	r2, [pc, #20]	; (8006690 <HAL_RCC_GetPCLK2Freq+0x18>)
 800667c:	689b      	ldr	r3, [r3, #8]
 800667e:	f3c3 3342 	ubfx	r3, r3, #13, #3
 8006682:	5cd3      	ldrb	r3, [r2, r3]
 8006684:	4a03      	ldr	r2, [pc, #12]	; (8006694 <HAL_RCC_GetPCLK2Freq+0x1c>)
 8006686:	6810      	ldr	r0, [r2, #0]
 8006688:	40d8      	lsrs	r0, r3
 800668a:	4770      	bx	lr
 800668c:	40023800 	.word	0x40023800
 8006690:	0800e290 	.word	0x0800e290
 8006694:	20000004 	.word	0x20000004

08006698 <TIM_OC1_SetConfig>:
 8006698:	6a03      	ldr	r3, [r0, #32]
 800669a:	f023 0301 	bic.w	r3, r3, #1
 800669e:	6203      	str	r3, [r0, #32]
 80066a0:	6a03      	ldr	r3, [r0, #32]
 80066a2:	b570      	push	{r4, r5, r6, lr}
 80066a4:	6844      	ldr	r4, [r0, #4]
 80066a6:	6982      	ldr	r2, [r0, #24]
 80066a8:	680d      	ldr	r5, [r1, #0]
 80066aa:	f022 0273 	bic.w	r2, r2, #115	; 0x73
 80066ae:	432a      	orrs	r2, r5
 80066b0:	688d      	ldr	r5, [r1, #8]
 80066b2:	f023 0302 	bic.w	r3, r3, #2
 80066b6:	432b      	orrs	r3, r5
 80066b8:	4d0e      	ldr	r5, [pc, #56]	; (80066f4 <TIM_OC1_SetConfig+0x5c>)
 80066ba:	42a8      	cmp	r0, r5
 80066bc:	d002      	beq.n	80066c4 <TIM_OC1_SetConfig+0x2c>
 80066be:	4e0e      	ldr	r6, [pc, #56]	; (80066f8 <TIM_OC1_SetConfig+0x60>)
 80066c0:	42b0      	cmp	r0, r6
 80066c2:	d110      	bne.n	80066e6 <TIM_OC1_SetConfig+0x4e>
 80066c4:	68ce      	ldr	r6, [r1, #12]
 80066c6:	f023 0308 	bic.w	r3, r3, #8
 80066ca:	4333      	orrs	r3, r6
 80066cc:	42a8      	cmp	r0, r5
 80066ce:	f023 0304 	bic.w	r3, r3, #4
 80066d2:	d002      	beq.n	80066da <TIM_OC1_SetConfig+0x42>
 80066d4:	4d08      	ldr	r5, [pc, #32]	; (80066f8 <TIM_OC1_SetConfig+0x60>)
 80066d6:	42a8      	cmp	r0, r5
 80066d8:	d105      	bne.n	80066e6 <TIM_OC1_SetConfig+0x4e>
 80066da:	e9d1 5605 	ldrd	r5, r6, [r1, #20]
 80066de:	f424 7440 	bic.w	r4, r4, #768	; 0x300
 80066e2:	4335      	orrs	r5, r6
 80066e4:	432c      	orrs	r4, r5
 80066e6:	6044      	str	r4, [r0, #4]
 80066e8:	6182      	str	r2, [r0, #24]
 80066ea:	684a      	ldr	r2, [r1, #4]
 80066ec:	6342      	str	r2, [r0, #52]	; 0x34
 80066ee:	6203      	str	r3, [r0, #32]
 80066f0:	bd70      	pop	{r4, r5, r6, pc}
 80066f2:	bf00      	nop
 80066f4:	40010000 	.word	0x40010000
 80066f8:	40010400 	.word	0x40010400

080066fc <TIM_OC3_SetConfig>:
 80066fc:	6a03      	ldr	r3, [r0, #32]
 80066fe:	f423 7380 	bic.w	r3, r3, #256	; 0x100
 8006702:	6203      	str	r3, [r0, #32]
 8006704:	6a03      	ldr	r3, [r0, #32]
 8006706:	b570      	push	{r4, r5, r6, lr}
 8006708:	6844      	ldr	r4, [r0, #4]
 800670a:	69c2      	ldr	r2, [r0, #28]
 800670c:	680d      	ldr	r5, [r1, #0]
 800670e:	f022 0273 	bic.w	r2, r2, #115	; 0x73
 8006712:	432a      	orrs	r2, r5
 8006714:	688d      	ldr	r5, [r1, #8]
 8006716:	f423 7300 	bic.w	r3, r3, #512	; 0x200
 800671a:	ea43 2305 	orr.w	r3, r3, r5, lsl #8
 800671e:	4d11      	ldr	r5, [pc, #68]	; (8006764 <TIM_OC3_SetConfig+0x68>)
 8006720:	42a8      	cmp	r0, r5
 8006722:	d003      	beq.n	800672c <TIM_OC3_SetConfig+0x30>
 8006724:	f505 6580 	add.w	r5, r5, #1024	; 0x400
 8006728:	42a8      	cmp	r0, r5
 800672a:	d114      	bne.n	8006756 <TIM_OC3_SetConfig+0x5a>
 800672c:	68cd      	ldr	r5, [r1, #12]
 800672e:	f423 6300 	bic.w	r3, r3, #2048	; 0x800
 8006732:	ea43 2305 	orr.w	r3, r3, r5, lsl #8
 8006736:	4d0b      	ldr	r5, [pc, #44]	; (8006764 <TIM_OC3_SetConfig+0x68>)
 8006738:	42a8      	cmp	r0, r5
 800673a:	f423 6380 	bic.w	r3, r3, #1024	; 0x400
 800673e:	d003      	beq.n	8006748 <TIM_OC3_SetConfig+0x4c>
 8006740:	f505 6580 	add.w	r5, r5, #1024	; 0x400
 8006744:	42a8      	cmp	r0, r5
 8006746:	d106      	bne.n	8006756 <TIM_OC3_SetConfig+0x5a>
 8006748:	e9d1 5605 	ldrd	r5, r6, [r1, #20]
 800674c:	f424 5440 	bic.w	r4, r4, #12288	; 0x3000
 8006750:	4335      	orrs	r5, r6
 8006752:	ea44 1405 	orr.w	r4, r4, r5, lsl #4
 8006756:	6044      	str	r4, [r0, #4]
 8006758:	61c2      	str	r2, [r0, #28]
 800675a:	684a      	ldr	r2, [r1, #4]
 800675c:	63c2      	str	r2, [r0, #60]	; 0x3c
 800675e:	6203      	str	r3, [r0, #32]
 8006760:	bd70      	pop	{r4, r5, r6, pc}
 8006762:	bf00      	nop
 8006764:	40010000 	.word	0x40010000

08006768 <TIM_OC4_SetConfig>:
 8006768:	6a03      	ldr	r3, [r0, #32]
 800676a:	f423 5380 	bic.w	r3, r3, #4096	; 0x1000
 800676e:	6203      	str	r3, [r0, #32]
 8006770:	6a03      	ldr	r3, [r0, #32]
 8006772:	b530      	push	{r4, r5, lr}
 8006774:	6844      	ldr	r4, [r0, #4]
 8006776:	69c2      	ldr	r2, [r0, #28]
 8006778:	680d      	ldr	r5, [r1, #0]
 800677a:	f422 42e6 	bic.w	r2, r2, #29440	; 0x7300
 800677e:	ea42 2205 	orr.w	r2, r2, r5, lsl #8
 8006782:	688d      	ldr	r5, [r1, #8]
 8006784:	f423 5300 	bic.w	r3, r3, #8192	; 0x2000
 8006788:	ea43 3305 	orr.w	r3, r3, r5, lsl #12
 800678c:	4d08      	ldr	r5, [pc, #32]	; (80067b0 <TIM_OC4_SetConfig+0x48>)
 800678e:	42a8      	cmp	r0, r5
 8006790:	d003      	beq.n	800679a <TIM_OC4_SetConfig+0x32>
 8006792:	f505 6580 	add.w	r5, r5, #1024	; 0x400
 8006796:	42a8      	cmp	r0, r5
 8006798:	d104      	bne.n	80067a4 <TIM_OC4_SetConfig+0x3c>
 800679a:	694d      	ldr	r5, [r1, #20]
 800679c:	f424 4480 	bic.w	r4, r4, #16384	; 0x4000
 80067a0:	ea44 1485 	orr.w	r4, r4, r5, lsl #6
 80067a4:	6044      	str	r4, [r0, #4]
 80067a6:	61c2      	str	r2, [r0, #28]
 80067a8:	684a      	ldr	r2, [r1, #4]
 80067aa:	6402      	str	r2, [r0, #64]	; 0x40
 80067ac:	6203      	str	r3, [r0, #32]
 80067ae:	bd30      	pop	{r4, r5, pc}
 80067b0:	40010000 	.word	0x40010000

080067b4 <HAL_TIM_PWM_MspInit>:
 80067b4:	4770      	bx	lr

080067b6 <HAL_TIM_Encoder_Start>:
 80067b6:	b530      	push	{r4, r5, lr}
 80067b8:	f890 203e 	ldrb.w	r2, [r0, #62]	; 0x3e
 80067bc:	f890 303f 	ldrb.w	r3, [r0, #63]	; 0x3f
 80067c0:	f890 5042 	ldrb.w	r5, [r0, #66]	; 0x42
 80067c4:	f890 4043 	ldrb.w	r4, [r0, #67]	; 0x43
 80067c8:	b2d2      	uxtb	r2, r2
 80067ca:	b2db      	uxtb	r3, r3
 80067cc:	b2ed      	uxtb	r5, r5
 80067ce:	b2e4      	uxtb	r4, r4
 80067d0:	b9c9      	cbnz	r1, 8006806 <HAL_TIM_Encoder_Start+0x50>
 80067d2:	2a01      	cmp	r2, #1
 80067d4:	d146      	bne.n	8006864 <HAL_TIM_Encoder_Start+0xae>
 80067d6:	2d01      	cmp	r5, #1
 80067d8:	d146      	bne.n	8006868 <HAL_TIM_Encoder_Start+0xb2>
 80067da:	2302      	movs	r3, #2
 80067dc:	f880 303e 	strb.w	r3, [r0, #62]	; 0x3e
 80067e0:	f880 3042 	strb.w	r3, [r0, #66]	; 0x42
 80067e4:	6803      	ldr	r3, [r0, #0]
 80067e6:	6a1a      	ldr	r2, [r3, #32]
 80067e8:	f022 0201 	bic.w	r2, r2, #1
 80067ec:	621a      	str	r2, [r3, #32]
 80067ee:	6a1a      	ldr	r2, [r3, #32]
 80067f0:	f042 0201 	orr.w	r2, r2, #1
 80067f4:	621a      	str	r2, [r3, #32]
 80067f6:	6802      	ldr	r2, [r0, #0]
 80067f8:	6813      	ldr	r3, [r2, #0]
 80067fa:	f043 0301 	orr.w	r3, r3, #1
 80067fe:	6013      	str	r3, [r2, #0]
 8006800:	2300      	movs	r3, #0
 8006802:	4618      	mov	r0, r3
 8006804:	bd30      	pop	{r4, r5, pc}
 8006806:	2904      	cmp	r1, #4
 8006808:	d111      	bne.n	800682e <HAL_TIM_Encoder_Start+0x78>
 800680a:	2b01      	cmp	r3, #1
 800680c:	d12a      	bne.n	8006864 <HAL_TIM_Encoder_Start+0xae>
 800680e:	2c01      	cmp	r4, #1
 8006810:	d1f7      	bne.n	8006802 <HAL_TIM_Encoder_Start+0x4c>
 8006812:	2302      	movs	r3, #2
 8006814:	f880 303f 	strb.w	r3, [r0, #63]	; 0x3f
 8006818:	f880 3043 	strb.w	r3, [r0, #67]	; 0x43
 800681c:	6803      	ldr	r3, [r0, #0]
 800681e:	6a1a      	ldr	r2, [r3, #32]
 8006820:	f022 0210 	bic.w	r2, r2, #16
 8006824:	621a      	str	r2, [r3, #32]
 8006826:	6a1a      	ldr	r2, [r3, #32]
 8006828:	f042 0210 	orr.w	r2, r2, #16
 800682c:	e7e2      	b.n	80067f4 <HAL_TIM_Encoder_Start+0x3e>
 800682e:	2a01      	cmp	r2, #1
 8006830:	d118      	bne.n	8006864 <HAL_TIM_Encoder_Start+0xae>
 8006832:	2b01      	cmp	r3, #1
 8006834:	d118      	bne.n	8006868 <HAL_TIM_Encoder_Start+0xb2>
 8006836:	2d01      	cmp	r5, #1
 8006838:	d1e3      	bne.n	8006802 <HAL_TIM_Encoder_Start+0x4c>
 800683a:	2c01      	cmp	r4, #1
 800683c:	d1e1      	bne.n	8006802 <HAL_TIM_Encoder_Start+0x4c>
 800683e:	2302      	movs	r3, #2
 8006840:	f880 303e 	strb.w	r3, [r0, #62]	; 0x3e
 8006844:	f880 303f 	strb.w	r3, [r0, #63]	; 0x3f
 8006848:	f880 3042 	strb.w	r3, [r0, #66]	; 0x42
 800684c:	f880 3043 	strb.w	r3, [r0, #67]	; 0x43
 8006850:	6803      	ldr	r3, [r0, #0]
 8006852:	6a1a      	ldr	r2, [r3, #32]
 8006854:	f022 0201 	bic.w	r2, r2, #1
 8006858:	621a      	str	r2, [r3, #32]
 800685a:	6a1a      	ldr	r2, [r3, #32]
 800685c:	f042 0201 	orr.w	r2, r2, #1
 8006860:	621a      	str	r2, [r3, #32]
 8006862:	e7dc      	b.n	800681e <HAL_TIM_Encoder_Start+0x68>
 8006864:	2301      	movs	r3, #1
 8006866:	e7cc      	b.n	8006802 <HAL_TIM_Encoder_Start+0x4c>
 8006868:	4613      	mov	r3, r2
 800686a:	e7ca      	b.n	8006802 <HAL_TIM_Encoder_Start+0x4c>

0800686c <HAL_TIM_ReadCapturedValue>:
 800686c:	2908      	cmp	r1, #8
 800686e:	d010      	beq.n	8006892 <HAL_TIM_ReadCapturedValue+0x26>
 8006870:	d804      	bhi.n	800687c <HAL_TIM_ReadCapturedValue+0x10>
 8006872:	b141      	cbz	r1, 8006886 <HAL_TIM_ReadCapturedValue+0x1a>
 8006874:	2904      	cmp	r1, #4
 8006876:	d009      	beq.n	800688c <HAL_TIM_ReadCapturedValue+0x20>
 8006878:	2000      	movs	r0, #0
 800687a:	4770      	bx	lr
 800687c:	290c      	cmp	r1, #12
 800687e:	d1fb      	bne.n	8006878 <HAL_TIM_ReadCapturedValue+0xc>
 8006880:	6803      	ldr	r3, [r0, #0]
 8006882:	6c18      	ldr	r0, [r3, #64]	; 0x40
 8006884:	4770      	bx	lr
 8006886:	6803      	ldr	r3, [r0, #0]
 8006888:	6b58      	ldr	r0, [r3, #52]	; 0x34
 800688a:	4770      	bx	lr
 800688c:	6803      	ldr	r3, [r0, #0]
 800688e:	6b98      	ldr	r0, [r3, #56]	; 0x38
 8006890:	4770      	bx	lr
 8006892:	6803      	ldr	r3, [r0, #0]
 8006894:	6bd8      	ldr	r0, [r3, #60]	; 0x3c
 8006896:	4770      	bx	lr

08006898 <HAL_TIM_PeriodElapsedCallback>:
 8006898:	4770      	bx	lr

0800689a <HAL_TIM_OC_DelayElapsedCallback>:
 800689a:	4770      	bx	lr

0800689c <HAL_TIM_PWM_PulseFinishedCallback>:
 800689c:	4770      	bx	lr

0800689e <HAL_TIM_TriggerCallback>:
 800689e:	4770      	bx	lr

080068a0 <HAL_TIM_IRQHandler>:
 80068a0:	6803      	ldr	r3, [r0, #0]
 80068a2:	691a      	ldr	r2, [r3, #16]
 80068a4:	0791      	lsls	r1, r2, #30
 80068a6:	b510      	push	{r4, lr}
 80068a8:	4604      	mov	r4, r0
 80068aa:	d50e      	bpl.n	80068ca <HAL_TIM_IRQHandler+0x2a>
 80068ac:	68da      	ldr	r2, [r3, #12]
 80068ae:	0792      	lsls	r2, r2, #30
 80068b0:	d50b      	bpl.n	80068ca <HAL_TIM_IRQHandler+0x2a>
 80068b2:	f06f 0202 	mvn.w	r2, #2
 80068b6:	611a      	str	r2, [r3, #16]
 80068b8:	2201      	movs	r2, #1
 80068ba:	7702      	strb	r2, [r0, #28]
 80068bc:	699b      	ldr	r3, [r3, #24]
 80068be:	079b      	lsls	r3, r3, #30
 80068c0:	d077      	beq.n	80069b2 <HAL_TIM_IRQHandler+0x112>
 80068c2:	f7fa fe71 	bl	80015a8 <HAL_TIM_IC_CaptureCallback>
 80068c6:	2300      	movs	r3, #0
 80068c8:	7723      	strb	r3, [r4, #28]
 80068ca:	6823      	ldr	r3, [r4, #0]
 80068cc:	691a      	ldr	r2, [r3, #16]
 80068ce:	0750      	lsls	r0, r2, #29
 80068d0:	d510      	bpl.n	80068f4 <HAL_TIM_IRQHandler+0x54>
 80068d2:	68da      	ldr	r2, [r3, #12]
 80068d4:	0751      	lsls	r1, r2, #29
 80068d6:	d50d      	bpl.n	80068f4 <HAL_TIM_IRQHandler+0x54>
 80068d8:	f06f 0204 	mvn.w	r2, #4
 80068dc:	611a      	str	r2, [r3, #16]
 80068de:	2202      	movs	r2, #2
 80068e0:	7722      	strb	r2, [r4, #28]
 80068e2:	699b      	ldr	r3, [r3, #24]
 80068e4:	f413 7f40 	tst.w	r3, #768	; 0x300
 80068e8:	4620      	mov	r0, r4
 80068ea:	d068      	beq.n	80069be <HAL_TIM_IRQHandler+0x11e>
 80068ec:	f7fa fe5c 	bl	80015a8 <HAL_TIM_IC_CaptureCallback>
 80068f0:	2300      	movs	r3, #0
 80068f2:	7723      	strb	r3, [r4, #28]
 80068f4:	6823      	ldr	r3, [r4, #0]
 80068f6:	691a      	ldr	r2, [r3, #16]
 80068f8:	0712      	lsls	r2, r2, #28
 80068fa:	d50f      	bpl.n	800691c <HAL_TIM_IRQHandler+0x7c>
 80068fc:	68da      	ldr	r2, [r3, #12]
 80068fe:	0710      	lsls	r0, r2, #28
 8006900:	d50c      	bpl.n	800691c <HAL_TIM_IRQHandler+0x7c>
 8006902:	f06f 0208 	mvn.w	r2, #8
 8006906:	611a      	str	r2, [r3, #16]
 8006908:	2204      	movs	r2, #4
 800690a:	7722      	strb	r2, [r4, #28]
 800690c:	69db      	ldr	r3, [r3, #28]
 800690e:	0799      	lsls	r1, r3, #30
 8006910:	4620      	mov	r0, r4
 8006912:	d05a      	beq.n	80069ca <HAL_TIM_IRQHandler+0x12a>
 8006914:	f7fa fe48 	bl	80015a8 <HAL_TIM_IC_CaptureCallback>
 8006918:	2300      	movs	r3, #0
 800691a:	7723      	strb	r3, [r4, #28]
 800691c:	6823      	ldr	r3, [r4, #0]
 800691e:	691a      	ldr	r2, [r3, #16]
 8006920:	06d2      	lsls	r2, r2, #27
 8006922:	d510      	bpl.n	8006946 <HAL_TIM_IRQHandler+0xa6>
 8006924:	68da      	ldr	r2, [r3, #12]
 8006926:	06d0      	lsls	r0, r2, #27
 8006928:	d50d      	bpl.n	8006946 <HAL_TIM_IRQHandler+0xa6>
 800692a:	f06f 0210 	mvn.w	r2, #16
 800692e:	611a      	str	r2, [r3, #16]
 8006930:	2208      	movs	r2, #8
 8006932:	7722      	strb	r2, [r4, #28]
 8006934:	69db      	ldr	r3, [r3, #28]
 8006936:	f413 7f40 	tst.w	r3, #768	; 0x300
 800693a:	4620      	mov	r0, r4
 800693c:	d04b      	beq.n	80069d6 <HAL_TIM_IRQHandler+0x136>
 800693e:	f7fa fe33 	bl	80015a8 <HAL_TIM_IC_CaptureCallback>
 8006942:	2300      	movs	r3, #0
 8006944:	7723      	strb	r3, [r4, #28]
 8006946:	6823      	ldr	r3, [r4, #0]
 8006948:	691a      	ldr	r2, [r3, #16]
 800694a:	07d1      	lsls	r1, r2, #31
 800694c:	d508      	bpl.n	8006960 <HAL_TIM_IRQHandler+0xc0>
 800694e:	68da      	ldr	r2, [r3, #12]
 8006950:	07d2      	lsls	r2, r2, #31
 8006952:	d505      	bpl.n	8006960 <HAL_TIM_IRQHandler+0xc0>
 8006954:	f06f 0201 	mvn.w	r2, #1
 8006958:	611a      	str	r2, [r3, #16]
 800695a:	4620      	mov	r0, r4
 800695c:	f7ff ff9c 	bl	8006898 <HAL_TIM_PeriodElapsedCallback>
 8006960:	6823      	ldr	r3, [r4, #0]
 8006962:	691a      	ldr	r2, [r3, #16]
 8006964:	0610      	lsls	r0, r2, #24
 8006966:	d508      	bpl.n	800697a <HAL_TIM_IRQHandler+0xda>
 8006968:	68da      	ldr	r2, [r3, #12]
 800696a:	0611      	lsls	r1, r2, #24
 800696c:	d505      	bpl.n	800697a <HAL_TIM_IRQHandler+0xda>
 800696e:	f06f 0280 	mvn.w	r2, #128	; 0x80
 8006972:	611a      	str	r2, [r3, #16]
 8006974:	4620      	mov	r0, r4
 8006976:	f000 fcdc 	bl	8007332 <HAL_TIMEx_BreakCallback>
 800697a:	6823      	ldr	r3, [r4, #0]
 800697c:	691a      	ldr	r2, [r3, #16]
 800697e:	0652      	lsls	r2, r2, #25
 8006980:	d508      	bpl.n	8006994 <HAL_TIM_IRQHandler+0xf4>
 8006982:	68da      	ldr	r2, [r3, #12]
 8006984:	0650      	lsls	r0, r2, #25
 8006986:	d505      	bpl.n	8006994 <HAL_TIM_IRQHandler+0xf4>
 8006988:	f06f 0240 	mvn.w	r2, #64	; 0x40
 800698c:	611a      	str	r2, [r3, #16]
 800698e:	4620      	mov	r0, r4
 8006990:	f7ff ff85 	bl	800689e <HAL_TIM_TriggerCallback>
 8006994:	6823      	ldr	r3, [r4, #0]
 8006996:	691a      	ldr	r2, [r3, #16]
 8006998:	0691      	lsls	r1, r2, #26
 800699a:	d522      	bpl.n	80069e2 <HAL_TIM_IRQHandler+0x142>
 800699c:	68da      	ldr	r2, [r3, #12]
 800699e:	0692      	lsls	r2, r2, #26
 80069a0:	d51f      	bpl.n	80069e2 <HAL_TIM_IRQHandler+0x142>
 80069a2:	f06f 0220 	mvn.w	r2, #32
 80069a6:	4620      	mov	r0, r4
 80069a8:	611a      	str	r2, [r3, #16]
 80069aa:	e8bd 4010 	ldmia.w	sp!, {r4, lr}
 80069ae:	f000 bcbf 	b.w	8007330 <HAL_TIMEx_CommutCallback>
 80069b2:	f7ff ff72 	bl	800689a <HAL_TIM_OC_DelayElapsedCallback>
 80069b6:	4620      	mov	r0, r4
 80069b8:	f7ff ff70 	bl	800689c <HAL_TIM_PWM_PulseFinishedCallback>
 80069bc:	e783      	b.n	80068c6 <HAL_TIM_IRQHandler+0x26>
 80069be:	f7ff ff6c 	bl	800689a <HAL_TIM_OC_DelayElapsedCallback>
 80069c2:	4620      	mov	r0, r4
 80069c4:	f7ff ff6a 	bl	800689c <HAL_TIM_PWM_PulseFinishedCallback>
 80069c8:	e792      	b.n	80068f0 <HAL_TIM_IRQHandler+0x50>
 80069ca:	f7ff ff66 	bl	800689a <HAL_TIM_OC_DelayElapsedCallback>
 80069ce:	4620      	mov	r0, r4
 80069d0:	f7ff ff64 	bl	800689c <HAL_TIM_PWM_PulseFinishedCallback>
 80069d4:	e7a0      	b.n	8006918 <HAL_TIM_IRQHandler+0x78>
 80069d6:	f7ff ff60 	bl	800689a <HAL_TIM_OC_DelayElapsedCallback>
 80069da:	4620      	mov	r0, r4
 80069dc:	f7ff ff5e 	bl	800689c <HAL_TIM_PWM_PulseFinishedCallback>
 80069e0:	e7af      	b.n	8006942 <HAL_TIM_IRQHandler+0xa2>
 80069e2:	bd10      	pop	{r4, pc}

080069e4 <TIM_Base_SetConfig>:
 80069e4:	4a30      	ldr	r2, [pc, #192]	; (8006aa8 <TIM_Base_SetConfig+0xc4>)
 80069e6:	6803      	ldr	r3, [r0, #0]
 80069e8:	4290      	cmp	r0, r2
 80069ea:	d012      	beq.n	8006a12 <TIM_Base_SetConfig+0x2e>
 80069ec:	f1b0 4f80 	cmp.w	r0, #1073741824	; 0x40000000
 80069f0:	d00f      	beq.n	8006a12 <TIM_Base_SetConfig+0x2e>
 80069f2:	f5a2 427c 	sub.w	r2, r2, #64512	; 0xfc00
 80069f6:	4290      	cmp	r0, r2
 80069f8:	d00b      	beq.n	8006a12 <TIM_Base_SetConfig+0x2e>
 80069fa:	f502 6280 	add.w	r2, r2, #1024	; 0x400
 80069fe:	4290      	cmp	r0, r2
 8006a00:	d007      	beq.n	8006a12 <TIM_Base_SetConfig+0x2e>
 8006a02:	f502 6280 	add.w	r2, r2, #1024	; 0x400
 8006a06:	4290      	cmp	r0, r2
 8006a08:	d003      	beq.n	8006a12 <TIM_Base_SetConfig+0x2e>
 8006a0a:	f502 4278 	add.w	r2, r2, #63488	; 0xf800
 8006a0e:	4290      	cmp	r0, r2
 8006a10:	d119      	bne.n	8006a46 <TIM_Base_SetConfig+0x62>
 8006a12:	684a      	ldr	r2, [r1, #4]
 8006a14:	f023 0370 	bic.w	r3, r3, #112	; 0x70
 8006a18:	4313      	orrs	r3, r2
 8006a1a:	4a23      	ldr	r2, [pc, #140]	; (8006aa8 <TIM_Base_SetConfig+0xc4>)
 8006a1c:	4290      	cmp	r0, r2
 8006a1e:	d029      	beq.n	8006a74 <TIM_Base_SetConfig+0x90>
 8006a20:	f1b0 4f80 	cmp.w	r0, #1073741824	; 0x40000000
 8006a24:	d026      	beq.n	8006a74 <TIM_Base_SetConfig+0x90>
 8006a26:	f5a2 427c 	sub.w	r2, r2, #64512	; 0xfc00
 8006a2a:	4290      	cmp	r0, r2
 8006a2c:	d022      	beq.n	8006a74 <TIM_Base_SetConfig+0x90>
 8006a2e:	f502 6280 	add.w	r2, r2, #1024	; 0x400
 8006a32:	4290      	cmp	r0, r2
 8006a34:	d01e      	beq.n	8006a74 <TIM_Base_SetConfig+0x90>
 8006a36:	f502 6280 	add.w	r2, r2, #1024	; 0x400
 8006a3a:	4290      	cmp	r0, r2
 8006a3c:	d01a      	beq.n	8006a74 <TIM_Base_SetConfig+0x90>
 8006a3e:	f502 4278 	add.w	r2, r2, #63488	; 0xf800
 8006a42:	4290      	cmp	r0, r2
 8006a44:	d016      	beq.n	8006a74 <TIM_Base_SetConfig+0x90>
 8006a46:	4a19      	ldr	r2, [pc, #100]	; (8006aac <TIM_Base_SetConfig+0xc8>)
 8006a48:	4290      	cmp	r0, r2
 8006a4a:	d013      	beq.n	8006a74 <TIM_Base_SetConfig+0x90>
 8006a4c:	f502 6280 	add.w	r2, r2, #1024	; 0x400
 8006a50:	4290      	cmp	r0, r2
 8006a52:	d00f      	beq.n	8006a74 <TIM_Base_SetConfig+0x90>
 8006a54:	f502 6280 	add.w	r2, r2, #1024	; 0x400
 8006a58:	4290      	cmp	r0, r2
 8006a5a:	d00b      	beq.n	8006a74 <TIM_Base_SetConfig+0x90>
 8006a5c:	f5a2 3298 	sub.w	r2, r2, #77824	; 0x13000
 8006a60:	4290      	cmp	r0, r2
 8006a62:	d007      	beq.n	8006a74 <TIM_Base_SetConfig+0x90>
 8006a64:	f502 6280 	add.w	r2, r2, #1024	; 0x400
 8006a68:	4290      	cmp	r0, r2
 8006a6a:	d003      	beq.n	8006a74 <TIM_Base_SetConfig+0x90>
 8006a6c:	f502 6280 	add.w	r2, r2, #1024	; 0x400
 8006a70:	4290      	cmp	r0, r2
 8006a72:	d103      	bne.n	8006a7c <TIM_Base_SetConfig+0x98>
 8006a74:	68ca      	ldr	r2, [r1, #12]
 8006a76:	f423 7340 	bic.w	r3, r3, #768	; 0x300
 8006a7a:	4313      	orrs	r3, r2
 8006a7c:	694a      	ldr	r2, [r1, #20]
 8006a7e:	f023 0380 	bic.w	r3, r3, #128	; 0x80
 8006a82:	4313      	orrs	r3, r2
 8006a84:	6003      	str	r3, [r0, #0]
 8006a86:	688b      	ldr	r3, [r1, #8]
 8006a88:	62c3      	str	r3, [r0, #44]	; 0x2c
 8006a8a:	680b      	ldr	r3, [r1, #0]
 8006a8c:	6283      	str	r3, [r0, #40]	; 0x28
 8006a8e:	4b06      	ldr	r3, [pc, #24]	; (8006aa8 <TIM_Base_SetConfig+0xc4>)
 8006a90:	4298      	cmp	r0, r3
 8006a92:	d003      	beq.n	8006a9c <TIM_Base_SetConfig+0xb8>
 8006a94:	f503 6380 	add.w	r3, r3, #1024	; 0x400
 8006a98:	4298      	cmp	r0, r3
 8006a9a:	d101      	bne.n	8006aa0 <TIM_Base_SetConfig+0xbc>
 8006a9c:	690b      	ldr	r3, [r1, #16]
 8006a9e:	6303      	str	r3, [r0, #48]	; 0x30
 8006aa0:	2301      	movs	r3, #1
 8006aa2:	6143      	str	r3, [r0, #20]
 8006aa4:	4770      	bx	lr
 8006aa6:	bf00      	nop
 8006aa8:	40010000 	.word	0x40010000
 8006aac:	40014000 	.word	0x40014000

08006ab0 <HAL_TIM_Base_Init>:
 8006ab0:	b510      	push	{r4, lr}
 8006ab2:	4604      	mov	r4, r0
 8006ab4:	b330      	cbz	r0, 8006b04 <HAL_TIM_Base_Init+0x54>
 8006ab6:	f890 303d 	ldrb.w	r3, [r0, #61]	; 0x3d
 8006aba:	f003 02ff 	and.w	r2, r3, #255	; 0xff
 8006abe:	b91b      	cbnz	r3, 8006ac8 <HAL_TIM_Base_Init+0x18>
 8006ac0:	f880 203c 	strb.w	r2, [r0, #60]	; 0x3c
 8006ac4:	f7fd fd94 	bl	80045f0 <HAL_TIM_Base_MspInit>
 8006ac8:	2302      	movs	r3, #2
 8006aca:	6820      	ldr	r0, [r4, #0]
 8006acc:	f884 303d 	strb.w	r3, [r4, #61]	; 0x3d
 8006ad0:	1d21      	adds	r1, r4, #4
 8006ad2:	f7ff ff87 	bl	80069e4 <TIM_Base_SetConfig>
 8006ad6:	2301      	movs	r3, #1
 8006ad8:	f884 3046 	strb.w	r3, [r4, #70]	; 0x46
 8006adc:	2000      	movs	r0, #0
 8006ade:	f884 303e 	strb.w	r3, [r4, #62]	; 0x3e
 8006ae2:	f884 303f 	strb.w	r3, [r4, #63]	; 0x3f
 8006ae6:	f884 3040 	strb.w	r3, [r4, #64]	; 0x40
 8006aea:	f884 3041 	strb.w	r3, [r4, #65]	; 0x41
 8006aee:	f884 3042 	strb.w	r3, [r4, #66]	; 0x42
 8006af2:	f884 3043 	strb.w	r3, [r4, #67]	; 0x43
 8006af6:	f884 3044 	strb.w	r3, [r4, #68]	; 0x44
 8006afa:	f884 3045 	strb.w	r3, [r4, #69]	; 0x45
 8006afe:	f884 303d 	strb.w	r3, [r4, #61]	; 0x3d
 8006b02:	bd10      	pop	{r4, pc}
 8006b04:	2001      	movs	r0, #1
 8006b06:	e7fc      	b.n	8006b02 <HAL_TIM_Base_Init+0x52>

08006b08 <HAL_TIM_PWM_Init>:
 8006b08:	b510      	push	{r4, lr}
 8006b0a:	4604      	mov	r4, r0
 8006b0c:	b330      	cbz	r0, 8006b5c <HAL_TIM_PWM_Init+0x54>
 8006b0e:	f890 303d 	ldrb.w	r3, [r0, #61]	; 0x3d
 8006b12:	f003 02ff 	and.w	r2, r3, #255	; 0xff
 8006b16:	b91b      	cbnz	r3, 8006b20 <HAL_TIM_PWM_Init+0x18>
 8006b18:	f880 203c 	strb.w	r2, [r0, #60]	; 0x3c
 8006b1c:	f7ff fe4a 	bl	80067b4 <HAL_TIM_PWM_MspInit>
 8006b20:	2302      	movs	r3, #2
 8006b22:	6820      	ldr	r0, [r4, #0]
 8006b24:	f884 303d 	strb.w	r3, [r4, #61]	; 0x3d
 8006b28:	1d21      	adds	r1, r4, #4
 8006b2a:	f7ff ff5b 	bl	80069e4 <TIM_Base_SetConfig>
 8006b2e:	2301      	movs	r3, #1
 8006b30:	f884 3046 	strb.w	r3, [r4, #70]	; 0x46
 8006b34:	2000      	movs	r0, #0
 8006b36:	f884 303e 	strb.w	r3, [r4, #62]	; 0x3e
 8006b3a:	f884 303f 	strb.w	r3, [r4, #63]	; 0x3f
 8006b3e:	f884 3040 	strb.w	r3, [r4, #64]	; 0x40
 8006b42:	f884 3041 	strb.w	r3, [r4, #65]	; 0x41
 8006b46:	f884 3042 	strb.w	r3, [r4, #66]	; 0x42
 8006b4a:	f884 3043 	strb.w	r3, [r4, #67]	; 0x43
 8006b4e:	f884 3044 	strb.w	r3, [r4, #68]	; 0x44
 8006b52:	f884 3045 	strb.w	r3, [r4, #69]	; 0x45
 8006b56:	f884 303d 	strb.w	r3, [r4, #61]	; 0x3d
 8006b5a:	bd10      	pop	{r4, pc}
 8006b5c:	2001      	movs	r0, #1
 8006b5e:	e7fc      	b.n	8006b5a <HAL_TIM_PWM_Init+0x52>

08006b60 <HAL_TIM_IC_Init>:
 8006b60:	b510      	push	{r4, lr}
 8006b62:	4604      	mov	r4, r0
 8006b64:	b330      	cbz	r0, 8006bb4 <HAL_TIM_IC_Init+0x54>
 8006b66:	f890 303d 	ldrb.w	r3, [r0, #61]	; 0x3d
 8006b6a:	f003 02ff 	and.w	r2, r3, #255	; 0xff
 8006b6e:	b91b      	cbnz	r3, 8006b78 <HAL_TIM_IC_Init+0x18>
 8006b70:	f880 203c 	strb.w	r2, [r0, #60]	; 0x3c
 8006b74:	f7fd fdf0 	bl	8004758 <HAL_TIM_IC_MspInit>
 8006b78:	2302      	movs	r3, #2
 8006b7a:	6820      	ldr	r0, [r4, #0]
 8006b7c:	f884 303d 	strb.w	r3, [r4, #61]	; 0x3d
 8006b80:	1d21      	adds	r1, r4, #4
 8006b82:	f7ff ff2f 	bl	80069e4 <TIM_Base_SetConfig>
 8006b86:	2301      	movs	r3, #1
 8006b88:	f884 3046 	strb.w	r3, [r4, #70]	; 0x46
 8006b8c:	2000      	movs	r0, #0
 8006b8e:	f884 303e 	strb.w	r3, [r4, #62]	; 0x3e
 8006b92:	f884 303f 	strb.w	r3, [r4, #63]	; 0x3f
 8006b96:	f884 3040 	strb.w	r3, [r4, #64]	; 0x40
 8006b9a:	f884 3041 	strb.w	r3, [r4, #65]	; 0x41
 8006b9e:	f884 3042 	strb.w	r3, [r4, #66]	; 0x42
 8006ba2:	f884 3043 	strb.w	r3, [r4, #67]	; 0x43
 8006ba6:	f884 3044 	strb.w	r3, [r4, #68]	; 0x44
 8006baa:	f884 3045 	strb.w	r3, [r4, #69]	; 0x45
 8006bae:	f884 303d 	strb.w	r3, [r4, #61]	; 0x3d
 8006bb2:	bd10      	pop	{r4, pc}
 8006bb4:	2001      	movs	r0, #1
 8006bb6:	e7fc      	b.n	8006bb2 <HAL_TIM_IC_Init+0x52>

08006bb8 <HAL_TIM_Encoder_Init>:
 8006bb8:	b5f8      	push	{r3, r4, r5, r6, r7, lr}
 8006bba:	460d      	mov	r5, r1
 8006bbc:	4604      	mov	r4, r0
 8006bbe:	2800      	cmp	r0, #0
 8006bc0:	d04d      	beq.n	8006c5e <HAL_TIM_Encoder_Init+0xa6>
 8006bc2:	f890 303d 	ldrb.w	r3, [r0, #61]	; 0x3d
 8006bc6:	f003 02ff 	and.w	r2, r3, #255	; 0xff
 8006bca:	b91b      	cbnz	r3, 8006bd4 <HAL_TIM_Encoder_Init+0x1c>
 8006bcc:	f880 203c 	strb.w	r2, [r0, #60]	; 0x3c
 8006bd0:	f7fd fd56 	bl	8004680 <HAL_TIM_Encoder_MspInit>
 8006bd4:	4621      	mov	r1, r4
 8006bd6:	2302      	movs	r3, #2
 8006bd8:	f884 303d 	strb.w	r3, [r4, #61]	; 0x3d
 8006bdc:	f851 0b04 	ldr.w	r0, [r1], #4
 8006be0:	6883      	ldr	r3, [r0, #8]
 8006be2:	f423 4380 	bic.w	r3, r3, #16384	; 0x4000
 8006be6:	f023 0307 	bic.w	r3, r3, #7
 8006bea:	6083      	str	r3, [r0, #8]
 8006bec:	f7ff fefa 	bl	80069e4 <TIM_Base_SetConfig>
 8006bf0:	6820      	ldr	r0, [r4, #0]
 8006bf2:	682a      	ldr	r2, [r5, #0]
 8006bf4:	6886      	ldr	r6, [r0, #8]
 8006bf6:	6983      	ldr	r3, [r0, #24]
 8006bf8:	68a9      	ldr	r1, [r5, #8]
 8006bfa:	6a07      	ldr	r7, [r0, #32]
 8006bfc:	4316      	orrs	r6, r2
 8006bfe:	69aa      	ldr	r2, [r5, #24]
 8006c00:	f423 7340 	bic.w	r3, r3, #768	; 0x300
 8006c04:	ea41 2102 	orr.w	r1, r1, r2, lsl #8
 8006c08:	f023 0303 	bic.w	r3, r3, #3
 8006c0c:	430b      	orrs	r3, r1
 8006c0e:	f423 427c 	bic.w	r2, r3, #64512	; 0xfc00
 8006c12:	692b      	ldr	r3, [r5, #16]
 8006c14:	69e9      	ldr	r1, [r5, #28]
 8006c16:	011b      	lsls	r3, r3, #4
 8006c18:	ea43 2301 	orr.w	r3, r3, r1, lsl #8
 8006c1c:	68e9      	ldr	r1, [r5, #12]
 8006c1e:	430b      	orrs	r3, r1
 8006c20:	6a29      	ldr	r1, [r5, #32]
 8006c22:	f022 02fc 	bic.w	r2, r2, #252	; 0xfc
 8006c26:	ea43 3301 	orr.w	r3, r3, r1, lsl #12
 8006c2a:	4313      	orrs	r3, r2
 8006c2c:	6969      	ldr	r1, [r5, #20]
 8006c2e:	f027 02aa 	bic.w	r2, r7, #170	; 0xaa
 8006c32:	686f      	ldr	r7, [r5, #4]
 8006c34:	6086      	str	r6, [r0, #8]
 8006c36:	ea47 1701 	orr.w	r7, r7, r1, lsl #4
 8006c3a:	6183      	str	r3, [r0, #24]
 8006c3c:	4317      	orrs	r7, r2
 8006c3e:	2301      	movs	r3, #1
 8006c40:	6207      	str	r7, [r0, #32]
 8006c42:	f884 3046 	strb.w	r3, [r4, #70]	; 0x46
 8006c46:	2000      	movs	r0, #0
 8006c48:	f884 303e 	strb.w	r3, [r4, #62]	; 0x3e
 8006c4c:	f884 303f 	strb.w	r3, [r4, #63]	; 0x3f
 8006c50:	f884 3042 	strb.w	r3, [r4, #66]	; 0x42
 8006c54:	f884 3043 	strb.w	r3, [r4, #67]	; 0x43
 8006c58:	f884 303d 	strb.w	r3, [r4, #61]	; 0x3d
 8006c5c:	bdf8      	pop	{r3, r4, r5, r6, r7, pc}
 8006c5e:	2001      	movs	r0, #1
 8006c60:	e7fc      	b.n	8006c5c <HAL_TIM_Encoder_Init+0xa4>
	...

08006c64 <TIM_OC2_SetConfig>:
 8006c64:	6a03      	ldr	r3, [r0, #32]
 8006c66:	f023 0310 	bic.w	r3, r3, #16
 8006c6a:	6203      	str	r3, [r0, #32]
 8006c6c:	6a03      	ldr	r3, [r0, #32]
 8006c6e:	b570      	push	{r4, r5, r6, lr}
 8006c70:	6844      	ldr	r4, [r0, #4]
 8006c72:	6982      	ldr	r2, [r0, #24]
 8006c74:	680d      	ldr	r5, [r1, #0]
 8006c76:	f422 42e6 	bic.w	r2, r2, #29440	; 0x7300
 8006c7a:	ea42 2205 	orr.w	r2, r2, r5, lsl #8
 8006c7e:	688d      	ldr	r5, [r1, #8]
 8006c80:	f023 0320 	bic.w	r3, r3, #32
 8006c84:	ea43 1305 	orr.w	r3, r3, r5, lsl #4
 8006c88:	4d10      	ldr	r5, [pc, #64]	; (8006ccc <TIM_OC2_SetConfig+0x68>)
 8006c8a:	42a8      	cmp	r0, r5
 8006c8c:	d003      	beq.n	8006c96 <TIM_OC2_SetConfig+0x32>
 8006c8e:	f505 6580 	add.w	r5, r5, #1024	; 0x400
 8006c92:	42a8      	cmp	r0, r5
 8006c94:	d114      	bne.n	8006cc0 <TIM_OC2_SetConfig+0x5c>
 8006c96:	68cd      	ldr	r5, [r1, #12]
 8006c98:	f023 0380 	bic.w	r3, r3, #128	; 0x80
 8006c9c:	ea43 1305 	orr.w	r3, r3, r5, lsl #4
 8006ca0:	4d0a      	ldr	r5, [pc, #40]	; (8006ccc <TIM_OC2_SetConfig+0x68>)
 8006ca2:	42a8      	cmp	r0, r5
 8006ca4:	f023 0340 	bic.w	r3, r3, #64	; 0x40
 8006ca8:	d003      	beq.n	8006cb2 <TIM_OC2_SetConfig+0x4e>
 8006caa:	f505 6580 	add.w	r5, r5, #1024	; 0x400
 8006cae:	42a8      	cmp	r0, r5
 8006cb0:	d106      	bne.n	8006cc0 <TIM_OC2_SetConfig+0x5c>
 8006cb2:	e9d1 5605 	ldrd	r5, r6, [r1, #20]
 8006cb6:	f424 6440 	bic.w	r4, r4, #3072	; 0xc00
 8006cba:	4335      	orrs	r5, r6
 8006cbc:	ea44 0485 	orr.w	r4, r4, r5, lsl #2
 8006cc0:	6044      	str	r4, [r0, #4]
 8006cc2:	6182      	str	r2, [r0, #24]
 8006cc4:	684a      	ldr	r2, [r1, #4]
 8006cc6:	6382      	str	r2, [r0, #56]	; 0x38
 8006cc8:	6203      	str	r3, [r0, #32]
 8006cca:	bd70      	pop	{r4, r5, r6, pc}
 8006ccc:	40010000 	.word	0x40010000

08006cd0 <HAL_TIM_PWM_ConfigChannel>:
 8006cd0:	b570      	push	{r4, r5, r6, lr}
 8006cd2:	f890 303c 	ldrb.w	r3, [r0, #60]	; 0x3c
 8006cd6:	2b01      	cmp	r3, #1
 8006cd8:	4605      	mov	r5, r0
 8006cda:	d053      	beq.n	8006d84 <HAL_TIM_PWM_ConfigChannel+0xb4>
 8006cdc:	2001      	movs	r0, #1
 8006cde:	2a08      	cmp	r2, #8
 8006ce0:	f885 003c 	strb.w	r0, [r5, #60]	; 0x3c
 8006ce4:	d03d      	beq.n	8006d62 <HAL_TIM_PWM_ConfigChannel+0x92>
 8006ce6:	d806      	bhi.n	8006cf6 <HAL_TIM_PWM_ConfigChannel+0x26>
 8006ce8:	b1c2      	cbz	r2, 8006d1c <HAL_TIM_PWM_ConfigChannel+0x4c>
 8006cea:	2a04      	cmp	r2, #4
 8006cec:	d028      	beq.n	8006d40 <HAL_TIM_PWM_ConfigChannel+0x70>
 8006cee:	2300      	movs	r3, #0
 8006cf0:	f885 303c 	strb.w	r3, [r5, #60]	; 0x3c
 8006cf4:	bd70      	pop	{r4, r5, r6, pc}
 8006cf6:	2a0c      	cmp	r2, #12
 8006cf8:	d1f9      	bne.n	8006cee <HAL_TIM_PWM_ConfigChannel+0x1e>
 8006cfa:	6828      	ldr	r0, [r5, #0]
 8006cfc:	f7ff fd34 	bl	8006768 <TIM_OC4_SetConfig>
 8006d00:	682b      	ldr	r3, [r5, #0]
 8006d02:	6909      	ldr	r1, [r1, #16]
 8006d04:	69da      	ldr	r2, [r3, #28]
 8006d06:	f442 6200 	orr.w	r2, r2, #2048	; 0x800
 8006d0a:	61da      	str	r2, [r3, #28]
 8006d0c:	69da      	ldr	r2, [r3, #28]
 8006d0e:	f422 6280 	bic.w	r2, r2, #1024	; 0x400
 8006d12:	61da      	str	r2, [r3, #28]
 8006d14:	69da      	ldr	r2, [r3, #28]
 8006d16:	ea42 2201 	orr.w	r2, r2, r1, lsl #8
 8006d1a:	e031      	b.n	8006d80 <HAL_TIM_PWM_ConfigChannel+0xb0>
 8006d1c:	6828      	ldr	r0, [r5, #0]
 8006d1e:	f7ff fcbb 	bl	8006698 <TIM_OC1_SetConfig>
 8006d22:	682b      	ldr	r3, [r5, #0]
 8006d24:	6909      	ldr	r1, [r1, #16]
 8006d26:	699a      	ldr	r2, [r3, #24]
 8006d28:	f042 0208 	orr.w	r2, r2, #8
 8006d2c:	619a      	str	r2, [r3, #24]
 8006d2e:	699a      	ldr	r2, [r3, #24]
 8006d30:	f022 0204 	bic.w	r2, r2, #4
 8006d34:	619a      	str	r2, [r3, #24]
 8006d36:	699a      	ldr	r2, [r3, #24]
 8006d38:	430a      	orrs	r2, r1
 8006d3a:	619a      	str	r2, [r3, #24]
 8006d3c:	2000      	movs	r0, #0
 8006d3e:	e7d6      	b.n	8006cee <HAL_TIM_PWM_ConfigChannel+0x1e>
 8006d40:	6828      	ldr	r0, [r5, #0]
 8006d42:	f7ff ff8f 	bl	8006c64 <TIM_OC2_SetConfig>
 8006d46:	682b      	ldr	r3, [r5, #0]
 8006d48:	6909      	ldr	r1, [r1, #16]
 8006d4a:	699a      	ldr	r2, [r3, #24]
 8006d4c:	f442 6200 	orr.w	r2, r2, #2048	; 0x800
 8006d50:	619a      	str	r2, [r3, #24]
 8006d52:	699a      	ldr	r2, [r3, #24]
 8006d54:	f422 6280 	bic.w	r2, r2, #1024	; 0x400
 8006d58:	619a      	str	r2, [r3, #24]
 8006d5a:	699a      	ldr	r2, [r3, #24]
 8006d5c:	ea42 2201 	orr.w	r2, r2, r1, lsl #8
 8006d60:	e7eb      	b.n	8006d3a <HAL_TIM_PWM_ConfigChannel+0x6a>
 8006d62:	6828      	ldr	r0, [r5, #0]
 8006d64:	f7ff fcca 	bl	80066fc <TIM_OC3_SetConfig>
 8006d68:	682b      	ldr	r3, [r5, #0]
 8006d6a:	6909      	ldr	r1, [r1, #16]
 8006d6c:	69da      	ldr	r2, [r3, #28]
 8006d6e:	f042 0208 	orr.w	r2, r2, #8
 8006d72:	61da      	str	r2, [r3, #28]
 8006d74:	69da      	ldr	r2, [r3, #28]
 8006d76:	f022 0204 	bic.w	r2, r2, #4
 8006d7a:	61da      	str	r2, [r3, #28]
 8006d7c:	69da      	ldr	r2, [r3, #28]
 8006d7e:	430a      	orrs	r2, r1
 8006d80:	61da      	str	r2, [r3, #28]
 8006d82:	e7db      	b.n	8006d3c <HAL_TIM_PWM_ConfigChannel+0x6c>
 8006d84:	2002      	movs	r0, #2
 8006d86:	e7b5      	b.n	8006cf4 <HAL_TIM_PWM_ConfigChannel+0x24>

08006d88 <TIM_TI1_SetConfig>:
 8006d88:	b570      	push	{r4, r5, r6, lr}
 8006d8a:	6a04      	ldr	r4, [r0, #32]
 8006d8c:	4e1a      	ldr	r6, [pc, #104]	; (8006df8 <TIM_TI1_SetConfig+0x70>)
 8006d8e:	f024 0401 	bic.w	r4, r4, #1
 8006d92:	6204      	str	r4, [r0, #32]
 8006d94:	42b0      	cmp	r0, r6
 8006d96:	6984      	ldr	r4, [r0, #24]
 8006d98:	6a05      	ldr	r5, [r0, #32]
 8006d9a:	d029      	beq.n	8006df0 <TIM_TI1_SetConfig+0x68>
 8006d9c:	f1b0 4f80 	cmp.w	r0, #1073741824	; 0x40000000
 8006da0:	d026      	beq.n	8006df0 <TIM_TI1_SetConfig+0x68>
 8006da2:	f5a6 467c 	sub.w	r6, r6, #64512	; 0xfc00
 8006da6:	42b0      	cmp	r0, r6
 8006da8:	d022      	beq.n	8006df0 <TIM_TI1_SetConfig+0x68>
 8006daa:	f506 6680 	add.w	r6, r6, #1024	; 0x400
 8006dae:	42b0      	cmp	r0, r6
 8006db0:	d01e      	beq.n	8006df0 <TIM_TI1_SetConfig+0x68>
 8006db2:	f506 6680 	add.w	r6, r6, #1024	; 0x400
 8006db6:	42b0      	cmp	r0, r6
 8006db8:	d01a      	beq.n	8006df0 <TIM_TI1_SetConfig+0x68>
 8006dba:	f506 4678 	add.w	r6, r6, #63488	; 0xf800
 8006dbe:	42b0      	cmp	r0, r6
 8006dc0:	d016      	beq.n	8006df0 <TIM_TI1_SetConfig+0x68>
 8006dc2:	f506 5670 	add.w	r6, r6, #15360	; 0x3c00
 8006dc6:	42b0      	cmp	r0, r6
 8006dc8:	d012      	beq.n	8006df0 <TIM_TI1_SetConfig+0x68>
 8006dca:	f5a6 3694 	sub.w	r6, r6, #75776	; 0x12800
 8006dce:	42b0      	cmp	r0, r6
 8006dd0:	d00e      	beq.n	8006df0 <TIM_TI1_SetConfig+0x68>
 8006dd2:	f044 0201 	orr.w	r2, r4, #1
 8006dd6:	011b      	lsls	r3, r3, #4
 8006dd8:	b2db      	uxtb	r3, r3
 8006dda:	f022 02f0 	bic.w	r2, r2, #240	; 0xf0
 8006dde:	431a      	orrs	r2, r3
 8006de0:	f001 010a 	and.w	r1, r1, #10
 8006de4:	f025 030a 	bic.w	r3, r5, #10
 8006de8:	4319      	orrs	r1, r3
 8006dea:	6182      	str	r2, [r0, #24]
 8006dec:	6201      	str	r1, [r0, #32]
 8006dee:	bd70      	pop	{r4, r5, r6, pc}
 8006df0:	f024 0403 	bic.w	r4, r4, #3
 8006df4:	4322      	orrs	r2, r4
 8006df6:	e7ee      	b.n	8006dd6 <TIM_TI1_SetConfig+0x4e>
 8006df8:	40010000 	.word	0x40010000

08006dfc <HAL_TIM_IC_ConfigChannel>:
 8006dfc:	b5f8      	push	{r3, r4, r5, r6, r7, lr}
 8006dfe:	f890 303c 	ldrb.w	r3, [r0, #60]	; 0x3c
 8006e02:	2b01      	cmp	r3, #1
 8006e04:	4605      	mov	r5, r0
 8006e06:	460c      	mov	r4, r1
 8006e08:	f000 8089 	beq.w	8006f1e <HAL_TIM_IC_ConfigChannel+0x122>
 8006e0c:	2001      	movs	r0, #1
 8006e0e:	f885 003c 	strb.w	r0, [r5, #60]	; 0x3c
 8006e12:	b99a      	cbnz	r2, 8006e3c <HAL_TIM_IC_ConfigChannel+0x40>
 8006e14:	68cb      	ldr	r3, [r1, #12]
 8006e16:	6828      	ldr	r0, [r5, #0]
 8006e18:	e9d1 1200 	ldrd	r1, r2, [r1]
 8006e1c:	f7ff ffb4 	bl	8006d88 <TIM_TI1_SetConfig>
 8006e20:	682b      	ldr	r3, [r5, #0]
 8006e22:	68a1      	ldr	r1, [r4, #8]
 8006e24:	699a      	ldr	r2, [r3, #24]
 8006e26:	f022 020c 	bic.w	r2, r2, #12
 8006e2a:	619a      	str	r2, [r3, #24]
 8006e2c:	699a      	ldr	r2, [r3, #24]
 8006e2e:	430a      	orrs	r2, r1
 8006e30:	619a      	str	r2, [r3, #24]
 8006e32:	2000      	movs	r0, #0
 8006e34:	2300      	movs	r3, #0
 8006e36:	f885 303c 	strb.w	r3, [r5, #60]	; 0x3c
 8006e3a:	bdf8      	pop	{r3, r4, r5, r6, r7, pc}
 8006e3c:	2a04      	cmp	r2, #4
 8006e3e:	d123      	bne.n	8006e88 <HAL_TIM_IC_ConfigChannel+0x8c>
 8006e40:	682b      	ldr	r3, [r5, #0]
 8006e42:	6a1e      	ldr	r6, [r3, #32]
 8006e44:	f026 0610 	bic.w	r6, r6, #16
 8006e48:	e9d1 2700 	ldrd	r2, r7, [r1]
 8006e4c:	68c9      	ldr	r1, [r1, #12]
 8006e4e:	621e      	str	r6, [r3, #32]
 8006e50:	6998      	ldr	r0, [r3, #24]
 8006e52:	6a1e      	ldr	r6, [r3, #32]
 8006e54:	f420 7040 	bic.w	r0, r0, #768	; 0x300
 8006e58:	ea40 2007 	orr.w	r0, r0, r7, lsl #8
 8006e5c:	0309      	lsls	r1, r1, #12
 8006e5e:	f420 4070 	bic.w	r0, r0, #61440	; 0xf000
 8006e62:	b289      	uxth	r1, r1
 8006e64:	0112      	lsls	r2, r2, #4
 8006e66:	4301      	orrs	r1, r0
 8006e68:	f002 02a0 	and.w	r2, r2, #160	; 0xa0
 8006e6c:	f026 00a0 	bic.w	r0, r6, #160	; 0xa0
 8006e70:	4302      	orrs	r2, r0
 8006e72:	6199      	str	r1, [r3, #24]
 8006e74:	621a      	str	r2, [r3, #32]
 8006e76:	699a      	ldr	r2, [r3, #24]
 8006e78:	68a1      	ldr	r1, [r4, #8]
 8006e7a:	f422 6240 	bic.w	r2, r2, #3072	; 0xc00
 8006e7e:	619a      	str	r2, [r3, #24]
 8006e80:	699a      	ldr	r2, [r3, #24]
 8006e82:	ea42 2201 	orr.w	r2, r2, r1, lsl #8
 8006e86:	e7d3      	b.n	8006e30 <HAL_TIM_IC_ConfigChannel+0x34>
 8006e88:	2a08      	cmp	r2, #8
 8006e8a:	d122      	bne.n	8006ed2 <HAL_TIM_IC_ConfigChannel+0xd6>
 8006e8c:	682b      	ldr	r3, [r5, #0]
 8006e8e:	6a1e      	ldr	r6, [r3, #32]
 8006e90:	f426 7680 	bic.w	r6, r6, #256	; 0x100
 8006e94:	e9d1 2000 	ldrd	r2, r0, [r1]
 8006e98:	68c9      	ldr	r1, [r1, #12]
 8006e9a:	621e      	str	r6, [r3, #32]
 8006e9c:	69df      	ldr	r7, [r3, #28]
 8006e9e:	6a1e      	ldr	r6, [r3, #32]
 8006ea0:	f027 0703 	bic.w	r7, r7, #3
 8006ea4:	4338      	orrs	r0, r7
 8006ea6:	0109      	lsls	r1, r1, #4
 8006ea8:	f020 00f0 	bic.w	r0, r0, #240	; 0xf0
 8006eac:	b2c9      	uxtb	r1, r1
 8006eae:	0212      	lsls	r2, r2, #8
 8006eb0:	4301      	orrs	r1, r0
 8006eb2:	f402 6220 	and.w	r2, r2, #2560	; 0xa00
 8006eb6:	f426 6020 	bic.w	r0, r6, #2560	; 0xa00
 8006eba:	4302      	orrs	r2, r0
 8006ebc:	61d9      	str	r1, [r3, #28]
 8006ebe:	621a      	str	r2, [r3, #32]
 8006ec0:	69da      	ldr	r2, [r3, #28]
 8006ec2:	68a1      	ldr	r1, [r4, #8]
 8006ec4:	f022 020c 	bic.w	r2, r2, #12
 8006ec8:	61da      	str	r2, [r3, #28]
 8006eca:	69da      	ldr	r2, [r3, #28]
 8006ecc:	430a      	orrs	r2, r1
 8006ece:	61da      	str	r2, [r3, #28]
 8006ed0:	e7af      	b.n	8006e32 <HAL_TIM_IC_ConfigChannel+0x36>
 8006ed2:	2a0c      	cmp	r2, #12
 8006ed4:	d1ae      	bne.n	8006e34 <HAL_TIM_IC_ConfigChannel+0x38>
 8006ed6:	682b      	ldr	r3, [r5, #0]
 8006ed8:	6a1e      	ldr	r6, [r3, #32]
 8006eda:	f426 5680 	bic.w	r6, r6, #4096	; 0x1000
 8006ede:	e9d1 2700 	ldrd	r2, r7, [r1]
 8006ee2:	68c9      	ldr	r1, [r1, #12]
 8006ee4:	621e      	str	r6, [r3, #32]
 8006ee6:	69d8      	ldr	r0, [r3, #28]
 8006ee8:	6a1e      	ldr	r6, [r3, #32]
 8006eea:	f420 7040 	bic.w	r0, r0, #768	; 0x300
 8006eee:	ea40 2007 	orr.w	r0, r0, r7, lsl #8
 8006ef2:	0309      	lsls	r1, r1, #12
 8006ef4:	f420 4070 	bic.w	r0, r0, #61440	; 0xf000
 8006ef8:	b289      	uxth	r1, r1
 8006efa:	0312      	lsls	r2, r2, #12
 8006efc:	4301      	orrs	r1, r0
 8006efe:	f402 4220 	and.w	r2, r2, #40960	; 0xa000
 8006f02:	f426 4020 	bic.w	r0, r6, #40960	; 0xa000
 8006f06:	4302      	orrs	r2, r0
 8006f08:	61d9      	str	r1, [r3, #28]
 8006f0a:	621a      	str	r2, [r3, #32]
 8006f0c:	69da      	ldr	r2, [r3, #28]
 8006f0e:	68a1      	ldr	r1, [r4, #8]
 8006f10:	f422 6240 	bic.w	r2, r2, #3072	; 0xc00
 8006f14:	61da      	str	r2, [r3, #28]
 8006f16:	69da      	ldr	r2, [r3, #28]
 8006f18:	ea42 2201 	orr.w	r2, r2, r1, lsl #8
 8006f1c:	e7d7      	b.n	8006ece <HAL_TIM_IC_ConfigChannel+0xd2>
 8006f1e:	2002      	movs	r0, #2
 8006f20:	e78b      	b.n	8006e3a <HAL_TIM_IC_ConfigChannel+0x3e>

08006f22 <TIM_ETR_SetConfig>:
 8006f22:	b510      	push	{r4, lr}
 8006f24:	6884      	ldr	r4, [r0, #8]
 8006f26:	4311      	orrs	r1, r2
 8006f28:	f424 447f 	bic.w	r4, r4, #65280	; 0xff00
 8006f2c:	ea41 2303 	orr.w	r3, r1, r3, lsl #8
 8006f30:	4323      	orrs	r3, r4
 8006f32:	6083      	str	r3, [r0, #8]
 8006f34:	bd10      	pop	{r4, pc}

08006f36 <HAL_TIM_ConfigClockSource>:
 8006f36:	b570      	push	{r4, r5, r6, lr}
 8006f38:	f890 303c 	ldrb.w	r3, [r0, #60]	; 0x3c
 8006f3c:	2b01      	cmp	r3, #1
 8006f3e:	4604      	mov	r4, r0
 8006f40:	f04f 0302 	mov.w	r3, #2
 8006f44:	f000 8091 	beq.w	800706a <HAL_TIM_ConfigClockSource+0x134>
 8006f48:	2201      	movs	r2, #1
 8006f4a:	f880 303d 	strb.w	r3, [r0, #61]	; 0x3d
 8006f4e:	f880 203c 	strb.w	r2, [r0, #60]	; 0x3c
 8006f52:	6800      	ldr	r0, [r0, #0]
 8006f54:	6883      	ldr	r3, [r0, #8]
 8006f56:	f423 437f 	bic.w	r3, r3, #65280	; 0xff00
 8006f5a:	f023 0377 	bic.w	r3, r3, #119	; 0x77
 8006f5e:	6083      	str	r3, [r0, #8]
 8006f60:	680b      	ldr	r3, [r1, #0]
 8006f62:	2b60      	cmp	r3, #96	; 0x60
 8006f64:	d052      	beq.n	800700c <HAL_TIM_ConfigClockSource+0xd6>
 8006f66:	d833      	bhi.n	8006fd0 <HAL_TIM_ConfigClockSource+0x9a>
 8006f68:	2b40      	cmp	r3, #64	; 0x40
 8006f6a:	d067      	beq.n	800703c <HAL_TIM_ConfigClockSource+0x106>
 8006f6c:	d816      	bhi.n	8006f9c <HAL_TIM_ConfigClockSource+0x66>
 8006f6e:	2b20      	cmp	r3, #32
 8006f70:	d00d      	beq.n	8006f8e <HAL_TIM_ConfigClockSource+0x58>
 8006f72:	d80a      	bhi.n	8006f8a <HAL_TIM_ConfigClockSource+0x54>
 8006f74:	f033 0110 	bics.w	r1, r3, #16
 8006f78:	d009      	beq.n	8006f8e <HAL_TIM_ConfigClockSource+0x58>
 8006f7a:	2301      	movs	r3, #1
 8006f7c:	f884 303d 	strb.w	r3, [r4, #61]	; 0x3d
 8006f80:	2300      	movs	r3, #0
 8006f82:	f884 303c 	strb.w	r3, [r4, #60]	; 0x3c
 8006f86:	4610      	mov	r0, r2
 8006f88:	bd70      	pop	{r4, r5, r6, pc}
 8006f8a:	2b30      	cmp	r3, #48	; 0x30
 8006f8c:	d1f5      	bne.n	8006f7a <HAL_TIM_ConfigClockSource+0x44>
 8006f8e:	6882      	ldr	r2, [r0, #8]
 8006f90:	f022 0270 	bic.w	r2, r2, #112	; 0x70
 8006f94:	4313      	orrs	r3, r2
 8006f96:	f043 0307 	orr.w	r3, r3, #7
 8006f9a:	e017      	b.n	8006fcc <HAL_TIM_ConfigClockSource+0x96>
 8006f9c:	2b50      	cmp	r3, #80	; 0x50
 8006f9e:	d1ec      	bne.n	8006f7a <HAL_TIM_ConfigClockSource+0x44>
 8006fa0:	684a      	ldr	r2, [r1, #4]
 8006fa2:	68ce      	ldr	r6, [r1, #12]
 8006fa4:	6a01      	ldr	r1, [r0, #32]
 8006fa6:	6a05      	ldr	r5, [r0, #32]
 8006fa8:	f025 0501 	bic.w	r5, r5, #1
 8006fac:	6205      	str	r5, [r0, #32]
 8006fae:	6983      	ldr	r3, [r0, #24]
 8006fb0:	f021 010a 	bic.w	r1, r1, #10
 8006fb4:	f023 03f0 	bic.w	r3, r3, #240	; 0xf0
 8006fb8:	ea43 1306 	orr.w	r3, r3, r6, lsl #4
 8006fbc:	430a      	orrs	r2, r1
 8006fbe:	6183      	str	r3, [r0, #24]
 8006fc0:	6202      	str	r2, [r0, #32]
 8006fc2:	6883      	ldr	r3, [r0, #8]
 8006fc4:	f023 0370 	bic.w	r3, r3, #112	; 0x70
 8006fc8:	f043 0357 	orr.w	r3, r3, #87	; 0x57
 8006fcc:	6083      	str	r3, [r0, #8]
 8006fce:	e011      	b.n	8006ff4 <HAL_TIM_ConfigClockSource+0xbe>
 8006fd0:	f5b3 5f80 	cmp.w	r3, #4096	; 0x1000
 8006fd4:	d00e      	beq.n	8006ff4 <HAL_TIM_ConfigClockSource+0xbe>
 8006fd6:	f5b3 5f00 	cmp.w	r3, #8192	; 0x2000
 8006fda:	d00d      	beq.n	8006ff8 <HAL_TIM_ConfigClockSource+0xc2>
 8006fdc:	2b70      	cmp	r3, #112	; 0x70
 8006fde:	d1cc      	bne.n	8006f7a <HAL_TIM_ConfigClockSource+0x44>
 8006fe0:	68cb      	ldr	r3, [r1, #12]
 8006fe2:	e9d1 2101 	ldrd	r2, r1, [r1, #4]
 8006fe6:	f7ff ff9c 	bl	8006f22 <TIM_ETR_SetConfig>
 8006fea:	6822      	ldr	r2, [r4, #0]
 8006fec:	6893      	ldr	r3, [r2, #8]
 8006fee:	f043 0377 	orr.w	r3, r3, #119	; 0x77
 8006ff2:	6093      	str	r3, [r2, #8]
 8006ff4:	2200      	movs	r2, #0
 8006ff6:	e7c0      	b.n	8006f7a <HAL_TIM_ConfigClockSource+0x44>
 8006ff8:	68cb      	ldr	r3, [r1, #12]
 8006ffa:	e9d1 2101 	ldrd	r2, r1, [r1, #4]
 8006ffe:	f7ff ff90 	bl	8006f22 <TIM_ETR_SetConfig>
 8007002:	6822      	ldr	r2, [r4, #0]
 8007004:	6893      	ldr	r3, [r2, #8]
 8007006:	f443 4380 	orr.w	r3, r3, #16384	; 0x4000
 800700a:	e7f2      	b.n	8006ff2 <HAL_TIM_ConfigClockSource+0xbc>
 800700c:	684d      	ldr	r5, [r1, #4]
 800700e:	68ce      	ldr	r6, [r1, #12]
 8007010:	6a01      	ldr	r1, [r0, #32]
 8007012:	f021 0110 	bic.w	r1, r1, #16
 8007016:	6201      	str	r1, [r0, #32]
 8007018:	6982      	ldr	r2, [r0, #24]
 800701a:	6a03      	ldr	r3, [r0, #32]
 800701c:	f422 4270 	bic.w	r2, r2, #61440	; 0xf000
 8007020:	f023 03a0 	bic.w	r3, r3, #160	; 0xa0
 8007024:	ea43 1305 	orr.w	r3, r3, r5, lsl #4
 8007028:	ea42 3206 	orr.w	r2, r2, r6, lsl #12
 800702c:	6182      	str	r2, [r0, #24]
 800702e:	6203      	str	r3, [r0, #32]
 8007030:	6883      	ldr	r3, [r0, #8]
 8007032:	f023 0370 	bic.w	r3, r3, #112	; 0x70
 8007036:	f043 0367 	orr.w	r3, r3, #103	; 0x67
 800703a:	e7c7      	b.n	8006fcc <HAL_TIM_ConfigClockSource+0x96>
 800703c:	684a      	ldr	r2, [r1, #4]
 800703e:	68ce      	ldr	r6, [r1, #12]
 8007040:	6a01      	ldr	r1, [r0, #32]
 8007042:	6a05      	ldr	r5, [r0, #32]
 8007044:	f025 0501 	bic.w	r5, r5, #1
 8007048:	6205      	str	r5, [r0, #32]
 800704a:	6983      	ldr	r3, [r0, #24]
 800704c:	f021 010a 	bic.w	r1, r1, #10
 8007050:	f023 03f0 	bic.w	r3, r3, #240	; 0xf0
 8007054:	ea43 1306 	orr.w	r3, r3, r6, lsl #4
 8007058:	430a      	orrs	r2, r1
 800705a:	6183      	str	r3, [r0, #24]
 800705c:	6202      	str	r2, [r0, #32]
 800705e:	6883      	ldr	r3, [r0, #8]
 8007060:	f023 0370 	bic.w	r3, r3, #112	; 0x70
 8007064:	f043 0347 	orr.w	r3, r3, #71	; 0x47
 8007068:	e7b0      	b.n	8006fcc <HAL_TIM_ConfigClockSource+0x96>
 800706a:	461a      	mov	r2, r3
 800706c:	e78b      	b.n	8006f86 <HAL_TIM_ConfigClockSource+0x50>

0800706e <TIM_CCxChannelCmd>:
 800706e:	6a03      	ldr	r3, [r0, #32]
 8007070:	f001 011f 	and.w	r1, r1, #31
 8007074:	b510      	push	{r4, lr}
 8007076:	2401      	movs	r4, #1
 8007078:	408c      	lsls	r4, r1
 800707a:	ea23 0304 	bic.w	r3, r3, r4
 800707e:	6203      	str	r3, [r0, #32]
 8007080:	6a03      	ldr	r3, [r0, #32]
 8007082:	408a      	lsls	r2, r1
 8007084:	431a      	orrs	r2, r3
 8007086:	6202      	str	r2, [r0, #32]
 8007088:	bd10      	pop	{r4, pc}
	...

0800708c <HAL_TIM_OC_Start>:
 800708c:	b510      	push	{r4, lr}
 800708e:	4604      	mov	r4, r0
 8007090:	b929      	cbnz	r1, 800709e <HAL_TIM_OC_Start+0x12>
 8007092:	f890 303e 	ldrb.w	r3, [r0, #62]	; 0x3e
 8007096:	2b01      	cmp	r3, #1
 8007098:	d018      	beq.n	80070cc <HAL_TIM_OC_Start+0x40>
 800709a:	2001      	movs	r0, #1
 800709c:	e02d      	b.n	80070fa <HAL_TIM_OC_Start+0x6e>
 800709e:	2904      	cmp	r1, #4
 80070a0:	d10d      	bne.n	80070be <HAL_TIM_OC_Start+0x32>
 80070a2:	f890 303f 	ldrb.w	r3, [r0, #63]	; 0x3f
 80070a6:	3b01      	subs	r3, #1
 80070a8:	bf18      	it	ne
 80070aa:	2301      	movne	r3, #1
 80070ac:	2b00      	cmp	r3, #0
 80070ae:	d1f4      	bne.n	800709a <HAL_TIM_OC_Start+0xe>
 80070b0:	2904      	cmp	r1, #4
 80070b2:	f04f 0302 	mov.w	r3, #2
 80070b6:	d121      	bne.n	80070fc <HAL_TIM_OC_Start+0x70>
 80070b8:	f884 303f 	strb.w	r3, [r4, #63]	; 0x3f
 80070bc:	e009      	b.n	80070d2 <HAL_TIM_OC_Start+0x46>
 80070be:	2908      	cmp	r1, #8
 80070c0:	bf0c      	ite	eq
 80070c2:	f890 3040 	ldrbeq.w	r3, [r0, #64]	; 0x40
 80070c6:	f890 3041 	ldrbne.w	r3, [r0, #65]	; 0x41
 80070ca:	e7ec      	b.n	80070a6 <HAL_TIM_OC_Start+0x1a>
 80070cc:	2302      	movs	r3, #2
 80070ce:	f880 303e 	strb.w	r3, [r0, #62]	; 0x3e
 80070d2:	6820      	ldr	r0, [r4, #0]
 80070d4:	2201      	movs	r2, #1
 80070d6:	f7ff ffca 	bl	800706e <TIM_CCxChannelCmd>
 80070da:	6823      	ldr	r3, [r4, #0]
 80070dc:	491c      	ldr	r1, [pc, #112]	; (8007150 <HAL_TIM_OC_Start+0xc4>)
 80070de:	428b      	cmp	r3, r1
 80070e0:	d013      	beq.n	800710a <HAL_TIM_OC_Start+0x7e>
 80070e2:	4a1c      	ldr	r2, [pc, #112]	; (8007154 <HAL_TIM_OC_Start+0xc8>)
 80070e4:	4293      	cmp	r3, r2
 80070e6:	d010      	beq.n	800710a <HAL_TIM_OC_Start+0x7e>
 80070e8:	f1b3 4f80 	cmp.w	r3, #1073741824	; 0x40000000
 80070ec:	d114      	bne.n	8007118 <HAL_TIM_OC_Start+0x8c>
 80070ee:	689a      	ldr	r2, [r3, #8]
 80070f0:	f002 0207 	and.w	r2, r2, #7
 80070f4:	2a06      	cmp	r2, #6
 80070f6:	d126      	bne.n	8007146 <HAL_TIM_OC_Start+0xba>
 80070f8:	2000      	movs	r0, #0
 80070fa:	bd10      	pop	{r4, pc}
 80070fc:	2908      	cmp	r1, #8
 80070fe:	bf0c      	ite	eq
 8007100:	f884 3040 	strbeq.w	r3, [r4, #64]	; 0x40
 8007104:	f884 3041 	strbne.w	r3, [r4, #65]	; 0x41
 8007108:	e7e3      	b.n	80070d2 <HAL_TIM_OC_Start+0x46>
 800710a:	6c5a      	ldr	r2, [r3, #68]	; 0x44
 800710c:	428b      	cmp	r3, r1
 800710e:	f442 4200 	orr.w	r2, r2, #32768	; 0x8000
 8007112:	645a      	str	r2, [r3, #68]	; 0x44
 8007114:	d0eb      	beq.n	80070ee <HAL_TIM_OC_Start+0x62>
 8007116:	e7e7      	b.n	80070e8 <HAL_TIM_OC_Start+0x5c>
 8007118:	4a0f      	ldr	r2, [pc, #60]	; (8007158 <HAL_TIM_OC_Start+0xcc>)
 800711a:	4293      	cmp	r3, r2
 800711c:	d0e7      	beq.n	80070ee <HAL_TIM_OC_Start+0x62>
 800711e:	f502 6280 	add.w	r2, r2, #1024	; 0x400
 8007122:	4293      	cmp	r3, r2
 8007124:	d0e3      	beq.n	80070ee <HAL_TIM_OC_Start+0x62>
 8007126:	f502 6280 	add.w	r2, r2, #1024	; 0x400
 800712a:	4293      	cmp	r3, r2
 800712c:	d0df      	beq.n	80070ee <HAL_TIM_OC_Start+0x62>
 800712e:	f502 4278 	add.w	r2, r2, #63488	; 0xf800
 8007132:	4293      	cmp	r3, r2
 8007134:	d0db      	beq.n	80070ee <HAL_TIM_OC_Start+0x62>
 8007136:	f502 5270 	add.w	r2, r2, #15360	; 0x3c00
 800713a:	4293      	cmp	r3, r2
 800713c:	d0d7      	beq.n	80070ee <HAL_TIM_OC_Start+0x62>
 800713e:	f5a2 3294 	sub.w	r2, r2, #75776	; 0x12800
 8007142:	4293      	cmp	r3, r2
 8007144:	d0d3      	beq.n	80070ee <HAL_TIM_OC_Start+0x62>
 8007146:	681a      	ldr	r2, [r3, #0]
 8007148:	f042 0201 	orr.w	r2, r2, #1
 800714c:	601a      	str	r2, [r3, #0]
 800714e:	e7d3      	b.n	80070f8 <HAL_TIM_OC_Start+0x6c>
 8007150:	40010000 	.word	0x40010000
 8007154:	40010400 	.word	0x40010400
 8007158:	40000400 	.word	0x40000400

0800715c <HAL_TIM_PWM_Start>:
 800715c:	f7ff bf96 	b.w	800708c <HAL_TIM_OC_Start>

08007160 <HAL_TIM_IC_Start_IT>:
 8007160:	b510      	push	{r4, lr}
 8007162:	4604      	mov	r4, r0
 8007164:	2900      	cmp	r1, #0
 8007166:	d143      	bne.n	80071f0 <HAL_TIM_IC_Start_IT+0x90>
 8007168:	f890 303e 	ldrb.w	r3, [r0, #62]	; 0x3e
 800716c:	f890 0042 	ldrb.w	r0, [r0, #66]	; 0x42
 8007170:	b2db      	uxtb	r3, r3
 8007172:	2b01      	cmp	r3, #1
 8007174:	b2c0      	uxtb	r0, r0
 8007176:	d172      	bne.n	800725e <HAL_TIM_IC_Start_IT+0xfe>
 8007178:	2801      	cmp	r0, #1
 800717a:	d170      	bne.n	800725e <HAL_TIM_IC_Start_IT+0xfe>
 800717c:	2302      	movs	r3, #2
 800717e:	2900      	cmp	r1, #0
 8007180:	d14c      	bne.n	800721c <HAL_TIM_IC_Start_IT+0xbc>
 8007182:	6822      	ldr	r2, [r4, #0]
 8007184:	f884 303e 	strb.w	r3, [r4, #62]	; 0x3e
 8007188:	f884 3042 	strb.w	r3, [r4, #66]	; 0x42
 800718c:	68d3      	ldr	r3, [r2, #12]
 800718e:	f043 0302 	orr.w	r3, r3, #2
 8007192:	60d3      	str	r3, [r2, #12]
 8007194:	6820      	ldr	r0, [r4, #0]
 8007196:	2201      	movs	r2, #1
 8007198:	f7ff ff69 	bl	800706e <TIM_CCxChannelCmd>
 800719c:	6823      	ldr	r3, [r4, #0]
 800719e:	4a31      	ldr	r2, [pc, #196]	; (8007264 <HAL_TIM_IC_Start_IT+0x104>)
 80071a0:	4293      	cmp	r3, r2
 80071a2:	d01a      	beq.n	80071da <HAL_TIM_IC_Start_IT+0x7a>
 80071a4:	f1b3 4f80 	cmp.w	r3, #1073741824	; 0x40000000
 80071a8:	d017      	beq.n	80071da <HAL_TIM_IC_Start_IT+0x7a>
 80071aa:	f5a2 427c 	sub.w	r2, r2, #64512	; 0xfc00
 80071ae:	4293      	cmp	r3, r2
 80071b0:	d013      	beq.n	80071da <HAL_TIM_IC_Start_IT+0x7a>
 80071b2:	f502 6280 	add.w	r2, r2, #1024	; 0x400
 80071b6:	4293      	cmp	r3, r2
 80071b8:	d00f      	beq.n	80071da <HAL_TIM_IC_Start_IT+0x7a>
 80071ba:	f502 6280 	add.w	r2, r2, #1024	; 0x400
 80071be:	4293      	cmp	r3, r2
 80071c0:	d00b      	beq.n	80071da <HAL_TIM_IC_Start_IT+0x7a>
 80071c2:	f502 4278 	add.w	r2, r2, #63488	; 0xf800
 80071c6:	4293      	cmp	r3, r2
 80071c8:	d007      	beq.n	80071da <HAL_TIM_IC_Start_IT+0x7a>
 80071ca:	f502 5270 	add.w	r2, r2, #15360	; 0x3c00
 80071ce:	4293      	cmp	r3, r2
 80071d0:	d003      	beq.n	80071da <HAL_TIM_IC_Start_IT+0x7a>
 80071d2:	f5a2 3294 	sub.w	r2, r2, #75776	; 0x12800
 80071d6:	4293      	cmp	r3, r2
 80071d8:	d104      	bne.n	80071e4 <HAL_TIM_IC_Start_IT+0x84>
 80071da:	689a      	ldr	r2, [r3, #8]
 80071dc:	f002 0207 	and.w	r2, r2, #7
 80071e0:	2a06      	cmp	r2, #6
 80071e2:	d003      	beq.n	80071ec <HAL_TIM_IC_Start_IT+0x8c>
 80071e4:	681a      	ldr	r2, [r3, #0]
 80071e6:	f042 0201 	orr.w	r2, r2, #1
 80071ea:	601a      	str	r2, [r3, #0]
 80071ec:	2000      	movs	r0, #0
 80071ee:	e037      	b.n	8007260 <HAL_TIM_IC_Start_IT+0x100>
 80071f0:	2904      	cmp	r1, #4
 80071f2:	d105      	bne.n	8007200 <HAL_TIM_IC_Start_IT+0xa0>
 80071f4:	f890 303f 	ldrb.w	r3, [r0, #63]	; 0x3f
 80071f8:	f890 0043 	ldrb.w	r0, [r0, #67]	; 0x43
 80071fc:	b2db      	uxtb	r3, r3
 80071fe:	e7b8      	b.n	8007172 <HAL_TIM_IC_Start_IT+0x12>
 8007200:	2908      	cmp	r1, #8
 8007202:	bf0b      	itete	eq
 8007204:	f890 3040 	ldrbeq.w	r3, [r0, #64]	; 0x40
 8007208:	f894 3041 	ldrbne.w	r3, [r4, #65]	; 0x41
 800720c:	f890 0044 	ldrbeq.w	r0, [r0, #68]	; 0x44
 8007210:	f894 0045 	ldrbne.w	r0, [r4, #69]	; 0x45
 8007214:	bf0c      	ite	eq
 8007216:	b2db      	uxtbeq	r3, r3
 8007218:	b2db      	uxtbne	r3, r3
 800721a:	e7aa      	b.n	8007172 <HAL_TIM_IC_Start_IT+0x12>
 800721c:	2904      	cmp	r1, #4
 800721e:	d108      	bne.n	8007232 <HAL_TIM_IC_Start_IT+0xd2>
 8007220:	6822      	ldr	r2, [r4, #0]
 8007222:	f884 303f 	strb.w	r3, [r4, #63]	; 0x3f
 8007226:	f884 3043 	strb.w	r3, [r4, #67]	; 0x43
 800722a:	68d3      	ldr	r3, [r2, #12]
 800722c:	f043 0304 	orr.w	r3, r3, #4
 8007230:	e7af      	b.n	8007192 <HAL_TIM_IC_Start_IT+0x32>
 8007232:	2908      	cmp	r1, #8
 8007234:	d108      	bne.n	8007248 <HAL_TIM_IC_Start_IT+0xe8>
 8007236:	6822      	ldr	r2, [r4, #0]
 8007238:	f884 3040 	strb.w	r3, [r4, #64]	; 0x40
 800723c:	f884 3044 	strb.w	r3, [r4, #68]	; 0x44
 8007240:	68d3      	ldr	r3, [r2, #12]
 8007242:	f043 0308 	orr.w	r3, r3, #8
 8007246:	e7a4      	b.n	8007192 <HAL_TIM_IC_Start_IT+0x32>
 8007248:	290c      	cmp	r1, #12
 800724a:	f884 3041 	strb.w	r3, [r4, #65]	; 0x41
 800724e:	f884 3045 	strb.w	r3, [r4, #69]	; 0x45
 8007252:	d105      	bne.n	8007260 <HAL_TIM_IC_Start_IT+0x100>
 8007254:	6822      	ldr	r2, [r4, #0]
 8007256:	68d3      	ldr	r3, [r2, #12]
 8007258:	f043 0310 	orr.w	r3, r3, #16
 800725c:	e799      	b.n	8007192 <HAL_TIM_IC_Start_IT+0x32>
 800725e:	2001      	movs	r0, #1
 8007260:	bd10      	pop	{r4, pc}
 8007262:	bf00      	nop
 8007264:	40010000 	.word	0x40010000

08007268 <HAL_TIMEx_MasterConfigSynchronization>:
 8007268:	b530      	push	{r4, r5, lr}
 800726a:	f890 303c 	ldrb.w	r3, [r0, #60]	; 0x3c
 800726e:	2b01      	cmp	r3, #1
 8007270:	f04f 0302 	mov.w	r3, #2
 8007274:	d032      	beq.n	80072dc <HAL_TIMEx_MasterConfigSynchronization+0x74>
 8007276:	f880 303d 	strb.w	r3, [r0, #61]	; 0x3d
 800727a:	6803      	ldr	r3, [r0, #0]
 800727c:	680d      	ldr	r5, [r1, #0]
 800727e:	685c      	ldr	r4, [r3, #4]
 8007280:	689a      	ldr	r2, [r3, #8]
 8007282:	f024 0470 	bic.w	r4, r4, #112	; 0x70
 8007286:	432c      	orrs	r4, r5
 8007288:	605c      	str	r4, [r3, #4]
 800728a:	4c15      	ldr	r4, [pc, #84]	; (80072e0 <HAL_TIMEx_MasterConfigSynchronization+0x78>)
 800728c:	42a3      	cmp	r3, r4
 800728e:	d01a      	beq.n	80072c6 <HAL_TIMEx_MasterConfigSynchronization+0x5e>
 8007290:	f1b3 4f80 	cmp.w	r3, #1073741824	; 0x40000000
 8007294:	d017      	beq.n	80072c6 <HAL_TIMEx_MasterConfigSynchronization+0x5e>
 8007296:	f5a4 447c 	sub.w	r4, r4, #64512	; 0xfc00
 800729a:	42a3      	cmp	r3, r4
 800729c:	d013      	beq.n	80072c6 <HAL_TIMEx_MasterConfigSynchronization+0x5e>
 800729e:	f504 6480 	add.w	r4, r4, #1024	; 0x400
 80072a2:	42a3      	cmp	r3, r4
 80072a4:	d00f      	beq.n	80072c6 <HAL_TIMEx_MasterConfigSynchronization+0x5e>
 80072a6:	f504 6480 	add.w	r4, r4, #1024	; 0x400
 80072aa:	42a3      	cmp	r3, r4
 80072ac:	d00b      	beq.n	80072c6 <HAL_TIMEx_MasterConfigSynchronization+0x5e>
 80072ae:	f504 4478 	add.w	r4, r4, #63488	; 0xf800
 80072b2:	42a3      	cmp	r3, r4
 80072b4:	d007      	beq.n	80072c6 <HAL_TIMEx_MasterConfigSynchronization+0x5e>
 80072b6:	f504 5470 	add.w	r4, r4, #15360	; 0x3c00
 80072ba:	42a3      	cmp	r3, r4
 80072bc:	d003      	beq.n	80072c6 <HAL_TIMEx_MasterConfigSynchronization+0x5e>
 80072be:	f5a4 3494 	sub.w	r4, r4, #75776	; 0x12800
 80072c2:	42a3      	cmp	r3, r4
 80072c4:	d104      	bne.n	80072d0 <HAL_TIMEx_MasterConfigSynchronization+0x68>
 80072c6:	6849      	ldr	r1, [r1, #4]
 80072c8:	f022 0280 	bic.w	r2, r2, #128	; 0x80
 80072cc:	430a      	orrs	r2, r1
 80072ce:	609a      	str	r2, [r3, #8]
 80072d0:	2301      	movs	r3, #1
 80072d2:	f880 303d 	strb.w	r3, [r0, #61]	; 0x3d
 80072d6:	2300      	movs	r3, #0
 80072d8:	f880 303c 	strb.w	r3, [r0, #60]	; 0x3c
 80072dc:	4618      	mov	r0, r3
 80072de:	bd30      	pop	{r4, r5, pc}
 80072e0:	40010000 	.word	0x40010000

080072e4 <HAL_TIMEx_ConfigBreakDeadTime>:
 80072e4:	f890 303c 	ldrb.w	r3, [r0, #60]	; 0x3c
 80072e8:	2b01      	cmp	r3, #1
 80072ea:	d01f      	beq.n	800732c <HAL_TIMEx_ConfigBreakDeadTime+0x48>
 80072ec:	68cb      	ldr	r3, [r1, #12]
 80072ee:	688a      	ldr	r2, [r1, #8]
 80072f0:	f423 7340 	bic.w	r3, r3, #768	; 0x300
 80072f4:	4313      	orrs	r3, r2
 80072f6:	684a      	ldr	r2, [r1, #4]
 80072f8:	f423 6380 	bic.w	r3, r3, #1024	; 0x400
 80072fc:	4313      	orrs	r3, r2
 80072fe:	680a      	ldr	r2, [r1, #0]
 8007300:	f423 6300 	bic.w	r3, r3, #2048	; 0x800
 8007304:	4313      	orrs	r3, r2
 8007306:	690a      	ldr	r2, [r1, #16]
 8007308:	f423 5380 	bic.w	r3, r3, #4096	; 0x1000
 800730c:	4313      	orrs	r3, r2
 800730e:	694a      	ldr	r2, [r1, #20]
 8007310:	f423 5300 	bic.w	r3, r3, #8192	; 0x2000
 8007314:	4313      	orrs	r3, r2
 8007316:	69ca      	ldr	r2, [r1, #28]
 8007318:	f423 4380 	bic.w	r3, r3, #16384	; 0x4000
 800731c:	4313      	orrs	r3, r2
 800731e:	6802      	ldr	r2, [r0, #0]
 8007320:	6453      	str	r3, [r2, #68]	; 0x44
 8007322:	2300      	movs	r3, #0
 8007324:	f880 303c 	strb.w	r3, [r0, #60]	; 0x3c
 8007328:	4618      	mov	r0, r3
 800732a:	4770      	bx	lr
 800732c:	2002      	movs	r0, #2
 800732e:	4770      	bx	lr

08007330 <HAL_TIMEx_CommutCallback>:
 8007330:	4770      	bx	lr

08007332 <HAL_TIMEx_BreakCallback>:
 8007332:	4770      	bx	lr

08007334 <UART_EndRxTransfer>:
 8007334:	6802      	ldr	r2, [r0, #0]
 8007336:	f102 030c 	add.w	r3, r2, #12
 800733a:	e853 3f00 	ldrex	r3, [r3]
 800733e:	f423 7390 	bic.w	r3, r3, #288	; 0x120
 8007342:	320c      	adds	r2, #12
 8007344:	e842 3100 	strex	r1, r3, [r2]
 8007348:	6802      	ldr	r2, [r0, #0]
 800734a:	2900      	cmp	r1, #0
 800734c:	d1f2      	bne.n	8007334 <UART_EndRxTransfer>
 800734e:	f102 0314 	add.w	r3, r2, #20
 8007352:	e853 3f00 	ldrex	r3, [r3]
 8007356:	f023 0301 	bic.w	r3, r3, #1
 800735a:	f102 0c14 	add.w	ip, r2, #20
 800735e:	e84c 3100 	strex	r1, r3, [ip]
 8007362:	2900      	cmp	r1, #0
 8007364:	d1f3      	bne.n	800734e <UART_EndRxTransfer+0x1a>
 8007366:	6b03      	ldr	r3, [r0, #48]	; 0x30
 8007368:	2b01      	cmp	r3, #1
 800736a:	d10b      	bne.n	8007384 <UART_EndRxTransfer+0x50>
 800736c:	f102 030c 	add.w	r3, r2, #12
 8007370:	e853 3f00 	ldrex	r3, [r3]
 8007374:	f023 0310 	bic.w	r3, r3, #16
 8007378:	f102 0c0c 	add.w	ip, r2, #12
 800737c:	e84c 3100 	strex	r1, r3, [ip]
 8007380:	2900      	cmp	r1, #0
 8007382:	d1f3      	bne.n	800736c <UART_EndRxTransfer+0x38>
 8007384:	2320      	movs	r3, #32
 8007386:	f880 303e 	strb.w	r3, [r0, #62]	; 0x3e
 800738a:	2300      	movs	r3, #0
 800738c:	6303      	str	r3, [r0, #48]	; 0x30
 800738e:	4770      	bx	lr

08007390 <UART_SetConfig>:
 8007390:	6802      	ldr	r2, [r0, #0]
 8007392:	68c1      	ldr	r1, [r0, #12]
 8007394:	6913      	ldr	r3, [r2, #16]
 8007396:	f423 5340 	bic.w	r3, r3, #12288	; 0x3000
 800739a:	430b      	orrs	r3, r1
 800739c:	b570      	push	{r4, r5, r6, lr}
 800739e:	6113      	str	r3, [r2, #16]
 80073a0:	4605      	mov	r5, r0
 80073a2:	6883      	ldr	r3, [r0, #8]
 80073a4:	6900      	ldr	r0, [r0, #16]
 80073a6:	68d1      	ldr	r1, [r2, #12]
 80073a8:	4303      	orrs	r3, r0
 80073aa:	6968      	ldr	r0, [r5, #20]
 80073ac:	4303      	orrs	r3, r0
 80073ae:	69e8      	ldr	r0, [r5, #28]
 80073b0:	f421 4116 	bic.w	r1, r1, #38400	; 0x9600
 80073b4:	f021 010c 	bic.w	r1, r1, #12
 80073b8:	4303      	orrs	r3, r0
 80073ba:	430b      	orrs	r3, r1
 80073bc:	60d3      	str	r3, [r2, #12]
 80073be:	6953      	ldr	r3, [r2, #20]
 80073c0:	69a9      	ldr	r1, [r5, #24]
 80073c2:	f423 7340 	bic.w	r3, r3, #768	; 0x300
 80073c6:	430b      	orrs	r3, r1
 80073c8:	6153      	str	r3, [r2, #20]
 80073ca:	4b1f      	ldr	r3, [pc, #124]	; (8007448 <UART_SetConfig+0xb8>)
 80073cc:	429a      	cmp	r2, r3
 80073ce:	d003      	beq.n	80073d8 <UART_SetConfig+0x48>
 80073d0:	f503 6380 	add.w	r3, r3, #1024	; 0x400
 80073d4:	429a      	cmp	r2, r3
 80073d6:	d123      	bne.n	8007420 <UART_SetConfig+0x90>
 80073d8:	f7ff f94e 	bl	8006678 <HAL_RCC_GetPCLK2Freq>
 80073dc:	69eb      	ldr	r3, [r5, #28]
 80073de:	2119      	movs	r1, #25
 80073e0:	f5b3 4f00 	cmp.w	r3, #32768	; 0x8000
 80073e4:	e9d5 4600 	ldrd	r4, r6, [r5]
 80073e8:	fba0 0101 	umull	r0, r1, r0, r1
 80073ec:	d11b      	bne.n	8007426 <UART_SetConfig+0x96>
 80073ee:	19b2      	adds	r2, r6, r6
 80073f0:	f04f 0300 	mov.w	r3, #0
 80073f4:	415b      	adcs	r3, r3
 80073f6:	f7f9 fc47 	bl	8000c88 <__aeabi_uldivmod>
 80073fa:	2164      	movs	r1, #100	; 0x64
 80073fc:	fbb0 f5f1 	udiv	r5, r0, r1
 8007400:	fb01 0315 	mls	r3, r1, r5, r0
 8007404:	00db      	lsls	r3, r3, #3
 8007406:	3332      	adds	r3, #50	; 0x32
 8007408:	fbb3 f3f1 	udiv	r3, r3, r1
 800740c:	f003 0207 	and.w	r2, r3, #7
 8007410:	005b      	lsls	r3, r3, #1
 8007412:	eb02 1205 	add.w	r2, r2, r5, lsl #4
 8007416:	f403 73f8 	and.w	r3, r3, #496	; 0x1f0
 800741a:	4413      	add	r3, r2
 800741c:	60a3      	str	r3, [r4, #8]
 800741e:	bd70      	pop	{r4, r5, r6, pc}
 8007420:	f7ff f91a 	bl	8006658 <HAL_RCC_GetPCLK1Freq>
 8007424:	e7da      	b.n	80073dc <UART_SetConfig+0x4c>
 8007426:	00b2      	lsls	r2, r6, #2
 8007428:	0fb3      	lsrs	r3, r6, #30
 800742a:	f7f9 fc2d 	bl	8000c88 <__aeabi_uldivmod>
 800742e:	2264      	movs	r2, #100	; 0x64
 8007430:	fbb0 f1f2 	udiv	r1, r0, r2
 8007434:	fb02 0311 	mls	r3, r2, r1, r0
 8007438:	011b      	lsls	r3, r3, #4
 800743a:	3332      	adds	r3, #50	; 0x32
 800743c:	fbb3 f3f2 	udiv	r3, r3, r2
 8007440:	eb03 1301 	add.w	r3, r3, r1, lsl #4
 8007444:	e7ea      	b.n	800741c <UART_SetConfig+0x8c>
 8007446:	bf00      	nop
 8007448:	40011000 	.word	0x40011000

0800744c <UART_WaitOnFlagUntilTimeout.constprop.0>:
 800744c:	b5f8      	push	{r3, r4, r5, r6, r7, lr}
 800744e:	4604      	mov	r4, r0
 8007450:	460e      	mov	r6, r1
 8007452:	4617      	mov	r7, r2
 8007454:	461d      	mov	r5, r3
 8007456:	6822      	ldr	r2, [r4, #0]
 8007458:	6813      	ldr	r3, [r2, #0]
 800745a:	ea36 0303 	bics.w	r3, r6, r3
 800745e:	d101      	bne.n	8007464 <UART_WaitOnFlagUntilTimeout.constprop.0+0x18>
 8007460:	2000      	movs	r0, #0
 8007462:	e028      	b.n	80074b6 <UART_WaitOnFlagUntilTimeout.constprop.0+0x6a>
 8007464:	1c6b      	adds	r3, r5, #1
 8007466:	d0f7      	beq.n	8007458 <UART_WaitOnFlagUntilTimeout.constprop.0+0xc>
 8007468:	b125      	cbz	r5, 8007474 <UART_WaitOnFlagUntilTimeout.constprop.0+0x28>
 800746a:	f7fd fb13 	bl	8004a94 <HAL_GetTick>
 800746e:	1bc0      	subs	r0, r0, r7
 8007470:	4285      	cmp	r5, r0
 8007472:	d2f0      	bcs.n	8007456 <UART_WaitOnFlagUntilTimeout.constprop.0+0xa>
 8007474:	6822      	ldr	r2, [r4, #0]
 8007476:	f102 030c 	add.w	r3, r2, #12
 800747a:	e853 3f00 	ldrex	r3, [r3]
 800747e:	f423 73d0 	bic.w	r3, r3, #416	; 0x1a0
 8007482:	320c      	adds	r2, #12
 8007484:	e842 3000 	strex	r0, r3, [r2]
 8007488:	6821      	ldr	r1, [r4, #0]
 800748a:	2800      	cmp	r0, #0
 800748c:	d1f2      	bne.n	8007474 <UART_WaitOnFlagUntilTimeout.constprop.0+0x28>
 800748e:	f101 0314 	add.w	r3, r1, #20
 8007492:	e853 3f00 	ldrex	r3, [r3]
 8007496:	f023 0301 	bic.w	r3, r3, #1
 800749a:	f101 0014 	add.w	r0, r1, #20
 800749e:	e840 3200 	strex	r2, r3, [r0]
 80074a2:	2a00      	cmp	r2, #0
 80074a4:	d1f3      	bne.n	800748e <UART_WaitOnFlagUntilTimeout.constprop.0+0x42>
 80074a6:	2320      	movs	r3, #32
 80074a8:	f884 303d 	strb.w	r3, [r4, #61]	; 0x3d
 80074ac:	f884 203c 	strb.w	r2, [r4, #60]	; 0x3c
 80074b0:	f884 303e 	strb.w	r3, [r4, #62]	; 0x3e
 80074b4:	2003      	movs	r0, #3
 80074b6:	bdf8      	pop	{r3, r4, r5, r6, r7, pc}

080074b8 <HAL_UART_Init>:
 80074b8:	b510      	push	{r4, lr}
 80074ba:	4604      	mov	r4, r0
 80074bc:	b340      	cbz	r0, 8007510 <HAL_UART_Init+0x58>
 80074be:	f890 303d 	ldrb.w	r3, [r0, #61]	; 0x3d
 80074c2:	f003 02ff 	and.w	r2, r3, #255	; 0xff
 80074c6:	b91b      	cbnz	r3, 80074d0 <HAL_UART_Init+0x18>
 80074c8:	f880 203c 	strb.w	r2, [r0, #60]	; 0x3c
 80074cc:	f7fd f9aa 	bl	8004824 <HAL_UART_MspInit>
 80074d0:	6822      	ldr	r2, [r4, #0]
 80074d2:	2324      	movs	r3, #36	; 0x24
 80074d4:	f884 303d 	strb.w	r3, [r4, #61]	; 0x3d
 80074d8:	68d3      	ldr	r3, [r2, #12]
 80074da:	f423 5300 	bic.w	r3, r3, #8192	; 0x2000
 80074de:	60d3      	str	r3, [r2, #12]
 80074e0:	4620      	mov	r0, r4
 80074e2:	f7ff ff55 	bl	8007390 <UART_SetConfig>
 80074e6:	6823      	ldr	r3, [r4, #0]
 80074e8:	691a      	ldr	r2, [r3, #16]
 80074ea:	f422 4290 	bic.w	r2, r2, #18432	; 0x4800
 80074ee:	611a      	str	r2, [r3, #16]
 80074f0:	695a      	ldr	r2, [r3, #20]
 80074f2:	f022 022a 	bic.w	r2, r2, #42	; 0x2a
 80074f6:	615a      	str	r2, [r3, #20]
 80074f8:	68da      	ldr	r2, [r3, #12]
 80074fa:	f442 5200 	orr.w	r2, r2, #8192	; 0x2000
 80074fe:	60da      	str	r2, [r3, #12]
 8007500:	2000      	movs	r0, #0
 8007502:	2320      	movs	r3, #32
 8007504:	6420      	str	r0, [r4, #64]	; 0x40
 8007506:	f884 303d 	strb.w	r3, [r4, #61]	; 0x3d
 800750a:	f884 303e 	strb.w	r3, [r4, #62]	; 0x3e
 800750e:	bd10      	pop	{r4, pc}
 8007510:	2001      	movs	r0, #1
 8007512:	e7fc      	b.n	800750e <HAL_UART_Init+0x56>

08007514 <HAL_UART_Transmit>:
 8007514:	b5f7      	push	{r0, r1, r2, r4, r5, r6, r7, lr}
 8007516:	4617      	mov	r7, r2
 8007518:	f890 203d 	ldrb.w	r2, [r0, #61]	; 0x3d
 800751c:	9300      	str	r3, [sp, #0]
 800751e:	2a20      	cmp	r2, #32
 8007520:	4604      	mov	r4, r0
 8007522:	460e      	mov	r6, r1
 8007524:	d149      	bne.n	80075ba <HAL_UART_Transmit+0xa6>
 8007526:	2900      	cmp	r1, #0
 8007528:	d045      	beq.n	80075b6 <HAL_UART_Transmit+0xa2>
 800752a:	2f00      	cmp	r7, #0
 800752c:	d043      	beq.n	80075b6 <HAL_UART_Transmit+0xa2>
 800752e:	f890 203c 	ldrb.w	r2, [r0, #60]	; 0x3c
 8007532:	2a01      	cmp	r2, #1
 8007534:	d041      	beq.n	80075ba <HAL_UART_Transmit+0xa6>
 8007536:	2201      	movs	r2, #1
 8007538:	f880 203c 	strb.w	r2, [r0, #60]	; 0x3c
 800753c:	2500      	movs	r5, #0
 800753e:	2221      	movs	r2, #33	; 0x21
 8007540:	6405      	str	r5, [r0, #64]	; 0x40
 8007542:	f880 203d 	strb.w	r2, [r0, #61]	; 0x3d
 8007546:	f7fd faa5 	bl	8004a94 <HAL_GetTick>
 800754a:	68a1      	ldr	r1, [r4, #8]
 800754c:	9b00      	ldr	r3, [sp, #0]
 800754e:	84a7      	strh	r7, [r4, #36]	; 0x24
 8007550:	f5b1 5f80 	cmp.w	r1, #4096	; 0x1000
 8007554:	4602      	mov	r2, r0
 8007556:	84e7      	strh	r7, [r4, #38]	; 0x26
 8007558:	d103      	bne.n	8007562 <HAL_UART_Transmit+0x4e>
 800755a:	6921      	ldr	r1, [r4, #16]
 800755c:	b909      	cbnz	r1, 8007562 <HAL_UART_Transmit+0x4e>
 800755e:	4635      	mov	r5, r6
 8007560:	460e      	mov	r6, r1
 8007562:	2100      	movs	r1, #0
 8007564:	f884 103c 	strb.w	r1, [r4, #60]	; 0x3c
 8007568:	8ce1      	ldrh	r1, [r4, #38]	; 0x26
 800756a:	b289      	uxth	r1, r1
 800756c:	b941      	cbnz	r1, 8007580 <HAL_UART_Transmit+0x6c>
 800756e:	2140      	movs	r1, #64	; 0x40
 8007570:	4620      	mov	r0, r4
 8007572:	f7ff ff6b 	bl	800744c <UART_WaitOnFlagUntilTimeout.constprop.0>
 8007576:	b960      	cbnz	r0, 8007592 <HAL_UART_Transmit+0x7e>
 8007578:	2320      	movs	r3, #32
 800757a:	f884 303d 	strb.w	r3, [r4, #61]	; 0x3d
 800757e:	e009      	b.n	8007594 <HAL_UART_Transmit+0x80>
 8007580:	2180      	movs	r1, #128	; 0x80
 8007582:	4620      	mov	r0, r4
 8007584:	e9cd 2300 	strd	r2, r3, [sp]
 8007588:	f7ff ff60 	bl	800744c <UART_WaitOnFlagUntilTimeout.constprop.0>
 800758c:	e9dd 2300 	ldrd	r2, r3, [sp]
 8007590:	b110      	cbz	r0, 8007598 <HAL_UART_Transmit+0x84>
 8007592:	2003      	movs	r0, #3
 8007594:	b003      	add	sp, #12
 8007596:	bdf0      	pop	{r4, r5, r6, r7, pc}
 8007598:	6820      	ldr	r0, [r4, #0]
 800759a:	b94e      	cbnz	r6, 80075b0 <HAL_UART_Transmit+0x9c>
 800759c:	f835 1b02 	ldrh.w	r1, [r5], #2
 80075a0:	f3c1 0108 	ubfx	r1, r1, #0, #9
 80075a4:	6041      	str	r1, [r0, #4]
 80075a6:	8ce1      	ldrh	r1, [r4, #38]	; 0x26
 80075a8:	3901      	subs	r1, #1
 80075aa:	b289      	uxth	r1, r1
 80075ac:	84e1      	strh	r1, [r4, #38]	; 0x26
 80075ae:	e7db      	b.n	8007568 <HAL_UART_Transmit+0x54>
 80075b0:	f816 1b01 	ldrb.w	r1, [r6], #1
 80075b4:	e7f6      	b.n	80075a4 <HAL_UART_Transmit+0x90>
 80075b6:	2001      	movs	r0, #1
 80075b8:	e7ec      	b.n	8007594 <HAL_UART_Transmit+0x80>
 80075ba:	2002      	movs	r0, #2
 80075bc:	e7ea      	b.n	8007594 <HAL_UART_Transmit+0x80>

080075be <HAL_UART_TxCpltCallback>:
 80075be:	4770      	bx	lr

080075c0 <HAL_UART_ErrorCallback>:
 80075c0:	4770      	bx	lr

080075c2 <UART_DMAAbortOnError>:
 80075c2:	b508      	push	{r3, lr}
 80075c4:	6b80      	ldr	r0, [r0, #56]	; 0x38
 80075c6:	2300      	movs	r3, #0
 80075c8:	85c3      	strh	r3, [r0, #46]	; 0x2e
 80075ca:	84c3      	strh	r3, [r0, #38]	; 0x26
 80075cc:	f7ff fff8 	bl	80075c0 <HAL_UART_ErrorCallback>
 80075d0:	bd08      	pop	{r3, pc}

080075d2 <HAL_UARTEx_RxEventCallback>:
 80075d2:	4770      	bx	lr

080075d4 <UART_Receive_IT.part.0.isra.0>:
 80075d4:	b507      	push	{r0, r1, r2, lr}
 80075d6:	6881      	ldr	r1, [r0, #8]
 80075d8:	6a83      	ldr	r3, [r0, #40]	; 0x28
 80075da:	6802      	ldr	r2, [r0, #0]
 80075dc:	f5b1 5f80 	cmp.w	r1, #4096	; 0x1000
 80075e0:	d13e      	bne.n	8007660 <UART_Receive_IT.part.0.isra.0+0x8c>
 80075e2:	6901      	ldr	r1, [r0, #16]
 80075e4:	2900      	cmp	r1, #0
 80075e6:	d13e      	bne.n	8007666 <UART_Receive_IT.part.0.isra.0+0x92>
 80075e8:	6852      	ldr	r2, [r2, #4]
 80075ea:	f3c2 0208 	ubfx	r2, r2, #0, #9
 80075ee:	f823 2b02 	strh.w	r2, [r3], #2
 80075f2:	6283      	str	r3, [r0, #40]	; 0x28
 80075f4:	8dc3      	ldrh	r3, [r0, #46]	; 0x2e
 80075f6:	3b01      	subs	r3, #1
 80075f8:	b29b      	uxth	r3, r3
 80075fa:	85c3      	strh	r3, [r0, #46]	; 0x2e
 80075fc:	2b00      	cmp	r3, #0
 80075fe:	d12c      	bne.n	800765a <UART_Receive_IT.part.0.isra.0+0x86>
 8007600:	6802      	ldr	r2, [r0, #0]
 8007602:	68d1      	ldr	r1, [r2, #12]
 8007604:	f021 0120 	bic.w	r1, r1, #32
 8007608:	60d1      	str	r1, [r2, #12]
 800760a:	68d1      	ldr	r1, [r2, #12]
 800760c:	f421 7180 	bic.w	r1, r1, #256	; 0x100
 8007610:	60d1      	str	r1, [r2, #12]
 8007612:	6951      	ldr	r1, [r2, #20]
 8007614:	f021 0101 	bic.w	r1, r1, #1
 8007618:	6151      	str	r1, [r2, #20]
 800761a:	2220      	movs	r2, #32
 800761c:	f880 203e 	strb.w	r2, [r0, #62]	; 0x3e
 8007620:	6b02      	ldr	r2, [r0, #48]	; 0x30
 8007622:	2a01      	cmp	r2, #1
 8007624:	6802      	ldr	r2, [r0, #0]
 8007626:	d128      	bne.n	800767a <UART_Receive_IT.part.0.isra.0+0xa6>
 8007628:	6303      	str	r3, [r0, #48]	; 0x30
 800762a:	f102 030c 	add.w	r3, r2, #12
 800762e:	e853 3f00 	ldrex	r3, [r3]
 8007632:	f023 0310 	bic.w	r3, r3, #16
 8007636:	f102 0c0c 	add.w	ip, r2, #12
 800763a:	e84c 3100 	strex	r1, r3, [ip]
 800763e:	2900      	cmp	r1, #0
 8007640:	d1f3      	bne.n	800762a <UART_Receive_IT.part.0.isra.0+0x56>
 8007642:	6813      	ldr	r3, [r2, #0]
 8007644:	06db      	lsls	r3, r3, #27
 8007646:	d505      	bpl.n	8007654 <UART_Receive_IT.part.0.isra.0+0x80>
 8007648:	9101      	str	r1, [sp, #4]
 800764a:	6813      	ldr	r3, [r2, #0]
 800764c:	9301      	str	r3, [sp, #4]
 800764e:	6853      	ldr	r3, [r2, #4]
 8007650:	9301      	str	r3, [sp, #4]
 8007652:	9b01      	ldr	r3, [sp, #4]
 8007654:	8d81      	ldrh	r1, [r0, #44]	; 0x2c
 8007656:	f7ff ffbc 	bl	80075d2 <HAL_UARTEx_RxEventCallback>
 800765a:	b003      	add	sp, #12
 800765c:	f85d fb04 	ldr.w	pc, [sp], #4
 8007660:	b939      	cbnz	r1, 8007672 <UART_Receive_IT.part.0.isra.0+0x9e>
 8007662:	6901      	ldr	r1, [r0, #16]
 8007664:	b929      	cbnz	r1, 8007672 <UART_Receive_IT.part.0.isra.0+0x9e>
 8007666:	6852      	ldr	r2, [r2, #4]
 8007668:	b2d2      	uxtb	r2, r2
 800766a:	701a      	strb	r2, [r3, #0]
 800766c:	6a83      	ldr	r3, [r0, #40]	; 0x28
 800766e:	3301      	adds	r3, #1
 8007670:	e7bf      	b.n	80075f2 <UART_Receive_IT.part.0.isra.0+0x1e>
 8007672:	6852      	ldr	r2, [r2, #4]
 8007674:	f002 027f 	and.w	r2, r2, #127	; 0x7f
 8007678:	e7f7      	b.n	800766a <UART_Receive_IT.part.0.isra.0+0x96>
 800767a:	f7f9 ff1b 	bl	80014b4 <HAL_UART_RxCpltCallback>
 800767e:	e7ec      	b.n	800765a <UART_Receive_IT.part.0.isra.0+0x86>

08007680 <HAL_UART_IRQHandler>:
 8007680:	6803      	ldr	r3, [r0, #0]
 8007682:	b537      	push	{r0, r1, r2, r4, r5, lr}
 8007684:	681a      	ldr	r2, [r3, #0]
 8007686:	68d9      	ldr	r1, [r3, #12]
 8007688:	695d      	ldr	r5, [r3, #20]
 800768a:	f012 0f0f 	tst.w	r2, #15
 800768e:	4604      	mov	r4, r0
 8007690:	d10c      	bne.n	80076ac <HAL_UART_IRQHandler+0x2c>
 8007692:	0695      	lsls	r5, r2, #26
 8007694:	d570      	bpl.n	8007778 <HAL_UART_IRQHandler+0xf8>
 8007696:	068d      	lsls	r5, r1, #26
 8007698:	d56e      	bpl.n	8007778 <HAL_UART_IRQHandler+0xf8>
 800769a:	f890 303e 	ldrb.w	r3, [r0, #62]	; 0x3e
 800769e:	2b22      	cmp	r3, #34	; 0x22
 80076a0:	d164      	bne.n	800776c <HAL_UART_IRQHandler+0xec>
 80076a2:	b003      	add	sp, #12
 80076a4:	e8bd 4030 	ldmia.w	sp!, {r4, r5, lr}
 80076a8:	f7ff bf94 	b.w	80075d4 <UART_Receive_IT.part.0.isra.0>
 80076ac:	f005 0001 	and.w	r0, r5, #1
 80076b0:	f401 7590 	and.w	r5, r1, #288	; 0x120
 80076b4:	4305      	orrs	r5, r0
 80076b6:	d05f      	beq.n	8007778 <HAL_UART_IRQHandler+0xf8>
 80076b8:	07d5      	lsls	r5, r2, #31
 80076ba:	d505      	bpl.n	80076c8 <HAL_UART_IRQHandler+0x48>
 80076bc:	05cb      	lsls	r3, r1, #23
 80076be:	bf42      	ittt	mi
 80076c0:	6c23      	ldrmi	r3, [r4, #64]	; 0x40
 80076c2:	f043 0301 	orrmi.w	r3, r3, #1
 80076c6:	6423      	strmi	r3, [r4, #64]	; 0x40
 80076c8:	0755      	lsls	r5, r2, #29
 80076ca:	d504      	bpl.n	80076d6 <HAL_UART_IRQHandler+0x56>
 80076cc:	b118      	cbz	r0, 80076d6 <HAL_UART_IRQHandler+0x56>
 80076ce:	6c23      	ldr	r3, [r4, #64]	; 0x40
 80076d0:	f043 0302 	orr.w	r3, r3, #2
 80076d4:	6423      	str	r3, [r4, #64]	; 0x40
 80076d6:	0793      	lsls	r3, r2, #30
 80076d8:	d504      	bpl.n	80076e4 <HAL_UART_IRQHandler+0x64>
 80076da:	b118      	cbz	r0, 80076e4 <HAL_UART_IRQHandler+0x64>
 80076dc:	6c23      	ldr	r3, [r4, #64]	; 0x40
 80076de:	f043 0304 	orr.w	r3, r3, #4
 80076e2:	6423      	str	r3, [r4, #64]	; 0x40
 80076e4:	0715      	lsls	r5, r2, #28
 80076e6:	d507      	bpl.n	80076f8 <HAL_UART_IRQHandler+0x78>
 80076e8:	f001 0320 	and.w	r3, r1, #32
 80076ec:	4303      	orrs	r3, r0
 80076ee:	bf1e      	ittt	ne
 80076f0:	6c23      	ldrne	r3, [r4, #64]	; 0x40
 80076f2:	f043 0308 	orrne.w	r3, r3, #8
 80076f6:	6423      	strne	r3, [r4, #64]	; 0x40
 80076f8:	6c23      	ldr	r3, [r4, #64]	; 0x40
 80076fa:	2b00      	cmp	r3, #0
 80076fc:	d036      	beq.n	800776c <HAL_UART_IRQHandler+0xec>
 80076fe:	0690      	lsls	r0, r2, #26
 8007700:	d508      	bpl.n	8007714 <HAL_UART_IRQHandler+0x94>
 8007702:	068a      	lsls	r2, r1, #26
 8007704:	d506      	bpl.n	8007714 <HAL_UART_IRQHandler+0x94>
 8007706:	f894 303e 	ldrb.w	r3, [r4, #62]	; 0x3e
 800770a:	2b22      	cmp	r3, #34	; 0x22
 800770c:	d102      	bne.n	8007714 <HAL_UART_IRQHandler+0x94>
 800770e:	4620      	mov	r0, r4
 8007710:	f7ff ff60 	bl	80075d4 <UART_Receive_IT.part.0.isra.0>
 8007714:	6823      	ldr	r3, [r4, #0]
 8007716:	695b      	ldr	r3, [r3, #20]
 8007718:	6c25      	ldr	r5, [r4, #64]	; 0x40
 800771a:	f003 0340 	and.w	r3, r3, #64	; 0x40
 800771e:	f005 0508 	and.w	r5, r5, #8
 8007722:	431d      	orrs	r5, r3
 8007724:	4620      	mov	r0, r4
 8007726:	d023      	beq.n	8007770 <HAL_UART_IRQHandler+0xf0>
 8007728:	f7ff fe04 	bl	8007334 <UART_EndRxTransfer>
 800772c:	6822      	ldr	r2, [r4, #0]
 800772e:	6953      	ldr	r3, [r2, #20]
 8007730:	065b      	lsls	r3, r3, #25
 8007732:	d518      	bpl.n	8007766 <HAL_UART_IRQHandler+0xe6>
 8007734:	f102 0314 	add.w	r3, r2, #20
 8007738:	e853 3f00 	ldrex	r3, [r3]
 800773c:	f023 0340 	bic.w	r3, r3, #64	; 0x40
 8007740:	f102 0014 	add.w	r0, r2, #20
 8007744:	e840 3100 	strex	r1, r3, [r0]
 8007748:	2900      	cmp	r1, #0
 800774a:	d1f3      	bne.n	8007734 <HAL_UART_IRQHandler+0xb4>
 800774c:	6ba0      	ldr	r0, [r4, #56]	; 0x38
 800774e:	b150      	cbz	r0, 8007766 <HAL_UART_IRQHandler+0xe6>
 8007750:	4b72      	ldr	r3, [pc, #456]	; (800791c <HAL_UART_IRQHandler+0x29c>)
 8007752:	6503      	str	r3, [r0, #80]	; 0x50
 8007754:	f7fd fa62 	bl	8004c1c <HAL_DMA_Abort_IT>
 8007758:	b140      	cbz	r0, 800776c <HAL_UART_IRQHandler+0xec>
 800775a:	6ba0      	ldr	r0, [r4, #56]	; 0x38
 800775c:	6d03      	ldr	r3, [r0, #80]	; 0x50
 800775e:	b003      	add	sp, #12
 8007760:	e8bd 4030 	ldmia.w	sp!, {r4, r5, lr}
 8007764:	4718      	bx	r3
 8007766:	4620      	mov	r0, r4
 8007768:	f7ff ff2a 	bl	80075c0 <HAL_UART_ErrorCallback>
 800776c:	b003      	add	sp, #12
 800776e:	bd30      	pop	{r4, r5, pc}
 8007770:	f7ff ff26 	bl	80075c0 <HAL_UART_ErrorCallback>
 8007774:	6425      	str	r5, [r4, #64]	; 0x40
 8007776:	e7f9      	b.n	800776c <HAL_UART_IRQHandler+0xec>
 8007778:	6b20      	ldr	r0, [r4, #48]	; 0x30
 800777a:	2801      	cmp	r0, #1
 800777c:	f040 8091 	bne.w	80078a2 <HAL_UART_IRQHandler+0x222>
 8007780:	06d5      	lsls	r5, r2, #27
 8007782:	f140 808e 	bpl.w	80078a2 <HAL_UART_IRQHandler+0x222>
 8007786:	06c8      	lsls	r0, r1, #27
 8007788:	f140 808b 	bpl.w	80078a2 <HAL_UART_IRQHandler+0x222>
 800778c:	2200      	movs	r2, #0
 800778e:	9201      	str	r2, [sp, #4]
 8007790:	681a      	ldr	r2, [r3, #0]
 8007792:	9201      	str	r2, [sp, #4]
 8007794:	685a      	ldr	r2, [r3, #4]
 8007796:	9201      	str	r2, [sp, #4]
 8007798:	9a01      	ldr	r2, [sp, #4]
 800779a:	695a      	ldr	r2, [r3, #20]
 800779c:	0655      	lsls	r5, r2, #25
 800779e:	d54c      	bpl.n	800783a <HAL_UART_IRQHandler+0x1ba>
 80077a0:	6ba1      	ldr	r1, [r4, #56]	; 0x38
 80077a2:	680a      	ldr	r2, [r1, #0]
 80077a4:	6852      	ldr	r2, [r2, #4]
 80077a6:	b292      	uxth	r2, r2
 80077a8:	2a00      	cmp	r2, #0
 80077aa:	d0df      	beq.n	800776c <HAL_UART_IRQHandler+0xec>
 80077ac:	8da0      	ldrh	r0, [r4, #44]	; 0x2c
 80077ae:	4290      	cmp	r0, r2
 80077b0:	d9dc      	bls.n	800776c <HAL_UART_IRQHandler+0xec>
 80077b2:	85e2      	strh	r2, [r4, #46]	; 0x2e
 80077b4:	69ca      	ldr	r2, [r1, #28]
 80077b6:	f5b2 7f80 	cmp.w	r2, #256	; 0x100
 80077ba:	d036      	beq.n	800782a <HAL_UART_IRQHandler+0x1aa>
 80077bc:	f103 020c 	add.w	r2, r3, #12
 80077c0:	e852 2f00 	ldrex	r2, [r2]
 80077c4:	f422 7280 	bic.w	r2, r2, #256	; 0x100
 80077c8:	f103 000c 	add.w	r0, r3, #12
 80077cc:	e840 2100 	strex	r1, r2, [r0]
 80077d0:	2900      	cmp	r1, #0
 80077d2:	d1f3      	bne.n	80077bc <HAL_UART_IRQHandler+0x13c>
 80077d4:	f103 0214 	add.w	r2, r3, #20
 80077d8:	e852 2f00 	ldrex	r2, [r2]
 80077dc:	f022 0201 	bic.w	r2, r2, #1
 80077e0:	f103 0014 	add.w	r0, r3, #20
 80077e4:	e840 2100 	strex	r1, r2, [r0]
 80077e8:	2900      	cmp	r1, #0
 80077ea:	d1f3      	bne.n	80077d4 <HAL_UART_IRQHandler+0x154>
 80077ec:	f103 0214 	add.w	r2, r3, #20
 80077f0:	e852 2f00 	ldrex	r2, [r2]
 80077f4:	f022 0240 	bic.w	r2, r2, #64	; 0x40
 80077f8:	f103 0014 	add.w	r0, r3, #20
 80077fc:	e840 2100 	strex	r1, r2, [r0]
 8007800:	2900      	cmp	r1, #0
 8007802:	d1f3      	bne.n	80077ec <HAL_UART_IRQHandler+0x16c>
 8007804:	2220      	movs	r2, #32
 8007806:	f884 203e 	strb.w	r2, [r4, #62]	; 0x3e
 800780a:	6321      	str	r1, [r4, #48]	; 0x30
 800780c:	f103 020c 	add.w	r2, r3, #12
 8007810:	e852 2f00 	ldrex	r2, [r2]
 8007814:	f022 0210 	bic.w	r2, r2, #16
 8007818:	f103 000c 	add.w	r0, r3, #12
 800781c:	e840 2100 	strex	r1, r2, [r0]
 8007820:	2900      	cmp	r1, #0
 8007822:	d1f3      	bne.n	800780c <HAL_UART_IRQHandler+0x18c>
 8007824:	6ba0      	ldr	r0, [r4, #56]	; 0x38
 8007826:	f7fd f9b5 	bl	8004b94 <HAL_DMA_Abort>
 800782a:	8de3      	ldrh	r3, [r4, #46]	; 0x2e
 800782c:	8da1      	ldrh	r1, [r4, #44]	; 0x2c
 800782e:	1ac9      	subs	r1, r1, r3
 8007830:	b289      	uxth	r1, r1
 8007832:	4620      	mov	r0, r4
 8007834:	f7ff fecd 	bl	80075d2 <HAL_UARTEx_RxEventCallback>
 8007838:	e798      	b.n	800776c <HAL_UART_IRQHandler+0xec>
 800783a:	8de1      	ldrh	r1, [r4, #46]	; 0x2e
 800783c:	b28a      	uxth	r2, r1
 800783e:	8de1      	ldrh	r1, [r4, #46]	; 0x2e
 8007840:	b289      	uxth	r1, r1
 8007842:	2900      	cmp	r1, #0
 8007844:	d092      	beq.n	800776c <HAL_UART_IRQHandler+0xec>
 8007846:	8da1      	ldrh	r1, [r4, #44]	; 0x2c
 8007848:	1a89      	subs	r1, r1, r2
 800784a:	b289      	uxth	r1, r1
 800784c:	2900      	cmp	r1, #0
 800784e:	d08d      	beq.n	800776c <HAL_UART_IRQHandler+0xec>
 8007850:	f103 020c 	add.w	r2, r3, #12
 8007854:	e852 2f00 	ldrex	r2, [r2]
 8007858:	f422 7290 	bic.w	r2, r2, #288	; 0x120
 800785c:	f103 050c 	add.w	r5, r3, #12
 8007860:	e845 2000 	strex	r0, r2, [r5]
 8007864:	2800      	cmp	r0, #0
 8007866:	d1f3      	bne.n	8007850 <HAL_UART_IRQHandler+0x1d0>
 8007868:	f103 0214 	add.w	r2, r3, #20
 800786c:	e852 2f00 	ldrex	r2, [r2]
 8007870:	f022 0201 	bic.w	r2, r2, #1
 8007874:	f103 0514 	add.w	r5, r3, #20
 8007878:	e845 2000 	strex	r0, r2, [r5]
 800787c:	2800      	cmp	r0, #0
 800787e:	d1f3      	bne.n	8007868 <HAL_UART_IRQHandler+0x1e8>
 8007880:	2220      	movs	r2, #32
 8007882:	f884 203e 	strb.w	r2, [r4, #62]	; 0x3e
 8007886:	6320      	str	r0, [r4, #48]	; 0x30
 8007888:	f103 020c 	add.w	r2, r3, #12
 800788c:	e852 2f00 	ldrex	r2, [r2]
 8007890:	f022 0210 	bic.w	r2, r2, #16
 8007894:	f103 050c 	add.w	r5, r3, #12
 8007898:	e845 2000 	strex	r0, r2, [r5]
 800789c:	2800      	cmp	r0, #0
 800789e:	d1f3      	bne.n	8007888 <HAL_UART_IRQHandler+0x208>
 80078a0:	e7c7      	b.n	8007832 <HAL_UART_IRQHandler+0x1b2>
 80078a2:	0610      	lsls	r0, r2, #24
 80078a4:	d528      	bpl.n	80078f8 <HAL_UART_IRQHandler+0x278>
 80078a6:	060d      	lsls	r5, r1, #24
 80078a8:	d526      	bpl.n	80078f8 <HAL_UART_IRQHandler+0x278>
 80078aa:	f894 203d 	ldrb.w	r2, [r4, #61]	; 0x3d
 80078ae:	2a21      	cmp	r2, #33	; 0x21
 80078b0:	f47f af5c 	bne.w	800776c <HAL_UART_IRQHandler+0xec>
 80078b4:	68a1      	ldr	r1, [r4, #8]
 80078b6:	6a22      	ldr	r2, [r4, #32]
 80078b8:	f5b1 5f80 	cmp.w	r1, #4096	; 0x1000
 80078bc:	d117      	bne.n	80078ee <HAL_UART_IRQHandler+0x26e>
 80078be:	6921      	ldr	r1, [r4, #16]
 80078c0:	b9a9      	cbnz	r1, 80078ee <HAL_UART_IRQHandler+0x26e>
 80078c2:	f832 1b02 	ldrh.w	r1, [r2], #2
 80078c6:	f3c1 0108 	ubfx	r1, r1, #0, #9
 80078ca:	6059      	str	r1, [r3, #4]
 80078cc:	6222      	str	r2, [r4, #32]
 80078ce:	8ce2      	ldrh	r2, [r4, #38]	; 0x26
 80078d0:	3a01      	subs	r2, #1
 80078d2:	b292      	uxth	r2, r2
 80078d4:	84e2      	strh	r2, [r4, #38]	; 0x26
 80078d6:	2a00      	cmp	r2, #0
 80078d8:	f47f af48 	bne.w	800776c <HAL_UART_IRQHandler+0xec>
 80078dc:	68da      	ldr	r2, [r3, #12]
 80078de:	f022 0280 	bic.w	r2, r2, #128	; 0x80
 80078e2:	60da      	str	r2, [r3, #12]
 80078e4:	68da      	ldr	r2, [r3, #12]
 80078e6:	f042 0240 	orr.w	r2, r2, #64	; 0x40
 80078ea:	60da      	str	r2, [r3, #12]
 80078ec:	e73e      	b.n	800776c <HAL_UART_IRQHandler+0xec>
 80078ee:	1c51      	adds	r1, r2, #1
 80078f0:	6221      	str	r1, [r4, #32]
 80078f2:	7812      	ldrb	r2, [r2, #0]
 80078f4:	605a      	str	r2, [r3, #4]
 80078f6:	e7ea      	b.n	80078ce <HAL_UART_IRQHandler+0x24e>
 80078f8:	0650      	lsls	r0, r2, #25
 80078fa:	f57f af37 	bpl.w	800776c <HAL_UART_IRQHandler+0xec>
 80078fe:	064a      	lsls	r2, r1, #25
 8007900:	f57f af34 	bpl.w	800776c <HAL_UART_IRQHandler+0xec>
 8007904:	68da      	ldr	r2, [r3, #12]
 8007906:	f022 0240 	bic.w	r2, r2, #64	; 0x40
 800790a:	60da      	str	r2, [r3, #12]
 800790c:	2320      	movs	r3, #32
 800790e:	f884 303d 	strb.w	r3, [r4, #61]	; 0x3d
 8007912:	4620      	mov	r0, r4
 8007914:	f7ff fe53 	bl	80075be <HAL_UART_TxCpltCallback>
 8007918:	e728      	b.n	800776c <HAL_UART_IRQHandler+0xec>
 800791a:	bf00      	nop
 800791c:	080075c3 	.word	0x080075c3

08007920 <UART_Start_Receive_IT>:
 8007920:	85c2      	strh	r2, [r0, #46]	; 0x2e
 8007922:	2300      	movs	r3, #0
 8007924:	8582      	strh	r2, [r0, #44]	; 0x2c
 8007926:	2222      	movs	r2, #34	; 0x22
 8007928:	6403      	str	r3, [r0, #64]	; 0x40
 800792a:	f880 203e 	strb.w	r2, [r0, #62]	; 0x3e
 800792e:	6902      	ldr	r2, [r0, #16]
 8007930:	f880 303c 	strb.w	r3, [r0, #60]	; 0x3c
 8007934:	6281      	str	r1, [r0, #40]	; 0x28
 8007936:	6803      	ldr	r3, [r0, #0]
 8007938:	b11a      	cbz	r2, 8007942 <UART_Start_Receive_IT+0x22>
 800793a:	68da      	ldr	r2, [r3, #12]
 800793c:	f442 7280 	orr.w	r2, r2, #256	; 0x100
 8007940:	60da      	str	r2, [r3, #12]
 8007942:	695a      	ldr	r2, [r3, #20]
 8007944:	f042 0201 	orr.w	r2, r2, #1
 8007948:	615a      	str	r2, [r3, #20]
 800794a:	68da      	ldr	r2, [r3, #12]
 800794c:	f042 0220 	orr.w	r2, r2, #32
 8007950:	60da      	str	r2, [r3, #12]
 8007952:	2000      	movs	r0, #0
 8007954:	4770      	bx	lr

08007956 <HAL_UART_Receive_IT>:
 8007956:	b470      	push	{r4, r5, r6}
 8007958:	f890 603e 	ldrb.w	r6, [r0, #62]	; 0x3e
 800795c:	2e20      	cmp	r6, #32
 800795e:	d110      	bne.n	8007982 <HAL_UART_Receive_IT+0x2c>
 8007960:	b161      	cbz	r1, 800797c <HAL_UART_Receive_IT+0x26>
 8007962:	b15a      	cbz	r2, 800797c <HAL_UART_Receive_IT+0x26>
 8007964:	f890 403c 	ldrb.w	r4, [r0, #60]	; 0x3c
 8007968:	2c01      	cmp	r4, #1
 800796a:	d00a      	beq.n	8007982 <HAL_UART_Receive_IT+0x2c>
 800796c:	2401      	movs	r4, #1
 800796e:	f880 403c 	strb.w	r4, [r0, #60]	; 0x3c
 8007972:	2400      	movs	r4, #0
 8007974:	6304      	str	r4, [r0, #48]	; 0x30
 8007976:	bc70      	pop	{r4, r5, r6}
 8007978:	f7ff bfd2 	b.w	8007920 <UART_Start_Receive_IT>
 800797c:	2001      	movs	r0, #1
 800797e:	bc70      	pop	{r4, r5, r6}
 8007980:	4770      	bx	lr
 8007982:	2002      	movs	r0, #2
 8007984:	e7fb      	b.n	800797e <HAL_UART_Receive_IT+0x28>
	...

08007988 <osKernelInitialize>:
 8007988:	f3ef 8305 	mrs	r3, IPSR
 800798c:	b92b      	cbnz	r3, 800799a <osKernelInitialize+0x12>
 800798e:	4b06      	ldr	r3, [pc, #24]	; (80079a8 <osKernelInitialize+0x20>)
 8007990:	6818      	ldr	r0, [r3, #0]
 8007992:	b928      	cbnz	r0, 80079a0 <osKernelInitialize+0x18>
 8007994:	2201      	movs	r2, #1
 8007996:	601a      	str	r2, [r3, #0]
 8007998:	4770      	bx	lr
 800799a:	f06f 0005 	mvn.w	r0, #5
 800799e:	4770      	bx	lr
 80079a0:	f04f 30ff 	mov.w	r0, #4294967295
 80079a4:	4770      	bx	lr
 80079a6:	bf00      	nop
 80079a8:	20000cc4 	.word	0x20000cc4

080079ac <osKernelStart>:
 80079ac:	b510      	push	{r4, lr}
 80079ae:	f3ef 8405 	mrs	r4, IPSR
 80079b2:	b95c      	cbnz	r4, 80079cc <osKernelStart+0x20>
 80079b4:	4b08      	ldr	r3, [pc, #32]	; (80079d8 <osKernelStart+0x2c>)
 80079b6:	681a      	ldr	r2, [r3, #0]
 80079b8:	2a01      	cmp	r2, #1
 80079ba:	d10a      	bne.n	80079d2 <osKernelStart+0x26>
 80079bc:	4a07      	ldr	r2, [pc, #28]	; (80079dc <osKernelStart+0x30>)
 80079be:	77d4      	strb	r4, [r2, #31]
 80079c0:	2202      	movs	r2, #2
 80079c2:	601a      	str	r2, [r3, #0]
 80079c4:	f000 fda0 	bl	8008508 <vTaskStartScheduler>
 80079c8:	4620      	mov	r0, r4
 80079ca:	bd10      	pop	{r4, pc}
 80079cc:	f06f 0005 	mvn.w	r0, #5
 80079d0:	e7fb      	b.n	80079ca <osKernelStart+0x1e>
 80079d2:	f04f 30ff 	mov.w	r0, #4294967295
 80079d6:	e7f8      	b.n	80079ca <osKernelStart+0x1e>
 80079d8:	20000cc4 	.word	0x20000cc4
 80079dc:	e000ed00 	.word	0xe000ed00

080079e0 <osThreadNew>:
 80079e0:	b5f0      	push	{r4, r5, r6, r7, lr}
 80079e2:	b087      	sub	sp, #28
 80079e4:	4614      	mov	r4, r2
 80079e6:	2200      	movs	r2, #0
 80079e8:	460b      	mov	r3, r1
 80079ea:	9205      	str	r2, [sp, #20]
 80079ec:	f3ef 8205 	mrs	r2, IPSR
 80079f0:	b9d2      	cbnz	r2, 8007a28 <osThreadNew+0x48>
 80079f2:	b1c8      	cbz	r0, 8007a28 <osThreadNew+0x48>
 80079f4:	2c00      	cmp	r4, #0
 80079f6:	d030      	beq.n	8007a5a <osThreadNew+0x7a>
 80079f8:	69a5      	ldr	r5, [r4, #24]
 80079fa:	2d00      	cmp	r5, #0
 80079fc:	bf08      	it	eq
 80079fe:	2518      	moveq	r5, #24
 8007a00:	1e69      	subs	r1, r5, #1
 8007a02:	2937      	cmp	r1, #55	; 0x37
 8007a04:	46ac      	mov	ip, r5
 8007a06:	d82d      	bhi.n	8007a64 <osThreadNew+0x84>
 8007a08:	6861      	ldr	r1, [r4, #4]
 8007a0a:	07c9      	lsls	r1, r1, #31
 8007a0c:	d42a      	bmi.n	8007a64 <osThreadNew+0x84>
 8007a0e:	6966      	ldr	r6, [r4, #20]
 8007a10:	b16e      	cbz	r6, 8007a2e <osThreadNew+0x4e>
 8007a12:	08b2      	lsrs	r2, r6, #2
 8007a14:	e9d4 7e02 	ldrd	r7, lr, [r4, #8]
 8007a18:	6821      	ldr	r1, [r4, #0]
 8007a1a:	b15f      	cbz	r7, 8007a34 <osThreadNew+0x54>
 8007a1c:	f1be 0f5b 	cmp.w	lr, #91	; 0x5b
 8007a20:	d902      	bls.n	8007a28 <osThreadNew+0x48>
 8007a22:	6924      	ldr	r4, [r4, #16]
 8007a24:	b104      	cbz	r4, 8007a28 <osThreadNew+0x48>
 8007a26:	b9fe      	cbnz	r6, 8007a68 <osThreadNew+0x88>
 8007a28:	9805      	ldr	r0, [sp, #20]
 8007a2a:	b007      	add	sp, #28
 8007a2c:	bdf0      	pop	{r4, r5, r6, r7, pc}
 8007a2e:	f44f 7200 	mov.w	r2, #512	; 0x200
 8007a32:	e7ef      	b.n	8007a14 <osThreadNew+0x34>
 8007a34:	f1be 0f00 	cmp.w	lr, #0
 8007a38:	d1f6      	bne.n	8007a28 <osThreadNew+0x48>
 8007a3a:	6924      	ldr	r4, [r4, #16]
 8007a3c:	2c00      	cmp	r4, #0
 8007a3e:	d1f3      	bne.n	8007a28 <osThreadNew+0x48>
 8007a40:	460c      	mov	r4, r1
 8007a42:	a905      	add	r1, sp, #20
 8007a44:	e9cd c100 	strd	ip, r1, [sp]
 8007a48:	b292      	uxth	r2, r2
 8007a4a:	4621      	mov	r1, r4
 8007a4c:	f000 fd2f 	bl	80084ae <xTaskCreate>
 8007a50:	2801      	cmp	r0, #1
 8007a52:	bf1c      	itt	ne
 8007a54:	2300      	movne	r3, #0
 8007a56:	9305      	strne	r3, [sp, #20]
 8007a58:	e7e6      	b.n	8007a28 <osThreadNew+0x48>
 8007a5a:	f04f 0c18 	mov.w	ip, #24
 8007a5e:	f44f 7200 	mov.w	r2, #512	; 0x200
 8007a62:	e7ee      	b.n	8007a42 <osThreadNew+0x62>
 8007a64:	4610      	mov	r0, r2
 8007a66:	e7e0      	b.n	8007a2a <osThreadNew+0x4a>
 8007a68:	e9cd 4701 	strd	r4, r7, [sp, #4]
 8007a6c:	9500      	str	r5, [sp, #0]
 8007a6e:	f000 fce6 	bl	800843e <xTaskCreateStatic>
 8007a72:	9005      	str	r0, [sp, #20]
 8007a74:	e7d8      	b.n	8007a28 <osThreadNew+0x48>

08007a76 <osDelay>:
 8007a76:	b510      	push	{r4, lr}
 8007a78:	f3ef 8405 	mrs	r4, IPSR
 8007a7c:	b924      	cbnz	r4, 8007a88 <osDelay+0x12>
 8007a7e:	b110      	cbz	r0, 8007a86 <osDelay+0x10>
 8007a80:	f000 fee8 	bl	8008854 <vTaskDelay>
 8007a84:	4620      	mov	r0, r4
 8007a86:	bd10      	pop	{r4, pc}
 8007a88:	f06f 0005 	mvn.w	r0, #5
 8007a8c:	e7fb      	b.n	8007a86 <osDelay+0x10>

08007a8e <osDelayUntil>:
 8007a8e:	b537      	push	{r0, r1, r2, r4, r5, lr}
 8007a90:	4605      	mov	r5, r0
 8007a92:	f3ef 8405 	mrs	r4, IPSR
 8007a96:	b95c      	cbnz	r4, 8007ab0 <osDelayUntil+0x22>
 8007a98:	f000 fd84 	bl	80085a4 <xTaskGetTickCount>
 8007a9c:	1a29      	subs	r1, r5, r0
 8007a9e:	2900      	cmp	r1, #0
 8007aa0:	9001      	str	r0, [sp, #4]
 8007aa2:	dd08      	ble.n	8007ab6 <osDelayUntil+0x28>
 8007aa4:	a801      	add	r0, sp, #4
 8007aa6:	f000 fe8d 	bl	80087c4 <vTaskDelayUntil>
 8007aaa:	4620      	mov	r0, r4
 8007aac:	b003      	add	sp, #12
 8007aae:	bd30      	pop	{r4, r5, pc}
 8007ab0:	f06f 0005 	mvn.w	r0, #5
 8007ab4:	e7fa      	b.n	8007aac <osDelayUntil+0x1e>
 8007ab6:	f06f 0003 	mvn.w	r0, #3
 8007aba:	e7f7      	b.n	8007aac <osDelayUntil+0x1e>

08007abc <vApplicationGetIdleTaskMemory>:
 8007abc:	4b03      	ldr	r3, [pc, #12]	; (8007acc <vApplicationGetIdleTaskMemory+0x10>)
 8007abe:	6003      	str	r3, [r0, #0]
 8007ac0:	4b03      	ldr	r3, [pc, #12]	; (8007ad0 <vApplicationGetIdleTaskMemory+0x14>)
 8007ac2:	600b      	str	r3, [r1, #0]
 8007ac4:	f44f 7300 	mov.w	r3, #512	; 0x200
 8007ac8:	6013      	str	r3, [r2, #0]
 8007aca:	4770      	bx	lr
 8007acc:	20000c68 	.word	0x20000c68
 8007ad0:	20000468 	.word	0x20000468

08007ad4 <vApplicationGetTimerTaskMemory>:
 8007ad4:	4b03      	ldr	r3, [pc, #12]	; (8007ae4 <vApplicationGetTimerTaskMemory+0x10>)
 8007ad6:	6003      	str	r3, [r0, #0]
 8007ad8:	4b03      	ldr	r3, [pc, #12]	; (8007ae8 <vApplicationGetTimerTaskMemory+0x14>)
 8007ada:	600b      	str	r3, [r1, #0]
 8007adc:	f44f 6380 	mov.w	r3, #1024	; 0x400
 8007ae0:	6013      	str	r3, [r2, #0]
 8007ae2:	4770      	bx	lr
 8007ae4:	20001cc8 	.word	0x20001cc8
 8007ae8:	20000cc8 	.word	0x20000cc8

08007aec <vListInitialise>:
 8007aec:	f100 0308 	add.w	r3, r0, #8
 8007af0:	f04f 32ff 	mov.w	r2, #4294967295
 8007af4:	e9c0 2302 	strd	r2, r3, [r0, #8]
 8007af8:	6043      	str	r3, [r0, #4]
 8007afa:	6103      	str	r3, [r0, #16]
 8007afc:	2300      	movs	r3, #0
 8007afe:	6003      	str	r3, [r0, #0]
 8007b00:	4770      	bx	lr

08007b02 <vListInitialiseItem>:
 8007b02:	2300      	movs	r3, #0
 8007b04:	6103      	str	r3, [r0, #16]
 8007b06:	4770      	bx	lr

08007b08 <vListInsertEnd>:
 8007b08:	6843      	ldr	r3, [r0, #4]
 8007b0a:	604b      	str	r3, [r1, #4]
 8007b0c:	689a      	ldr	r2, [r3, #8]
 8007b0e:	608a      	str	r2, [r1, #8]
 8007b10:	689a      	ldr	r2, [r3, #8]
 8007b12:	6051      	str	r1, [r2, #4]
 8007b14:	6099      	str	r1, [r3, #8]
 8007b16:	6803      	ldr	r3, [r0, #0]
 8007b18:	6108      	str	r0, [r1, #16]
 8007b1a:	3301      	adds	r3, #1
 8007b1c:	6003      	str	r3, [r0, #0]
 8007b1e:	4770      	bx	lr

08007b20 <vListInsert>:
 8007b20:	b530      	push	{r4, r5, lr}
 8007b22:	680c      	ldr	r4, [r1, #0]
 8007b24:	1c63      	adds	r3, r4, #1
 8007b26:	d10a      	bne.n	8007b3e <vListInsert+0x1e>
 8007b28:	6903      	ldr	r3, [r0, #16]
 8007b2a:	685a      	ldr	r2, [r3, #4]
 8007b2c:	604a      	str	r2, [r1, #4]
 8007b2e:	6091      	str	r1, [r2, #8]
 8007b30:	608b      	str	r3, [r1, #8]
 8007b32:	6059      	str	r1, [r3, #4]
 8007b34:	6803      	ldr	r3, [r0, #0]
 8007b36:	6108      	str	r0, [r1, #16]
 8007b38:	3301      	adds	r3, #1
 8007b3a:	6003      	str	r3, [r0, #0]
 8007b3c:	bd30      	pop	{r4, r5, pc}
 8007b3e:	f100 0208 	add.w	r2, r0, #8
 8007b42:	4613      	mov	r3, r2
 8007b44:	6852      	ldr	r2, [r2, #4]
 8007b46:	6815      	ldr	r5, [r2, #0]
 8007b48:	42a5      	cmp	r5, r4
 8007b4a:	d9fa      	bls.n	8007b42 <vListInsert+0x22>
 8007b4c:	e7ed      	b.n	8007b2a <vListInsert+0xa>

08007b4e <uxListRemove>:
 8007b4e:	e9d0 1201 	ldrd	r1, r2, [r0, #4]
 8007b52:	6903      	ldr	r3, [r0, #16]
 8007b54:	608a      	str	r2, [r1, #8]
 8007b56:	6051      	str	r1, [r2, #4]
 8007b58:	6859      	ldr	r1, [r3, #4]
 8007b5a:	4281      	cmp	r1, r0
 8007b5c:	bf08      	it	eq
 8007b5e:	605a      	streq	r2, [r3, #4]
 8007b60:	2200      	movs	r2, #0
 8007b62:	6102      	str	r2, [r0, #16]
 8007b64:	681a      	ldr	r2, [r3, #0]
 8007b66:	3a01      	subs	r2, #1
 8007b68:	601a      	str	r2, [r3, #0]
 8007b6a:	6818      	ldr	r0, [r3, #0]
 8007b6c:	4770      	bx	lr

08007b6e <prvIsQueueEmpty>:
 8007b6e:	b510      	push	{r4, lr}
 8007b70:	4604      	mov	r4, r0
 8007b72:	f001 fa3f 	bl	8008ff4 <vPortEnterCritical>
 8007b76:	6ba4      	ldr	r4, [r4, #56]	; 0x38
 8007b78:	f001 fa5c 	bl	8009034 <vPortExitCritical>
 8007b7c:	fab4 f084 	clz	r0, r4
 8007b80:	0940      	lsrs	r0, r0, #5
 8007b82:	bd10      	pop	{r4, pc}

08007b84 <prvCopyDataToQueue>:
 8007b84:	b5f8      	push	{r3, r4, r5, r6, r7, lr}
 8007b86:	4615      	mov	r5, r2
 8007b88:	6c02      	ldr	r2, [r0, #64]	; 0x40
 8007b8a:	6b86      	ldr	r6, [r0, #56]	; 0x38
 8007b8c:	4604      	mov	r4, r0
 8007b8e:	b952      	cbnz	r2, 8007ba6 <prvCopyDataToQueue+0x22>
 8007b90:	6807      	ldr	r7, [r0, #0]
 8007b92:	bb47      	cbnz	r7, 8007be6 <prvCopyDataToQueue+0x62>
 8007b94:	6880      	ldr	r0, [r0, #8]
 8007b96:	f000 ff95 	bl	8008ac4 <xTaskPriorityDisinherit>
 8007b9a:	60a7      	str	r7, [r4, #8]
 8007b9c:	4605      	mov	r5, r0
 8007b9e:	3601      	adds	r6, #1
 8007ba0:	63a6      	str	r6, [r4, #56]	; 0x38
 8007ba2:	4628      	mov	r0, r5
 8007ba4:	bdf8      	pop	{r3, r4, r5, r6, r7, pc}
 8007ba6:	b965      	cbnz	r5, 8007bc2 <prvCopyDataToQueue+0x3e>
 8007ba8:	6840      	ldr	r0, [r0, #4]
 8007baa:	f001 fe6b 	bl	8009884 <memcpy>
 8007bae:	6863      	ldr	r3, [r4, #4]
 8007bb0:	6c22      	ldr	r2, [r4, #64]	; 0x40
 8007bb2:	4413      	add	r3, r2
 8007bb4:	68a2      	ldr	r2, [r4, #8]
 8007bb6:	6063      	str	r3, [r4, #4]
 8007bb8:	4293      	cmp	r3, r2
 8007bba:	d3f0      	bcc.n	8007b9e <prvCopyDataToQueue+0x1a>
 8007bbc:	6823      	ldr	r3, [r4, #0]
 8007bbe:	6063      	str	r3, [r4, #4]
 8007bc0:	e7ed      	b.n	8007b9e <prvCopyDataToQueue+0x1a>
 8007bc2:	68c0      	ldr	r0, [r0, #12]
 8007bc4:	f001 fe5e 	bl	8009884 <memcpy>
 8007bc8:	6c22      	ldr	r2, [r4, #64]	; 0x40
 8007bca:	68e3      	ldr	r3, [r4, #12]
 8007bcc:	4251      	negs	r1, r2
 8007bce:	1a9b      	subs	r3, r3, r2
 8007bd0:	6822      	ldr	r2, [r4, #0]
 8007bd2:	60e3      	str	r3, [r4, #12]
 8007bd4:	4293      	cmp	r3, r2
 8007bd6:	bf3e      	ittt	cc
 8007bd8:	68a3      	ldrcc	r3, [r4, #8]
 8007bda:	185b      	addcc	r3, r3, r1
 8007bdc:	60e3      	strcc	r3, [r4, #12]
 8007bde:	2d02      	cmp	r5, #2
 8007be0:	d101      	bne.n	8007be6 <prvCopyDataToQueue+0x62>
 8007be2:	b116      	cbz	r6, 8007bea <prvCopyDataToQueue+0x66>
 8007be4:	3e01      	subs	r6, #1
 8007be6:	2500      	movs	r5, #0
 8007be8:	e7d9      	b.n	8007b9e <prvCopyDataToQueue+0x1a>
 8007bea:	4635      	mov	r5, r6
 8007bec:	e7d7      	b.n	8007b9e <prvCopyDataToQueue+0x1a>

08007bee <prvCopyDataFromQueue>:
 8007bee:	4603      	mov	r3, r0
 8007bf0:	b410      	push	{r4}
 8007bf2:	6c1a      	ldr	r2, [r3, #64]	; 0x40
 8007bf4:	4608      	mov	r0, r1
 8007bf6:	b16a      	cbz	r2, 8007c14 <prvCopyDataFromQueue+0x26>
 8007bf8:	68dc      	ldr	r4, [r3, #12]
 8007bfa:	6899      	ldr	r1, [r3, #8]
 8007bfc:	4414      	add	r4, r2
 8007bfe:	428c      	cmp	r4, r1
 8007c00:	bf28      	it	cs
 8007c02:	6819      	ldrcs	r1, [r3, #0]
 8007c04:	60dc      	str	r4, [r3, #12]
 8007c06:	bf28      	it	cs
 8007c08:	60d9      	strcs	r1, [r3, #12]
 8007c0a:	68d9      	ldr	r1, [r3, #12]
 8007c0c:	f85d 4b04 	ldr.w	r4, [sp], #4
 8007c10:	f001 be38 	b.w	8009884 <memcpy>
 8007c14:	f85d 4b04 	ldr.w	r4, [sp], #4
 8007c18:	4770      	bx	lr

08007c1a <prvUnlockQueue>:
 8007c1a:	b570      	push	{r4, r5, r6, lr}
 8007c1c:	4604      	mov	r4, r0
 8007c1e:	f001 f9e9 	bl	8008ff4 <vPortEnterCritical>
 8007c22:	f894 5045 	ldrb.w	r5, [r4, #69]	; 0x45
 8007c26:	f104 0624 	add.w	r6, r4, #36	; 0x24
 8007c2a:	b26d      	sxtb	r5, r5
 8007c2c:	2d00      	cmp	r5, #0
 8007c2e:	dc14      	bgt.n	8007c5a <prvUnlockQueue+0x40>
 8007c30:	23ff      	movs	r3, #255	; 0xff
 8007c32:	f884 3045 	strb.w	r3, [r4, #69]	; 0x45
 8007c36:	f001 f9fd 	bl	8009034 <vPortExitCritical>
 8007c3a:	f001 f9db 	bl	8008ff4 <vPortEnterCritical>
 8007c3e:	f894 5044 	ldrb.w	r5, [r4, #68]	; 0x44
 8007c42:	f104 0610 	add.w	r6, r4, #16
 8007c46:	b26d      	sxtb	r5, r5
 8007c48:	2d00      	cmp	r5, #0
 8007c4a:	dc12      	bgt.n	8007c72 <prvUnlockQueue+0x58>
 8007c4c:	23ff      	movs	r3, #255	; 0xff
 8007c4e:	f884 3044 	strb.w	r3, [r4, #68]	; 0x44
 8007c52:	e8bd 4070 	ldmia.w	sp!, {r4, r5, r6, lr}
 8007c56:	f001 b9ed 	b.w	8009034 <vPortExitCritical>
 8007c5a:	6a63      	ldr	r3, [r4, #36]	; 0x24
 8007c5c:	2b00      	cmp	r3, #0
 8007c5e:	d0e7      	beq.n	8007c30 <prvUnlockQueue+0x16>
 8007c60:	4630      	mov	r0, r6
 8007c62:	f000 fe8d 	bl	8008980 <xTaskRemoveFromEventList>
 8007c66:	b108      	cbz	r0, 8007c6c <prvUnlockQueue+0x52>
 8007c68:	f000 ff16 	bl	8008a98 <vTaskMissedYield>
 8007c6c:	3d01      	subs	r5, #1
 8007c6e:	b26d      	sxtb	r5, r5
 8007c70:	e7dc      	b.n	8007c2c <prvUnlockQueue+0x12>
 8007c72:	6923      	ldr	r3, [r4, #16]
 8007c74:	2b00      	cmp	r3, #0
 8007c76:	d0e9      	beq.n	8007c4c <prvUnlockQueue+0x32>
 8007c78:	4630      	mov	r0, r6
 8007c7a:	f000 fe81 	bl	8008980 <xTaskRemoveFromEventList>
 8007c7e:	b108      	cbz	r0, 8007c84 <prvUnlockQueue+0x6a>
 8007c80:	f000 ff0a 	bl	8008a98 <vTaskMissedYield>
 8007c84:	3d01      	subs	r5, #1
 8007c86:	b26d      	sxtb	r5, r5
 8007c88:	e7de      	b.n	8007c48 <prvUnlockQueue+0x2e>

08007c8a <xQueueGenericReset>:
 8007c8a:	b538      	push	{r3, r4, r5, lr}
 8007c8c:	460d      	mov	r5, r1
 8007c8e:	4604      	mov	r4, r0
 8007c90:	b940      	cbnz	r0, 8007ca4 <xQueueGenericReset+0x1a>
 8007c92:	f04f 0350 	mov.w	r3, #80	; 0x50
 8007c96:	f383 8811 	msr	BASEPRI, r3
 8007c9a:	f3bf 8f6f 	isb	sy
 8007c9e:	f3bf 8f4f 	dsb	sy
 8007ca2:	e7fe      	b.n	8007ca2 <xQueueGenericReset+0x18>
 8007ca4:	f001 f9a6 	bl	8008ff4 <vPortEnterCritical>
 8007ca8:	e9d4 310f 	ldrd	r3, r1, [r4, #60]	; 0x3c
 8007cac:	6822      	ldr	r2, [r4, #0]
 8007cae:	6062      	str	r2, [r4, #4]
 8007cb0:	434b      	muls	r3, r1
 8007cb2:	18d0      	adds	r0, r2, r3
 8007cb4:	1a5b      	subs	r3, r3, r1
 8007cb6:	4413      	add	r3, r2
 8007cb8:	60a0      	str	r0, [r4, #8]
 8007cba:	60e3      	str	r3, [r4, #12]
 8007cbc:	2000      	movs	r0, #0
 8007cbe:	23ff      	movs	r3, #255	; 0xff
 8007cc0:	63a0      	str	r0, [r4, #56]	; 0x38
 8007cc2:	f884 3044 	strb.w	r3, [r4, #68]	; 0x44
 8007cc6:	f884 3045 	strb.w	r3, [r4, #69]	; 0x45
 8007cca:	b9a5      	cbnz	r5, 8007cf6 <xQueueGenericReset+0x6c>
 8007ccc:	6923      	ldr	r3, [r4, #16]
 8007cce:	b173      	cbz	r3, 8007cee <xQueueGenericReset+0x64>
 8007cd0:	f104 0010 	add.w	r0, r4, #16
 8007cd4:	f000 fe54 	bl	8008980 <xTaskRemoveFromEventList>
 8007cd8:	b148      	cbz	r0, 8007cee <xQueueGenericReset+0x64>
 8007cda:	f04f 23e0 	mov.w	r3, #3758153728	; 0xe000e000
 8007cde:	f04f 5280 	mov.w	r2, #268435456	; 0x10000000
 8007ce2:	f8c3 2d04 	str.w	r2, [r3, #3332]	; 0xd04
 8007ce6:	f3bf 8f4f 	dsb	sy
 8007cea:	f3bf 8f6f 	isb	sy
 8007cee:	f001 f9a1 	bl	8009034 <vPortExitCritical>
 8007cf2:	2001      	movs	r0, #1
 8007cf4:	bd38      	pop	{r3, r4, r5, pc}
 8007cf6:	f104 0010 	add.w	r0, r4, #16
 8007cfa:	f7ff fef7 	bl	8007aec <vListInitialise>
 8007cfe:	f104 0024 	add.w	r0, r4, #36	; 0x24
 8007d02:	f7ff fef3 	bl	8007aec <vListInitialise>
 8007d06:	e7f2      	b.n	8007cee <xQueueGenericReset+0x64>

08007d08 <xQueueGenericCreateStatic>:
 8007d08:	b513      	push	{r0, r1, r4, lr}
 8007d0a:	461c      	mov	r4, r3
 8007d0c:	b940      	cbnz	r0, 8007d20 <xQueueGenericCreateStatic+0x18>
 8007d0e:	f04f 0350 	mov.w	r3, #80	; 0x50
 8007d12:	f383 8811 	msr	BASEPRI, r3
 8007d16:	f3bf 8f6f 	isb	sy
 8007d1a:	f3bf 8f4f 	dsb	sy
 8007d1e:	e7fe      	b.n	8007d1e <xQueueGenericCreateStatic+0x16>
 8007d20:	b943      	cbnz	r3, 8007d34 <xQueueGenericCreateStatic+0x2c>
 8007d22:	f04f 0350 	mov.w	r3, #80	; 0x50
 8007d26:	f383 8811 	msr	BASEPRI, r3
 8007d2a:	f3bf 8f6f 	isb	sy
 8007d2e:	f3bf 8f4f 	dsb	sy
 8007d32:	e7fe      	b.n	8007d32 <xQueueGenericCreateStatic+0x2a>
 8007d34:	b14a      	cbz	r2, 8007d4a <xQueueGenericCreateStatic+0x42>
 8007d36:	b991      	cbnz	r1, 8007d5e <xQueueGenericCreateStatic+0x56>
 8007d38:	f04f 0350 	mov.w	r3, #80	; 0x50
 8007d3c:	f383 8811 	msr	BASEPRI, r3
 8007d40:	f3bf 8f6f 	isb	sy
 8007d44:	f3bf 8f4f 	dsb	sy
 8007d48:	e7fe      	b.n	8007d48 <xQueueGenericCreateStatic+0x40>
 8007d4a:	b141      	cbz	r1, 8007d5e <xQueueGenericCreateStatic+0x56>
 8007d4c:	f04f 0350 	mov.w	r3, #80	; 0x50
 8007d50:	f383 8811 	msr	BASEPRI, r3
 8007d54:	f3bf 8f6f 	isb	sy
 8007d58:	f3bf 8f4f 	dsb	sy
 8007d5c:	e7fe      	b.n	8007d5c <xQueueGenericCreateStatic+0x54>
 8007d5e:	2350      	movs	r3, #80	; 0x50
 8007d60:	9301      	str	r3, [sp, #4]
 8007d62:	9b01      	ldr	r3, [sp, #4]
 8007d64:	2b50      	cmp	r3, #80	; 0x50
 8007d66:	d008      	beq.n	8007d7a <xQueueGenericCreateStatic+0x72>
 8007d68:	f04f 0350 	mov.w	r3, #80	; 0x50
 8007d6c:	f383 8811 	msr	BASEPRI, r3
 8007d70:	f3bf 8f6f 	isb	sy
 8007d74:	f3bf 8f4f 	dsb	sy
 8007d78:	e7fe      	b.n	8007d78 <xQueueGenericCreateStatic+0x70>
 8007d7a:	2900      	cmp	r1, #0
 8007d7c:	bf08      	it	eq
 8007d7e:	4622      	moveq	r2, r4
 8007d80:	9b01      	ldr	r3, [sp, #4]
 8007d82:	6022      	str	r2, [r4, #0]
 8007d84:	2301      	movs	r3, #1
 8007d86:	e9c4 010f 	strd	r0, r1, [r4, #60]	; 0x3c
 8007d8a:	f884 3046 	strb.w	r3, [r4, #70]	; 0x46
 8007d8e:	4619      	mov	r1, r3
 8007d90:	4620      	mov	r0, r4
 8007d92:	f7ff ff7a 	bl	8007c8a <xQueueGenericReset>
 8007d96:	f89d 3010 	ldrb.w	r3, [sp, #16]
 8007d9a:	f884 304c 	strb.w	r3, [r4, #76]	; 0x4c
 8007d9e:	4620      	mov	r0, r4
 8007da0:	b002      	add	sp, #8
 8007da2:	bd10      	pop	{r4, pc}

08007da4 <xQueueGenericSend>:
 8007da4:	e92d 43f0 	stmdb	sp!, {r4, r5, r6, r7, r8, r9, lr}
 8007da8:	b085      	sub	sp, #20
 8007daa:	4688      	mov	r8, r1
 8007dac:	9201      	str	r2, [sp, #4]
 8007dae:	461f      	mov	r7, r3
 8007db0:	4604      	mov	r4, r0
 8007db2:	b940      	cbnz	r0, 8007dc6 <xQueueGenericSend+0x22>
 8007db4:	f04f 0350 	mov.w	r3, #80	; 0x50
 8007db8:	f383 8811 	msr	BASEPRI, r3
 8007dbc:	f3bf 8f6f 	isb	sy
 8007dc0:	f3bf 8f4f 	dsb	sy
 8007dc4:	e7fe      	b.n	8007dc4 <xQueueGenericSend+0x20>
 8007dc6:	b951      	cbnz	r1, 8007dde <xQueueGenericSend+0x3a>
 8007dc8:	6c03      	ldr	r3, [r0, #64]	; 0x40
 8007dca:	b143      	cbz	r3, 8007dde <xQueueGenericSend+0x3a>
 8007dcc:	f04f 0350 	mov.w	r3, #80	; 0x50
 8007dd0:	f383 8811 	msr	BASEPRI, r3
 8007dd4:	f3bf 8f6f 	isb	sy
 8007dd8:	f3bf 8f4f 	dsb	sy
 8007ddc:	e7fe      	b.n	8007ddc <xQueueGenericSend+0x38>
 8007dde:	2f02      	cmp	r7, #2
 8007de0:	d10b      	bne.n	8007dfa <xQueueGenericSend+0x56>
 8007de2:	6be3      	ldr	r3, [r4, #60]	; 0x3c
 8007de4:	2b01      	cmp	r3, #1
 8007de6:	d008      	beq.n	8007dfa <xQueueGenericSend+0x56>
 8007de8:	f04f 0350 	mov.w	r3, #80	; 0x50
 8007dec:	f383 8811 	msr	BASEPRI, r3
 8007df0:	f3bf 8f6f 	isb	sy
 8007df4:	f3bf 8f4f 	dsb	sy
 8007df8:	e7fe      	b.n	8007df8 <xQueueGenericSend+0x54>
 8007dfa:	f000 fe53 	bl	8008aa4 <xTaskGetSchedulerState>
 8007dfe:	4606      	mov	r6, r0
 8007e00:	b950      	cbnz	r0, 8007e18 <xQueueGenericSend+0x74>
 8007e02:	9b01      	ldr	r3, [sp, #4]
 8007e04:	b14b      	cbz	r3, 8007e1a <xQueueGenericSend+0x76>
 8007e06:	f04f 0350 	mov.w	r3, #80	; 0x50
 8007e0a:	f383 8811 	msr	BASEPRI, r3
 8007e0e:	f3bf 8f6f 	isb	sy
 8007e12:	f3bf 8f4f 	dsb	sy
 8007e16:	e7fe      	b.n	8007e16 <xQueueGenericSend+0x72>
 8007e18:	2600      	movs	r6, #0
 8007e1a:	f04f 0900 	mov.w	r9, #0
 8007e1e:	e037      	b.n	8007e90 <xQueueGenericSend+0xec>
 8007e20:	9d01      	ldr	r5, [sp, #4]
 8007e22:	b91d      	cbnz	r5, 8007e2c <xQueueGenericSend+0x88>
 8007e24:	f001 f906 	bl	8009034 <vPortExitCritical>
 8007e28:	2000      	movs	r0, #0
 8007e2a:	e052      	b.n	8007ed2 <xQueueGenericSend+0x12e>
 8007e2c:	b916      	cbnz	r6, 8007e34 <xQueueGenericSend+0x90>
 8007e2e:	a802      	add	r0, sp, #8
 8007e30:	f000 fdea 	bl	8008a08 <vTaskInternalSetTimeOutState>
 8007e34:	f001 f8fe 	bl	8009034 <vPortExitCritical>
 8007e38:	f000 fbac 	bl	8008594 <vTaskSuspendAll>
 8007e3c:	f001 f8da 	bl	8008ff4 <vPortEnterCritical>
 8007e40:	f894 3044 	ldrb.w	r3, [r4, #68]	; 0x44
 8007e44:	2bff      	cmp	r3, #255	; 0xff
 8007e46:	bf08      	it	eq
 8007e48:	f884 9044 	strbeq.w	r9, [r4, #68]	; 0x44
 8007e4c:	f894 3045 	ldrb.w	r3, [r4, #69]	; 0x45
 8007e50:	2bff      	cmp	r3, #255	; 0xff
 8007e52:	bf08      	it	eq
 8007e54:	f884 9045 	strbeq.w	r9, [r4, #69]	; 0x45
 8007e58:	f001 f8ec 	bl	8009034 <vPortExitCritical>
 8007e5c:	a901      	add	r1, sp, #4
 8007e5e:	a802      	add	r0, sp, #8
 8007e60:	f000 fdde 	bl	8008a20 <xTaskCheckForTimeOut>
 8007e64:	2800      	cmp	r0, #0
 8007e66:	d14a      	bne.n	8007efe <xQueueGenericSend+0x15a>
 8007e68:	f001 f8c4 	bl	8008ff4 <vPortEnterCritical>
 8007e6c:	6ba2      	ldr	r2, [r4, #56]	; 0x38
 8007e6e:	6be3      	ldr	r3, [r4, #60]	; 0x3c
 8007e70:	429a      	cmp	r2, r3
 8007e72:	d131      	bne.n	8007ed8 <xQueueGenericSend+0x134>
 8007e74:	f001 f8de 	bl	8009034 <vPortExitCritical>
 8007e78:	9901      	ldr	r1, [sp, #4]
 8007e7a:	f104 0010 	add.w	r0, r4, #16
 8007e7e:	f000 fd47 	bl	8008910 <vTaskPlaceOnEventList>
 8007e82:	4620      	mov	r0, r4
 8007e84:	f7ff fec9 	bl	8007c1a <prvUnlockQueue>
 8007e88:	f000 fc28 	bl	80086dc <xTaskResumeAll>
 8007e8c:	b360      	cbz	r0, 8007ee8 <xQueueGenericSend+0x144>
 8007e8e:	2601      	movs	r6, #1
 8007e90:	f001 f8b0 	bl	8008ff4 <vPortEnterCritical>
 8007e94:	6ba2      	ldr	r2, [r4, #56]	; 0x38
 8007e96:	6be3      	ldr	r3, [r4, #60]	; 0x3c
 8007e98:	429a      	cmp	r2, r3
 8007e9a:	d301      	bcc.n	8007ea0 <xQueueGenericSend+0xfc>
 8007e9c:	2f02      	cmp	r7, #2
 8007e9e:	d1bf      	bne.n	8007e20 <xQueueGenericSend+0x7c>
 8007ea0:	463a      	mov	r2, r7
 8007ea2:	4641      	mov	r1, r8
 8007ea4:	4620      	mov	r0, r4
 8007ea6:	f7ff fe6d 	bl	8007b84 <prvCopyDataToQueue>
 8007eaa:	6a63      	ldr	r3, [r4, #36]	; 0x24
 8007eac:	b11b      	cbz	r3, 8007eb6 <xQueueGenericSend+0x112>
 8007eae:	f104 0024 	add.w	r0, r4, #36	; 0x24
 8007eb2:	f000 fd65 	bl	8008980 <xTaskRemoveFromEventList>
 8007eb6:	b148      	cbz	r0, 8007ecc <xQueueGenericSend+0x128>
 8007eb8:	f04f 23e0 	mov.w	r3, #3758153728	; 0xe000e000
 8007ebc:	f04f 5280 	mov.w	r2, #268435456	; 0x10000000
 8007ec0:	f8c3 2d04 	str.w	r2, [r3, #3332]	; 0xd04
 8007ec4:	f3bf 8f4f 	dsb	sy
 8007ec8:	f3bf 8f6f 	isb	sy
 8007ecc:	f001 f8b2 	bl	8009034 <vPortExitCritical>
 8007ed0:	2001      	movs	r0, #1
 8007ed2:	b005      	add	sp, #20
 8007ed4:	e8bd 83f0 	ldmia.w	sp!, {r4, r5, r6, r7, r8, r9, pc}
 8007ed8:	f001 f8ac 	bl	8009034 <vPortExitCritical>
 8007edc:	4620      	mov	r0, r4
 8007ede:	f7ff fe9c 	bl	8007c1a <prvUnlockQueue>
 8007ee2:	f000 fbfb 	bl	80086dc <xTaskResumeAll>
 8007ee6:	e7d2      	b.n	8007e8e <xQueueGenericSend+0xea>
 8007ee8:	f04f 23e0 	mov.w	r3, #3758153728	; 0xe000e000
 8007eec:	f04f 5280 	mov.w	r2, #268435456	; 0x10000000
 8007ef0:	f8c3 2d04 	str.w	r2, [r3, #3332]	; 0xd04
 8007ef4:	f3bf 8f4f 	dsb	sy
 8007ef8:	f3bf 8f6f 	isb	sy
 8007efc:	e7c7      	b.n	8007e8e <xQueueGenericSend+0xea>
 8007efe:	4620      	mov	r0, r4
 8007f00:	f7ff fe8b 	bl	8007c1a <prvUnlockQueue>
 8007f04:	f000 fbea 	bl	80086dc <xTaskResumeAll>
 8007f08:	e78e      	b.n	8007e28 <xQueueGenericSend+0x84>

08007f0a <xQueueGenericSendFromISR>:
 8007f0a:	e92d 43f8 	stmdb	sp!, {r3, r4, r5, r6, r7, r8, r9, lr}
 8007f0e:	4689      	mov	r9, r1
 8007f10:	4690      	mov	r8, r2
 8007f12:	461f      	mov	r7, r3
 8007f14:	4604      	mov	r4, r0
 8007f16:	b940      	cbnz	r0, 8007f2a <xQueueGenericSendFromISR+0x20>
 8007f18:	f04f 0350 	mov.w	r3, #80	; 0x50
 8007f1c:	f383 8811 	msr	BASEPRI, r3
 8007f20:	f3bf 8f6f 	isb	sy
 8007f24:	f3bf 8f4f 	dsb	sy
 8007f28:	e7fe      	b.n	8007f28 <xQueueGenericSendFromISR+0x1e>
 8007f2a:	b951      	cbnz	r1, 8007f42 <xQueueGenericSendFromISR+0x38>
 8007f2c:	6c03      	ldr	r3, [r0, #64]	; 0x40
 8007f2e:	b143      	cbz	r3, 8007f42 <xQueueGenericSendFromISR+0x38>
 8007f30:	f04f 0350 	mov.w	r3, #80	; 0x50
 8007f34:	f383 8811 	msr	BASEPRI, r3
 8007f38:	f3bf 8f6f 	isb	sy
 8007f3c:	f3bf 8f4f 	dsb	sy
 8007f40:	e7fe      	b.n	8007f40 <xQueueGenericSendFromISR+0x36>
 8007f42:	2f02      	cmp	r7, #2
 8007f44:	d10b      	bne.n	8007f5e <xQueueGenericSendFromISR+0x54>
 8007f46:	6be3      	ldr	r3, [r4, #60]	; 0x3c
 8007f48:	2b01      	cmp	r3, #1
 8007f4a:	d008      	beq.n	8007f5e <xQueueGenericSendFromISR+0x54>
 8007f4c:	f04f 0350 	mov.w	r3, #80	; 0x50
 8007f50:	f383 8811 	msr	BASEPRI, r3
 8007f54:	f3bf 8f6f 	isb	sy
 8007f58:	f3bf 8f4f 	dsb	sy
 8007f5c:	e7fe      	b.n	8007f5c <xQueueGenericSendFromISR+0x52>
 8007f5e:	f001 f95f 	bl	8009220 <vPortValidateInterruptPriority>
 8007f62:	f3ef 8611 	mrs	r6, BASEPRI
 8007f66:	f04f 0350 	mov.w	r3, #80	; 0x50
 8007f6a:	f383 8811 	msr	BASEPRI, r3
 8007f6e:	f3bf 8f6f 	isb	sy
 8007f72:	f3bf 8f4f 	dsb	sy
 8007f76:	6ba2      	ldr	r2, [r4, #56]	; 0x38
 8007f78:	6be3      	ldr	r3, [r4, #60]	; 0x3c
 8007f7a:	429a      	cmp	r2, r3
 8007f7c:	d301      	bcc.n	8007f82 <xQueueGenericSendFromISR+0x78>
 8007f7e:	2f02      	cmp	r7, #2
 8007f80:	d123      	bne.n	8007fca <xQueueGenericSendFromISR+0xc0>
 8007f82:	f894 5045 	ldrb.w	r5, [r4, #69]	; 0x45
 8007f86:	6ba3      	ldr	r3, [r4, #56]	; 0x38
 8007f88:	b26d      	sxtb	r5, r5
 8007f8a:	463a      	mov	r2, r7
 8007f8c:	4649      	mov	r1, r9
 8007f8e:	4620      	mov	r0, r4
 8007f90:	f7ff fdf8 	bl	8007b84 <prvCopyDataToQueue>
 8007f94:	1c6b      	adds	r3, r5, #1
 8007f96:	d113      	bne.n	8007fc0 <xQueueGenericSendFromISR+0xb6>
 8007f98:	6a63      	ldr	r3, [r4, #36]	; 0x24
 8007f9a:	b90b      	cbnz	r3, 8007fa0 <xQueueGenericSendFromISR+0x96>
 8007f9c:	2001      	movs	r0, #1
 8007f9e:	e00b      	b.n	8007fb8 <xQueueGenericSendFromISR+0xae>
 8007fa0:	f104 0024 	add.w	r0, r4, #36	; 0x24
 8007fa4:	f000 fcec 	bl	8008980 <xTaskRemoveFromEventList>
 8007fa8:	2800      	cmp	r0, #0
 8007faa:	d0f7      	beq.n	8007f9c <xQueueGenericSendFromISR+0x92>
 8007fac:	f1b8 0f00 	cmp.w	r8, #0
 8007fb0:	d0f4      	beq.n	8007f9c <xQueueGenericSendFromISR+0x92>
 8007fb2:	2001      	movs	r0, #1
 8007fb4:	f8c8 0000 	str.w	r0, [r8]
 8007fb8:	f386 8811 	msr	BASEPRI, r6
 8007fbc:	e8bd 83f8 	ldmia.w	sp!, {r3, r4, r5, r6, r7, r8, r9, pc}
 8007fc0:	3501      	adds	r5, #1
 8007fc2:	b26d      	sxtb	r5, r5
 8007fc4:	f884 5045 	strb.w	r5, [r4, #69]	; 0x45
 8007fc8:	e7e8      	b.n	8007f9c <xQueueGenericSendFromISR+0x92>
 8007fca:	2000      	movs	r0, #0
 8007fcc:	e7f4      	b.n	8007fb8 <xQueueGenericSendFromISR+0xae>

08007fce <xQueueReceive>:
 8007fce:	e92d 41ff 	stmdb	sp!, {r0, r1, r2, r3, r4, r5, r6, r7, r8, lr}
 8007fd2:	460f      	mov	r7, r1
 8007fd4:	9201      	str	r2, [sp, #4]
 8007fd6:	4604      	mov	r4, r0
 8007fd8:	b940      	cbnz	r0, 8007fec <xQueueReceive+0x1e>
 8007fda:	f04f 0350 	mov.w	r3, #80	; 0x50
 8007fde:	f383 8811 	msr	BASEPRI, r3
 8007fe2:	f3bf 8f6f 	isb	sy
 8007fe6:	f3bf 8f4f 	dsb	sy
 8007fea:	e7fe      	b.n	8007fea <xQueueReceive+0x1c>
 8007fec:	b951      	cbnz	r1, 8008004 <xQueueReceive+0x36>
 8007fee:	6c03      	ldr	r3, [r0, #64]	; 0x40
 8007ff0:	b143      	cbz	r3, 8008004 <xQueueReceive+0x36>
 8007ff2:	f04f 0350 	mov.w	r3, #80	; 0x50
 8007ff6:	f383 8811 	msr	BASEPRI, r3
 8007ffa:	f3bf 8f6f 	isb	sy
 8007ffe:	f3bf 8f4f 	dsb	sy
 8008002:	e7fe      	b.n	8008002 <xQueueReceive+0x34>
 8008004:	f000 fd4e 	bl	8008aa4 <xTaskGetSchedulerState>
 8008008:	4606      	mov	r6, r0
 800800a:	b950      	cbnz	r0, 8008022 <xQueueReceive+0x54>
 800800c:	9b01      	ldr	r3, [sp, #4]
 800800e:	b14b      	cbz	r3, 8008024 <xQueueReceive+0x56>
 8008010:	f04f 0350 	mov.w	r3, #80	; 0x50
 8008014:	f383 8811 	msr	BASEPRI, r3
 8008018:	f3bf 8f6f 	isb	sy
 800801c:	f3bf 8f4f 	dsb	sy
 8008020:	e7fe      	b.n	8008020 <xQueueReceive+0x52>
 8008022:	2600      	movs	r6, #0
 8008024:	f04f 0800 	mov.w	r8, #0
 8008028:	e03d      	b.n	80080a6 <xQueueReceive+0xd8>
 800802a:	9d01      	ldr	r5, [sp, #4]
 800802c:	b91d      	cbnz	r5, 8008036 <xQueueReceive+0x68>
 800802e:	f001 f801 	bl	8009034 <vPortExitCritical>
 8008032:	2000      	movs	r0, #0
 8008034:	e056      	b.n	80080e4 <xQueueReceive+0x116>
 8008036:	b916      	cbnz	r6, 800803e <xQueueReceive+0x70>
 8008038:	a802      	add	r0, sp, #8
 800803a:	f000 fce5 	bl	8008a08 <vTaskInternalSetTimeOutState>
 800803e:	f000 fff9 	bl	8009034 <vPortExitCritical>
 8008042:	f000 faa7 	bl	8008594 <vTaskSuspendAll>
 8008046:	f000 ffd5 	bl	8008ff4 <vPortEnterCritical>
 800804a:	f894 3044 	ldrb.w	r3, [r4, #68]	; 0x44
 800804e:	2bff      	cmp	r3, #255	; 0xff
 8008050:	bf08      	it	eq
 8008052:	f884 8044 	strbeq.w	r8, [r4, #68]	; 0x44
 8008056:	f894 3045 	ldrb.w	r3, [r4, #69]	; 0x45
 800805a:	2bff      	cmp	r3, #255	; 0xff
 800805c:	bf08      	it	eq
 800805e:	f884 8045 	strbeq.w	r8, [r4, #69]	; 0x45
 8008062:	f000 ffe7 	bl	8009034 <vPortExitCritical>
 8008066:	a901      	add	r1, sp, #4
 8008068:	a802      	add	r0, sp, #8
 800806a:	f000 fcd9 	bl	8008a20 <xTaskCheckForTimeOut>
 800806e:	2800      	cmp	r0, #0
 8008070:	d141      	bne.n	80080f6 <xQueueReceive+0x128>
 8008072:	4620      	mov	r0, r4
 8008074:	f7ff fd7b 	bl	8007b6e <prvIsQueueEmpty>
 8008078:	b3b8      	cbz	r0, 80080ea <xQueueReceive+0x11c>
 800807a:	9901      	ldr	r1, [sp, #4]
 800807c:	f104 0024 	add.w	r0, r4, #36	; 0x24
 8008080:	f000 fc46 	bl	8008910 <vTaskPlaceOnEventList>
 8008084:	4620      	mov	r0, r4
 8008086:	f7ff fdc8 	bl	8007c1a <prvUnlockQueue>
 800808a:	f000 fb27 	bl	80086dc <xTaskResumeAll>
 800808e:	b948      	cbnz	r0, 80080a4 <xQueueReceive+0xd6>
 8008090:	f04f 23e0 	mov.w	r3, #3758153728	; 0xe000e000
 8008094:	f04f 5280 	mov.w	r2, #268435456	; 0x10000000
 8008098:	f8c3 2d04 	str.w	r2, [r3, #3332]	; 0xd04
 800809c:	f3bf 8f4f 	dsb	sy
 80080a0:	f3bf 8f6f 	isb	sy
 80080a4:	2601      	movs	r6, #1
 80080a6:	f000 ffa5 	bl	8008ff4 <vPortEnterCritical>
 80080aa:	6ba5      	ldr	r5, [r4, #56]	; 0x38
 80080ac:	2d00      	cmp	r5, #0
 80080ae:	d0bc      	beq.n	800802a <xQueueReceive+0x5c>
 80080b0:	4639      	mov	r1, r7
 80080b2:	4620      	mov	r0, r4
 80080b4:	3d01      	subs	r5, #1
 80080b6:	f7ff fd9a 	bl	8007bee <prvCopyDataFromQueue>
 80080ba:	63a5      	str	r5, [r4, #56]	; 0x38
 80080bc:	6923      	ldr	r3, [r4, #16]
 80080be:	b173      	cbz	r3, 80080de <xQueueReceive+0x110>
 80080c0:	f104 0010 	add.w	r0, r4, #16
 80080c4:	f000 fc5c 	bl	8008980 <xTaskRemoveFromEventList>
 80080c8:	b148      	cbz	r0, 80080de <xQueueReceive+0x110>
 80080ca:	f04f 23e0 	mov.w	r3, #3758153728	; 0xe000e000
 80080ce:	f04f 5280 	mov.w	r2, #268435456	; 0x10000000
 80080d2:	f8c3 2d04 	str.w	r2, [r3, #3332]	; 0xd04
 80080d6:	f3bf 8f4f 	dsb	sy
 80080da:	f3bf 8f6f 	isb	sy
 80080de:	f000 ffa9 	bl	8009034 <vPortExitCritical>
 80080e2:	2001      	movs	r0, #1
 80080e4:	b004      	add	sp, #16
 80080e6:	e8bd 81f0 	ldmia.w	sp!, {r4, r5, r6, r7, r8, pc}
 80080ea:	4620      	mov	r0, r4
 80080ec:	f7ff fd95 	bl	8007c1a <prvUnlockQueue>
 80080f0:	f000 faf4 	bl	80086dc <xTaskResumeAll>
 80080f4:	e7d6      	b.n	80080a4 <xQueueReceive+0xd6>
 80080f6:	4620      	mov	r0, r4
 80080f8:	f7ff fd8f 	bl	8007c1a <prvUnlockQueue>
 80080fc:	f000 faee 	bl	80086dc <xTaskResumeAll>
 8008100:	4620      	mov	r0, r4
 8008102:	f7ff fd34 	bl	8007b6e <prvIsQueueEmpty>
 8008106:	2800      	cmp	r0, #0
 8008108:	d0cc      	beq.n	80080a4 <xQueueReceive+0xd6>
 800810a:	e792      	b.n	8008032 <xQueueReceive+0x64>

0800810c <vQueueAddToRegistry>:
 800810c:	b510      	push	{r4, lr}
 800810e:	4a07      	ldr	r2, [pc, #28]	; (800812c <vQueueAddToRegistry+0x20>)
 8008110:	2300      	movs	r3, #0
 8008112:	f852 4033 	ldr.w	r4, [r2, r3, lsl #3]
 8008116:	b92c      	cbnz	r4, 8008124 <vQueueAddToRegistry+0x18>
 8008118:	f842 1033 	str.w	r1, [r2, r3, lsl #3]
 800811c:	eb02 03c3 	add.w	r3, r2, r3, lsl #3
 8008120:	6058      	str	r0, [r3, #4]
 8008122:	bd10      	pop	{r4, pc}
 8008124:	3301      	adds	r3, #1
 8008126:	2b08      	cmp	r3, #8
 8008128:	d1f3      	bne.n	8008112 <vQueueAddToRegistry+0x6>
 800812a:	e7fa      	b.n	8008122 <vQueueAddToRegistry+0x16>
 800812c:	20001d24 	.word	0x20001d24

08008130 <vQueueWaitForMessageRestricted>:
 8008130:	b570      	push	{r4, r5, r6, lr}
 8008132:	4604      	mov	r4, r0
 8008134:	460d      	mov	r5, r1
 8008136:	4616      	mov	r6, r2
 8008138:	f000 ff5c 	bl	8008ff4 <vPortEnterCritical>
 800813c:	f894 3044 	ldrb.w	r3, [r4, #68]	; 0x44
 8008140:	2bff      	cmp	r3, #255	; 0xff
 8008142:	bf04      	itt	eq
 8008144:	2300      	moveq	r3, #0
 8008146:	f884 3044 	strbeq.w	r3, [r4, #68]	; 0x44
 800814a:	f894 3045 	ldrb.w	r3, [r4, #69]	; 0x45
 800814e:	2bff      	cmp	r3, #255	; 0xff
 8008150:	bf04      	itt	eq
 8008152:	2300      	moveq	r3, #0
 8008154:	f884 3045 	strbeq.w	r3, [r4, #69]	; 0x45
 8008158:	f000 ff6c 	bl	8009034 <vPortExitCritical>
 800815c:	6ba3      	ldr	r3, [r4, #56]	; 0x38
 800815e:	b92b      	cbnz	r3, 800816c <vQueueWaitForMessageRestricted+0x3c>
 8008160:	4632      	mov	r2, r6
 8008162:	4629      	mov	r1, r5
 8008164:	f104 0024 	add.w	r0, r4, #36	; 0x24
 8008168:	f000 fbec 	bl	8008944 <vTaskPlaceOnEventListRestricted>
 800816c:	4620      	mov	r0, r4
 800816e:	e8bd 4070 	ldmia.w	sp!, {r4, r5, r6, lr}
 8008172:	f7ff bd52 	b.w	8007c1a <prvUnlockQueue>
	...

08008178 <prvAddNewTaskToReadyList>:
 8008178:	e92d 41f0 	stmdb	sp!, {r4, r5, r6, r7, r8, lr}
 800817c:	4604      	mov	r4, r0
 800817e:	f000 ff39 	bl	8008ff4 <vPortEnterCritical>
 8008182:	4b30      	ldr	r3, [pc, #192]	; (8008244 <prvAddNewTaskToReadyList+0xcc>)
 8008184:	4e30      	ldr	r6, [pc, #192]	; (8008248 <prvAddNewTaskToReadyList+0xd0>)
 8008186:	681a      	ldr	r2, [r3, #0]
 8008188:	4f30      	ldr	r7, [pc, #192]	; (800824c <prvAddNewTaskToReadyList+0xd4>)
 800818a:	3201      	adds	r2, #1
 800818c:	601a      	str	r2, [r3, #0]
 800818e:	6835      	ldr	r5, [r6, #0]
 8008190:	2d00      	cmp	r5, #0
 8008192:	d14b      	bne.n	800822c <prvAddNewTaskToReadyList+0xb4>
 8008194:	6034      	str	r4, [r6, #0]
 8008196:	681b      	ldr	r3, [r3, #0]
 8008198:	2b01      	cmp	r3, #1
 800819a:	d11f      	bne.n	80081dc <prvAddNewTaskToReadyList+0x64>
 800819c:	46b8      	mov	r8, r7
 800819e:	4640      	mov	r0, r8
 80081a0:	3501      	adds	r5, #1
 80081a2:	f7ff fca3 	bl	8007aec <vListInitialise>
 80081a6:	2d38      	cmp	r5, #56	; 0x38
 80081a8:	f108 0814 	add.w	r8, r8, #20
 80081ac:	d1f7      	bne.n	800819e <prvAddNewTaskToReadyList+0x26>
 80081ae:	f8df 80c4 	ldr.w	r8, [pc, #196]	; 8008274 <prvAddNewTaskToReadyList+0xfc>
 80081b2:	4d27      	ldr	r5, [pc, #156]	; (8008250 <prvAddNewTaskToReadyList+0xd8>)
 80081b4:	4640      	mov	r0, r8
 80081b6:	f7ff fc99 	bl	8007aec <vListInitialise>
 80081ba:	4628      	mov	r0, r5
 80081bc:	f7ff fc96 	bl	8007aec <vListInitialise>
 80081c0:	4824      	ldr	r0, [pc, #144]	; (8008254 <prvAddNewTaskToReadyList+0xdc>)
 80081c2:	f7ff fc93 	bl	8007aec <vListInitialise>
 80081c6:	4824      	ldr	r0, [pc, #144]	; (8008258 <prvAddNewTaskToReadyList+0xe0>)
 80081c8:	f7ff fc90 	bl	8007aec <vListInitialise>
 80081cc:	4823      	ldr	r0, [pc, #140]	; (800825c <prvAddNewTaskToReadyList+0xe4>)
 80081ce:	f7ff fc8d 	bl	8007aec <vListInitialise>
 80081d2:	4b23      	ldr	r3, [pc, #140]	; (8008260 <prvAddNewTaskToReadyList+0xe8>)
 80081d4:	f8c3 8000 	str.w	r8, [r3]
 80081d8:	4b22      	ldr	r3, [pc, #136]	; (8008264 <prvAddNewTaskToReadyList+0xec>)
 80081da:	601d      	str	r5, [r3, #0]
 80081dc:	4a22      	ldr	r2, [pc, #136]	; (8008268 <prvAddNewTaskToReadyList+0xf0>)
 80081de:	6813      	ldr	r3, [r2, #0]
 80081e0:	3301      	adds	r3, #1
 80081e2:	6013      	str	r3, [r2, #0]
 80081e4:	4a21      	ldr	r2, [pc, #132]	; (800826c <prvAddNewTaskToReadyList+0xf4>)
 80081e6:	6463      	str	r3, [r4, #68]	; 0x44
 80081e8:	6811      	ldr	r1, [r2, #0]
 80081ea:	6ae3      	ldr	r3, [r4, #44]	; 0x2c
 80081ec:	2014      	movs	r0, #20
 80081ee:	428b      	cmp	r3, r1
 80081f0:	fb00 7003 	mla	r0, r0, r3, r7
 80081f4:	f104 0104 	add.w	r1, r4, #4
 80081f8:	bf88      	it	hi
 80081fa:	6013      	strhi	r3, [r2, #0]
 80081fc:	f7ff fc84 	bl	8007b08 <vListInsertEnd>
 8008200:	f000 ff18 	bl	8009034 <vPortExitCritical>
 8008204:	4b1a      	ldr	r3, [pc, #104]	; (8008270 <prvAddNewTaskToReadyList+0xf8>)
 8008206:	681b      	ldr	r3, [r3, #0]
 8008208:	b173      	cbz	r3, 8008228 <prvAddNewTaskToReadyList+0xb0>
 800820a:	6833      	ldr	r3, [r6, #0]
 800820c:	6ada      	ldr	r2, [r3, #44]	; 0x2c
 800820e:	6ae3      	ldr	r3, [r4, #44]	; 0x2c
 8008210:	429a      	cmp	r2, r3
 8008212:	d209      	bcs.n	8008228 <prvAddNewTaskToReadyList+0xb0>
 8008214:	f04f 23e0 	mov.w	r3, #3758153728	; 0xe000e000
 8008218:	f04f 5280 	mov.w	r2, #268435456	; 0x10000000
 800821c:	f8c3 2d04 	str.w	r2, [r3, #3332]	; 0xd04
 8008220:	f3bf 8f4f 	dsb	sy
 8008224:	f3bf 8f6f 	isb	sy
 8008228:	e8bd 81f0 	ldmia.w	sp!, {r4, r5, r6, r7, r8, pc}
 800822c:	4b10      	ldr	r3, [pc, #64]	; (8008270 <prvAddNewTaskToReadyList+0xf8>)
 800822e:	681b      	ldr	r3, [r3, #0]
 8008230:	2b00      	cmp	r3, #0
 8008232:	d1d3      	bne.n	80081dc <prvAddNewTaskToReadyList+0x64>
 8008234:	6833      	ldr	r3, [r6, #0]
 8008236:	6ada      	ldr	r2, [r3, #44]	; 0x2c
 8008238:	6ae3      	ldr	r3, [r4, #44]	; 0x2c
 800823a:	429a      	cmp	r2, r3
 800823c:	bf98      	it	ls
 800823e:	6034      	strls	r4, [r6, #0]
 8008240:	e7cc      	b.n	80081dc <prvAddNewTaskToReadyList+0x64>
 8008242:	bf00      	nop
 8008244:	200021d0 	.word	0x200021d0
 8008248:	20001d64 	.word	0x20001d64
 800824c:	20001d70 	.word	0x20001d70
 8008250:	200021f8 	.word	0x200021f8
 8008254:	20002218 	.word	0x20002218
 8008258:	20002244 	.word	0x20002244
 800825c:	20002230 	.word	0x20002230
 8008260:	20001d68 	.word	0x20001d68
 8008264:	20001d6c 	.word	0x20001d6c
 8008268:	200021dc 	.word	0x200021dc
 800826c:	200021e0 	.word	0x200021e0
 8008270:	2000222c 	.word	0x2000222c
 8008274:	200021e4 	.word	0x200021e4

08008278 <prvAddCurrentTaskToDelayedList>:
 8008278:	b5f8      	push	{r3, r4, r5, r6, r7, lr}
 800827a:	4b15      	ldr	r3, [pc, #84]	; (80082d0 <prvAddCurrentTaskToDelayedList+0x58>)
 800827c:	4e15      	ldr	r6, [pc, #84]	; (80082d4 <prvAddCurrentTaskToDelayedList+0x5c>)
 800827e:	681d      	ldr	r5, [r3, #0]
 8008280:	4604      	mov	r4, r0
 8008282:	6830      	ldr	r0, [r6, #0]
 8008284:	3004      	adds	r0, #4
 8008286:	460f      	mov	r7, r1
 8008288:	f7ff fc61 	bl	8007b4e <uxListRemove>
 800828c:	1c63      	adds	r3, r4, #1
 800828e:	d107      	bne.n	80082a0 <prvAddCurrentTaskToDelayedList+0x28>
 8008290:	b137      	cbz	r7, 80082a0 <prvAddCurrentTaskToDelayedList+0x28>
 8008292:	6831      	ldr	r1, [r6, #0]
 8008294:	4810      	ldr	r0, [pc, #64]	; (80082d8 <prvAddCurrentTaskToDelayedList+0x60>)
 8008296:	e8bd 40f8 	ldmia.w	sp!, {r3, r4, r5, r6, r7, lr}
 800829a:	3104      	adds	r1, #4
 800829c:	f7ff bc34 	b.w	8007b08 <vListInsertEnd>
 80082a0:	6833      	ldr	r3, [r6, #0]
 80082a2:	192c      	adds	r4, r5, r4
 80082a4:	605c      	str	r4, [r3, #4]
 80082a6:	d307      	bcc.n	80082b8 <prvAddCurrentTaskToDelayedList+0x40>
 80082a8:	4b0c      	ldr	r3, [pc, #48]	; (80082dc <prvAddCurrentTaskToDelayedList+0x64>)
 80082aa:	6818      	ldr	r0, [r3, #0]
 80082ac:	6831      	ldr	r1, [r6, #0]
 80082ae:	e8bd 40f8 	ldmia.w	sp!, {r3, r4, r5, r6, r7, lr}
 80082b2:	3104      	adds	r1, #4
 80082b4:	f7ff bc34 	b.w	8007b20 <vListInsert>
 80082b8:	4b09      	ldr	r3, [pc, #36]	; (80082e0 <prvAddCurrentTaskToDelayedList+0x68>)
 80082ba:	6818      	ldr	r0, [r3, #0]
 80082bc:	6831      	ldr	r1, [r6, #0]
 80082be:	3104      	adds	r1, #4
 80082c0:	f7ff fc2e 	bl	8007b20 <vListInsert>
 80082c4:	4b07      	ldr	r3, [pc, #28]	; (80082e4 <prvAddCurrentTaskToDelayedList+0x6c>)
 80082c6:	681a      	ldr	r2, [r3, #0]
 80082c8:	42a2      	cmp	r2, r4
 80082ca:	bf88      	it	hi
 80082cc:	601c      	strhi	r4, [r3, #0]
 80082ce:	bdf8      	pop	{r3, r4, r5, r6, r7, pc}
 80082d0:	20002258 	.word	0x20002258
 80082d4:	20001d64 	.word	0x20001d64
 80082d8:	20002230 	.word	0x20002230
 80082dc:	20001d6c 	.word	0x20001d6c
 80082e0:	20001d68 	.word	0x20001d68
 80082e4:	2000220c 	.word	0x2000220c

080082e8 <prvResetNextTaskUnblockTime>:
 80082e8:	4a06      	ldr	r2, [pc, #24]	; (8008304 <prvResetNextTaskUnblockTime+0x1c>)
 80082ea:	6813      	ldr	r3, [r2, #0]
 80082ec:	6819      	ldr	r1, [r3, #0]
 80082ee:	4b06      	ldr	r3, [pc, #24]	; (8008308 <prvResetNextTaskUnblockTime+0x20>)
 80082f0:	b919      	cbnz	r1, 80082fa <prvResetNextTaskUnblockTime+0x12>
 80082f2:	f04f 32ff 	mov.w	r2, #4294967295
 80082f6:	601a      	str	r2, [r3, #0]
 80082f8:	4770      	bx	lr
 80082fa:	6812      	ldr	r2, [r2, #0]
 80082fc:	68d2      	ldr	r2, [r2, #12]
 80082fe:	68d2      	ldr	r2, [r2, #12]
 8008300:	6852      	ldr	r2, [r2, #4]
 8008302:	e7f8      	b.n	80082f6 <prvResetNextTaskUnblockTime+0xe>
 8008304:	20001d68 	.word	0x20001d68
 8008308:	2000220c 	.word	0x2000220c

0800830c <prvDeleteTCB>:
 800830c:	b510      	push	{r4, lr}
 800830e:	f890 3059 	ldrb.w	r3, [r0, #89]	; 0x59
 8008312:	4604      	mov	r4, r0
 8008314:	b93b      	cbnz	r3, 8008326 <prvDeleteTCB+0x1a>
 8008316:	6b00      	ldr	r0, [r0, #48]	; 0x30
 8008318:	f001 f86c 	bl	80093f4 <vPortFree>
 800831c:	4620      	mov	r0, r4
 800831e:	e8bd 4010 	ldmia.w	sp!, {r4, lr}
 8008322:	f001 b867 	b.w	80093f4 <vPortFree>
 8008326:	2b01      	cmp	r3, #1
 8008328:	d0f9      	beq.n	800831e <prvDeleteTCB+0x12>
 800832a:	2b02      	cmp	r3, #2
 800832c:	d008      	beq.n	8008340 <prvDeleteTCB+0x34>
 800832e:	f04f 0350 	mov.w	r3, #80	; 0x50
 8008332:	f383 8811 	msr	BASEPRI, r3
 8008336:	f3bf 8f6f 	isb	sy
 800833a:	f3bf 8f4f 	dsb	sy
 800833e:	e7fe      	b.n	800833e <prvDeleteTCB+0x32>
 8008340:	bd10      	pop	{r4, pc}
	...

08008344 <prvIdleTask>:
 8008344:	b580      	push	{r7, lr}
 8008346:	4c13      	ldr	r4, [pc, #76]	; (8008394 <prvIdleTask+0x50>)
 8008348:	4f13      	ldr	r7, [pc, #76]	; (8008398 <prvIdleTask+0x54>)
 800834a:	4d14      	ldr	r5, [pc, #80]	; (800839c <prvIdleTask+0x58>)
 800834c:	6823      	ldr	r3, [r4, #0]
 800834e:	b973      	cbnz	r3, 800836e <prvIdleTask+0x2a>
 8008350:	4b13      	ldr	r3, [pc, #76]	; (80083a0 <prvIdleTask+0x5c>)
 8008352:	681b      	ldr	r3, [r3, #0]
 8008354:	2b01      	cmp	r3, #1
 8008356:	d9f8      	bls.n	800834a <prvIdleTask+0x6>
 8008358:	f04f 23e0 	mov.w	r3, #3758153728	; 0xe000e000
 800835c:	f04f 5280 	mov.w	r2, #268435456	; 0x10000000
 8008360:	f8c3 2d04 	str.w	r2, [r3, #3332]	; 0xd04
 8008364:	f3bf 8f4f 	dsb	sy
 8008368:	f3bf 8f6f 	isb	sy
 800836c:	e7ed      	b.n	800834a <prvIdleTask+0x6>
 800836e:	f000 fe41 	bl	8008ff4 <vPortEnterCritical>
 8008372:	68fb      	ldr	r3, [r7, #12]
 8008374:	68de      	ldr	r6, [r3, #12]
 8008376:	1d30      	adds	r0, r6, #4
 8008378:	f7ff fbe9 	bl	8007b4e <uxListRemove>
 800837c:	682b      	ldr	r3, [r5, #0]
 800837e:	3b01      	subs	r3, #1
 8008380:	602b      	str	r3, [r5, #0]
 8008382:	6823      	ldr	r3, [r4, #0]
 8008384:	3b01      	subs	r3, #1
 8008386:	6023      	str	r3, [r4, #0]
 8008388:	f000 fe54 	bl	8009034 <vPortExitCritical>
 800838c:	4630      	mov	r0, r6
 800838e:	f7ff ffbd 	bl	800830c <prvDeleteTCB>
 8008392:	e7db      	b.n	800834c <prvIdleTask+0x8>
 8008394:	200021d4 	.word	0x200021d4
 8008398:	20002244 	.word	0x20002244
 800839c:	200021d0 	.word	0x200021d0
 80083a0:	20001d70 	.word	0x20001d70

080083a4 <prvInitialiseNewTask.constprop.0>:
 80083a4:	e92d 47f0 	stmdb	sp!, {r4, r5, r6, r7, r8, r9, sl, lr}
 80083a8:	e9dd 8409 	ldrd	r8, r4, [sp, #36]	; 0x24
 80083ac:	ea4f 0982 	mov.w	r9, r2, lsl #2
 80083b0:	464a      	mov	r2, r9
 80083b2:	4606      	mov	r6, r0
 80083b4:	460d      	mov	r5, r1
 80083b6:	6b20      	ldr	r0, [r4, #48]	; 0x30
 80083b8:	21a5      	movs	r1, #165	; 0xa5
 80083ba:	461f      	mov	r7, r3
 80083bc:	f001 fa70 	bl	80098a0 <memset>
 80083c0:	6b22      	ldr	r2, [r4, #48]	; 0x30
 80083c2:	f1a9 0904 	sub.w	r9, r9, #4
 80083c6:	4491      	add	r9, r2
 80083c8:	f029 0907 	bic.w	r9, r9, #7
 80083cc:	b3a5      	cbz	r5, 8008438 <prvInitialiseNewTask.constprop.0+0x94>
 80083ce:	1e6b      	subs	r3, r5, #1
 80083d0:	f104 0234 	add.w	r2, r4, #52	; 0x34
 80083d4:	350f      	adds	r5, #15
 80083d6:	f813 0f01 	ldrb.w	r0, [r3, #1]!
 80083da:	f802 0b01 	strb.w	r0, [r2], #1
 80083de:	b108      	cbz	r0, 80083e4 <prvInitialiseNewTask.constprop.0+0x40>
 80083e0:	42ab      	cmp	r3, r5
 80083e2:	d1f8      	bne.n	80083d6 <prvInitialiseNewTask.constprop.0+0x32>
 80083e4:	2300      	movs	r3, #0
 80083e6:	f884 3043 	strb.w	r3, [r4, #67]	; 0x43
 80083ea:	9d08      	ldr	r5, [sp, #32]
 80083ec:	2d37      	cmp	r5, #55	; 0x37
 80083ee:	bf28      	it	cs
 80083f0:	2537      	movcs	r5, #55	; 0x37
 80083f2:	f04f 0a00 	mov.w	sl, #0
 80083f6:	62e5      	str	r5, [r4, #44]	; 0x2c
 80083f8:	64e5      	str	r5, [r4, #76]	; 0x4c
 80083fa:	1d20      	adds	r0, r4, #4
 80083fc:	f8c4 a050 	str.w	sl, [r4, #80]	; 0x50
 8008400:	f7ff fb7f 	bl	8007b02 <vListInitialiseItem>
 8008404:	f1c5 0538 	rsb	r5, r5, #56	; 0x38
 8008408:	f104 0018 	add.w	r0, r4, #24
 800840c:	f7ff fb79 	bl	8007b02 <vListInitialiseItem>
 8008410:	f8c4 a054 	str.w	sl, [r4, #84]	; 0x54
 8008414:	6124      	str	r4, [r4, #16]
 8008416:	61a5      	str	r5, [r4, #24]
 8008418:	6264      	str	r4, [r4, #36]	; 0x24
 800841a:	f884 a058 	strb.w	sl, [r4, #88]	; 0x58
 800841e:	463a      	mov	r2, r7
 8008420:	4631      	mov	r1, r6
 8008422:	4648      	mov	r0, r9
 8008424:	f000 fdbc 	bl	8008fa0 <pxPortInitialiseStack>
 8008428:	6020      	str	r0, [r4, #0]
 800842a:	f1b8 0f00 	cmp.w	r8, #0
 800842e:	d001      	beq.n	8008434 <prvInitialiseNewTask.constprop.0+0x90>
 8008430:	f8c8 4000 	str.w	r4, [r8]
 8008434:	e8bd 87f0 	ldmia.w	sp!, {r4, r5, r6, r7, r8, r9, sl, pc}
 8008438:	f884 5034 	strb.w	r5, [r4, #52]	; 0x34
 800843c:	e7d5      	b.n	80083ea <prvInitialiseNewTask.constprop.0+0x46>

0800843e <xTaskCreateStatic>:
 800843e:	b570      	push	{r4, r5, r6, lr}
 8008440:	b086      	sub	sp, #24
 8008442:	e9dd 540b 	ldrd	r5, r4, [sp, #44]	; 0x2c
 8008446:	b945      	cbnz	r5, 800845a <xTaskCreateStatic+0x1c>
 8008448:	f04f 0350 	mov.w	r3, #80	; 0x50
 800844c:	f383 8811 	msr	BASEPRI, r3
 8008450:	f3bf 8f6f 	isb	sy
 8008454:	f3bf 8f4f 	dsb	sy
 8008458:	e7fe      	b.n	8008458 <xTaskCreateStatic+0x1a>
 800845a:	b944      	cbnz	r4, 800846e <xTaskCreateStatic+0x30>
 800845c:	f04f 0350 	mov.w	r3, #80	; 0x50
 8008460:	f383 8811 	msr	BASEPRI, r3
 8008464:	f3bf 8f6f 	isb	sy
 8008468:	f3bf 8f4f 	dsb	sy
 800846c:	e7fe      	b.n	800846c <xTaskCreateStatic+0x2e>
 800846e:	265c      	movs	r6, #92	; 0x5c
 8008470:	9605      	str	r6, [sp, #20]
 8008472:	9e05      	ldr	r6, [sp, #20]
 8008474:	2e5c      	cmp	r6, #92	; 0x5c
 8008476:	d008      	beq.n	800848a <xTaskCreateStatic+0x4c>
 8008478:	f04f 0350 	mov.w	r3, #80	; 0x50
 800847c:	f383 8811 	msr	BASEPRI, r3
 8008480:	f3bf 8f6f 	isb	sy
 8008484:	f3bf 8f4f 	dsb	sy
 8008488:	e7fe      	b.n	8008488 <xTaskCreateStatic+0x4a>
 800848a:	6325      	str	r5, [r4, #48]	; 0x30
 800848c:	2502      	movs	r5, #2
 800848e:	f884 5059 	strb.w	r5, [r4, #89]	; 0x59
 8008492:	ad04      	add	r5, sp, #16
 8008494:	9501      	str	r5, [sp, #4]
 8008496:	9d0a      	ldr	r5, [sp, #40]	; 0x28
 8008498:	9402      	str	r4, [sp, #8]
 800849a:	9500      	str	r5, [sp, #0]
 800849c:	9e05      	ldr	r6, [sp, #20]
 800849e:	f7ff ff81 	bl	80083a4 <prvInitialiseNewTask.constprop.0>
 80084a2:	4620      	mov	r0, r4
 80084a4:	f7ff fe68 	bl	8008178 <prvAddNewTaskToReadyList>
 80084a8:	9804      	ldr	r0, [sp, #16]
 80084aa:	b006      	add	sp, #24
 80084ac:	bd70      	pop	{r4, r5, r6, pc}

080084ae <xTaskCreate>:
 80084ae:	e92d 43f0 	stmdb	sp!, {r4, r5, r6, r7, r8, r9, lr}
 80084b2:	4607      	mov	r7, r0
 80084b4:	b085      	sub	sp, #20
 80084b6:	0090      	lsls	r0, r2, #2
 80084b8:	4688      	mov	r8, r1
 80084ba:	4616      	mov	r6, r2
 80084bc:	4699      	mov	r9, r3
 80084be:	f000 ff01 	bl	80092c4 <pvPortMalloc>
 80084c2:	4605      	mov	r5, r0
 80084c4:	b1e8      	cbz	r0, 8008502 <xTaskCreate+0x54>
 80084c6:	205c      	movs	r0, #92	; 0x5c
 80084c8:	f000 fefc 	bl	80092c4 <pvPortMalloc>
 80084cc:	4604      	mov	r4, r0
 80084ce:	b1a8      	cbz	r0, 80084fc <xTaskCreate+0x4e>
 80084d0:	2300      	movs	r3, #0
 80084d2:	f880 3059 	strb.w	r3, [r0, #89]	; 0x59
 80084d6:	9b0d      	ldr	r3, [sp, #52]	; 0x34
 80084d8:	6305      	str	r5, [r0, #48]	; 0x30
 80084da:	9301      	str	r3, [sp, #4]
 80084dc:	9b0c      	ldr	r3, [sp, #48]	; 0x30
 80084de:	9002      	str	r0, [sp, #8]
 80084e0:	9300      	str	r3, [sp, #0]
 80084e2:	4632      	mov	r2, r6
 80084e4:	464b      	mov	r3, r9
 80084e6:	4641      	mov	r1, r8
 80084e8:	4638      	mov	r0, r7
 80084ea:	f7ff ff5b 	bl	80083a4 <prvInitialiseNewTask.constprop.0>
 80084ee:	4620      	mov	r0, r4
 80084f0:	f7ff fe42 	bl	8008178 <prvAddNewTaskToReadyList>
 80084f4:	2001      	movs	r0, #1
 80084f6:	b005      	add	sp, #20
 80084f8:	e8bd 83f0 	ldmia.w	sp!, {r4, r5, r6, r7, r8, r9, pc}
 80084fc:	4628      	mov	r0, r5
 80084fe:	f000 ff79 	bl	80093f4 <vPortFree>
 8008502:	f04f 30ff 	mov.w	r0, #4294967295
 8008506:	e7f6      	b.n	80084f6 <xTaskCreate+0x48>

08008508 <vTaskStartScheduler>:
 8008508:	b510      	push	{r4, lr}
 800850a:	b088      	sub	sp, #32
 800850c:	2400      	movs	r4, #0
 800850e:	aa07      	add	r2, sp, #28
 8008510:	a906      	add	r1, sp, #24
 8008512:	a805      	add	r0, sp, #20
 8008514:	e9cd 4405 	strd	r4, r4, [sp, #20]
 8008518:	f7ff fad0 	bl	8007abc <vApplicationGetIdleTaskMemory>
 800851c:	9b05      	ldr	r3, [sp, #20]
 800851e:	9302      	str	r3, [sp, #8]
 8008520:	9b06      	ldr	r3, [sp, #24]
 8008522:	9a07      	ldr	r2, [sp, #28]
 8008524:	4916      	ldr	r1, [pc, #88]	; (8008580 <vTaskStartScheduler+0x78>)
 8008526:	4817      	ldr	r0, [pc, #92]	; (8008584 <vTaskStartScheduler+0x7c>)
 8008528:	e9cd 4300 	strd	r4, r3, [sp]
 800852c:	4623      	mov	r3, r4
 800852e:	f7ff ff86 	bl	800843e <xTaskCreateStatic>
 8008532:	b318      	cbz	r0, 800857c <vTaskStartScheduler+0x74>
 8008534:	f000 fb5c 	bl	8008bf0 <xTimerCreateTimerTask>
 8008538:	2801      	cmp	r0, #1
 800853a:	d114      	bne.n	8008566 <vTaskStartScheduler+0x5e>
 800853c:	f04f 0350 	mov.w	r3, #80	; 0x50
 8008540:	f383 8811 	msr	BASEPRI, r3
 8008544:	f3bf 8f6f 	isb	sy
 8008548:	f3bf 8f4f 	dsb	sy
 800854c:	4b0e      	ldr	r3, [pc, #56]	; (8008588 <vTaskStartScheduler+0x80>)
 800854e:	f04f 32ff 	mov.w	r2, #4294967295
 8008552:	601a      	str	r2, [r3, #0]
 8008554:	4b0d      	ldr	r3, [pc, #52]	; (800858c <vTaskStartScheduler+0x84>)
 8008556:	6018      	str	r0, [r3, #0]
 8008558:	4b0d      	ldr	r3, [pc, #52]	; (8008590 <vTaskStartScheduler+0x88>)
 800855a:	601c      	str	r4, [r3, #0]
 800855c:	b008      	add	sp, #32
 800855e:	e8bd 4010 	ldmia.w	sp!, {r4, lr}
 8008562:	f000 bdd7 	b.w	8009114 <xPortStartScheduler>
 8008566:	3001      	adds	r0, #1
 8008568:	d108      	bne.n	800857c <vTaskStartScheduler+0x74>
 800856a:	f04f 0350 	mov.w	r3, #80	; 0x50
 800856e:	f383 8811 	msr	BASEPRI, r3
 8008572:	f3bf 8f6f 	isb	sy
 8008576:	f3bf 8f4f 	dsb	sy
 800857a:	e7fe      	b.n	800857a <vTaskStartScheduler+0x72>
 800857c:	b008      	add	sp, #32
 800857e:	bd10      	pop	{r4, pc}
 8008580:	0800e298 	.word	0x0800e298
 8008584:	08008345 	.word	0x08008345
 8008588:	2000220c 	.word	0x2000220c
 800858c:	2000222c 	.word	0x2000222c
 8008590:	20002258 	.word	0x20002258

08008594 <vTaskSuspendAll>:
 8008594:	4a02      	ldr	r2, [pc, #8]	; (80085a0 <vTaskSuspendAll+0xc>)
 8008596:	6813      	ldr	r3, [r2, #0]
 8008598:	3301      	adds	r3, #1
 800859a:	6013      	str	r3, [r2, #0]
 800859c:	4770      	bx	lr
 800859e:	bf00      	nop
 80085a0:	200021d8 	.word	0x200021d8

080085a4 <xTaskGetTickCount>:
 80085a4:	4b01      	ldr	r3, [pc, #4]	; (80085ac <xTaskGetTickCount+0x8>)
 80085a6:	6818      	ldr	r0, [r3, #0]
 80085a8:	4770      	bx	lr
 80085aa:	bf00      	nop
 80085ac:	20002258 	.word	0x20002258

080085b0 <xTaskIncrementTick>:
 80085b0:	4b3f      	ldr	r3, [pc, #252]	; (80086b0 <xTaskIncrementTick+0x100>)
 80085b2:	681b      	ldr	r3, [r3, #0]
 80085b4:	e92d 4ff7 	stmdb	sp!, {r0, r1, r2, r4, r5, r6, r7, r8, r9, sl, fp, lr}
 80085b8:	2b00      	cmp	r3, #0
 80085ba:	d173      	bne.n	80086a4 <xTaskIncrementTick+0xf4>
 80085bc:	4b3d      	ldr	r3, [pc, #244]	; (80086b4 <xTaskIncrementTick+0x104>)
 80085be:	681d      	ldr	r5, [r3, #0]
 80085c0:	3501      	adds	r5, #1
 80085c2:	601d      	str	r5, [r3, #0]
 80085c4:	b9bd      	cbnz	r5, 80085f6 <xTaskIncrementTick+0x46>
 80085c6:	4b3c      	ldr	r3, [pc, #240]	; (80086b8 <xTaskIncrementTick+0x108>)
 80085c8:	681a      	ldr	r2, [r3, #0]
 80085ca:	6812      	ldr	r2, [r2, #0]
 80085cc:	b142      	cbz	r2, 80085e0 <xTaskIncrementTick+0x30>
 80085ce:	f04f 0350 	mov.w	r3, #80	; 0x50
 80085d2:	f383 8811 	msr	BASEPRI, r3
 80085d6:	f3bf 8f6f 	isb	sy
 80085da:	f3bf 8f4f 	dsb	sy
 80085de:	e7fe      	b.n	80085de <xTaskIncrementTick+0x2e>
 80085e0:	4a36      	ldr	r2, [pc, #216]	; (80086bc <xTaskIncrementTick+0x10c>)
 80085e2:	6819      	ldr	r1, [r3, #0]
 80085e4:	6810      	ldr	r0, [r2, #0]
 80085e6:	6018      	str	r0, [r3, #0]
 80085e8:	6011      	str	r1, [r2, #0]
 80085ea:	4a35      	ldr	r2, [pc, #212]	; (80086c0 <xTaskIncrementTick+0x110>)
 80085ec:	6813      	ldr	r3, [r2, #0]
 80085ee:	3301      	adds	r3, #1
 80085f0:	6013      	str	r3, [r2, #0]
 80085f2:	f7ff fe79 	bl	80082e8 <prvResetNextTaskUnblockTime>
 80085f6:	4e33      	ldr	r6, [pc, #204]	; (80086c4 <xTaskIncrementTick+0x114>)
 80085f8:	4f33      	ldr	r7, [pc, #204]	; (80086c8 <xTaskIncrementTick+0x118>)
 80085fa:	6833      	ldr	r3, [r6, #0]
 80085fc:	f8df 80d4 	ldr.w	r8, [pc, #212]	; 80086d4 <xTaskIncrementTick+0x124>
 8008600:	429d      	cmp	r5, r3
 8008602:	f04f 0400 	mov.w	r4, #0
 8008606:	d211      	bcs.n	800862c <xTaskIncrementTick+0x7c>
 8008608:	f8d8 3000 	ldr.w	r3, [r8]
 800860c:	6adb      	ldr	r3, [r3, #44]	; 0x2c
 800860e:	2214      	movs	r2, #20
 8008610:	4353      	muls	r3, r2
 8008612:	58fb      	ldr	r3, [r7, r3]
 8008614:	2b02      	cmp	r3, #2
 8008616:	4b2d      	ldr	r3, [pc, #180]	; (80086cc <xTaskIncrementTick+0x11c>)
 8008618:	681b      	ldr	r3, [r3, #0]
 800861a:	bf28      	it	cs
 800861c:	2401      	movcs	r4, #1
 800861e:	2b00      	cmp	r3, #0
 8008620:	bf18      	it	ne
 8008622:	2401      	movne	r4, #1
 8008624:	4620      	mov	r0, r4
 8008626:	b003      	add	sp, #12
 8008628:	e8bd 8ff0 	ldmia.w	sp!, {r4, r5, r6, r7, r8, r9, sl, fp, pc}
 800862c:	f8df 9088 	ldr.w	r9, [pc, #136]	; 80086b8 <xTaskIncrementTick+0x108>
 8008630:	f8df a0a4 	ldr.w	sl, [pc, #164]	; 80086d8 <xTaskIncrementTick+0x128>
 8008634:	f8d9 3000 	ldr.w	r3, [r9]
 8008638:	681b      	ldr	r3, [r3, #0]
 800863a:	b91b      	cbnz	r3, 8008644 <xTaskIncrementTick+0x94>
 800863c:	f04f 33ff 	mov.w	r3, #4294967295
 8008640:	6033      	str	r3, [r6, #0]
 8008642:	e7e1      	b.n	8008608 <xTaskIncrementTick+0x58>
 8008644:	f8d9 3000 	ldr.w	r3, [r9]
 8008648:	68db      	ldr	r3, [r3, #12]
 800864a:	f8d3 b00c 	ldr.w	fp, [r3, #12]
 800864e:	f8db 2004 	ldr.w	r2, [fp, #4]
 8008652:	4295      	cmp	r5, r2
 8008654:	d201      	bcs.n	800865a <xTaskIncrementTick+0xaa>
 8008656:	6032      	str	r2, [r6, #0]
 8008658:	e7d6      	b.n	8008608 <xTaskIncrementTick+0x58>
 800865a:	f10b 0104 	add.w	r1, fp, #4
 800865e:	4608      	mov	r0, r1
 8008660:	9101      	str	r1, [sp, #4]
 8008662:	f7ff fa74 	bl	8007b4e <uxListRemove>
 8008666:	f8db 2028 	ldr.w	r2, [fp, #40]	; 0x28
 800866a:	9901      	ldr	r1, [sp, #4]
 800866c:	b122      	cbz	r2, 8008678 <xTaskIncrementTick+0xc8>
 800866e:	f10b 0018 	add.w	r0, fp, #24
 8008672:	f7ff fa6c 	bl	8007b4e <uxListRemove>
 8008676:	9901      	ldr	r1, [sp, #4]
 8008678:	f8db 002c 	ldr.w	r0, [fp, #44]	; 0x2c
 800867c:	f8da 2000 	ldr.w	r2, [sl]
 8008680:	2314      	movs	r3, #20
 8008682:	4290      	cmp	r0, r2
 8008684:	bf88      	it	hi
 8008686:	f8ca 0000 	strhi.w	r0, [sl]
 800868a:	fb03 7000 	mla	r0, r3, r0, r7
 800868e:	f7ff fa3b 	bl	8007b08 <vListInsertEnd>
 8008692:	f8d8 1000 	ldr.w	r1, [r8]
 8008696:	f8db 202c 	ldr.w	r2, [fp, #44]	; 0x2c
 800869a:	6acb      	ldr	r3, [r1, #44]	; 0x2c
 800869c:	429a      	cmp	r2, r3
 800869e:	bf28      	it	cs
 80086a0:	2401      	movcs	r4, #1
 80086a2:	e7c7      	b.n	8008634 <xTaskIncrementTick+0x84>
 80086a4:	4a0a      	ldr	r2, [pc, #40]	; (80086d0 <xTaskIncrementTick+0x120>)
 80086a6:	6813      	ldr	r3, [r2, #0]
 80086a8:	3301      	adds	r3, #1
 80086aa:	6013      	str	r3, [r2, #0]
 80086ac:	2400      	movs	r4, #0
 80086ae:	e7b9      	b.n	8008624 <xTaskIncrementTick+0x74>
 80086b0:	200021d8 	.word	0x200021d8
 80086b4:	20002258 	.word	0x20002258
 80086b8:	20001d68 	.word	0x20001d68
 80086bc:	20001d6c 	.word	0x20001d6c
 80086c0:	20002210 	.word	0x20002210
 80086c4:	2000220c 	.word	0x2000220c
 80086c8:	20001d70 	.word	0x20001d70
 80086cc:	2000225c 	.word	0x2000225c
 80086d0:	20002214 	.word	0x20002214
 80086d4:	20001d64 	.word	0x20001d64
 80086d8:	200021e0 	.word	0x200021e0

080086dc <xTaskResumeAll>:
 80086dc:	b5f7      	push	{r0, r1, r2, r4, r5, r6, r7, lr}
 80086de:	4c31      	ldr	r4, [pc, #196]	; (80087a4 <xTaskResumeAll+0xc8>)
 80086e0:	6823      	ldr	r3, [r4, #0]
 80086e2:	b943      	cbnz	r3, 80086f6 <xTaskResumeAll+0x1a>
 80086e4:	f04f 0350 	mov.w	r3, #80	; 0x50
 80086e8:	f383 8811 	msr	BASEPRI, r3
 80086ec:	f3bf 8f6f 	isb	sy
 80086f0:	f3bf 8f4f 	dsb	sy
 80086f4:	e7fe      	b.n	80086f4 <xTaskResumeAll+0x18>
 80086f6:	f000 fc7d 	bl	8008ff4 <vPortEnterCritical>
 80086fa:	6823      	ldr	r3, [r4, #0]
 80086fc:	3b01      	subs	r3, #1
 80086fe:	6023      	str	r3, [r4, #0]
 8008700:	6824      	ldr	r4, [r4, #0]
 8008702:	b12c      	cbz	r4, 8008710 <xTaskResumeAll+0x34>
 8008704:	2400      	movs	r4, #0
 8008706:	f000 fc95 	bl	8009034 <vPortExitCritical>
 800870a:	4620      	mov	r0, r4
 800870c:	b003      	add	sp, #12
 800870e:	bdf0      	pop	{r4, r5, r6, r7, pc}
 8008710:	4b25      	ldr	r3, [pc, #148]	; (80087a8 <xTaskResumeAll+0xcc>)
 8008712:	681b      	ldr	r3, [r3, #0]
 8008714:	2b00      	cmp	r3, #0
 8008716:	d0f5      	beq.n	8008704 <xTaskResumeAll+0x28>
 8008718:	4d24      	ldr	r5, [pc, #144]	; (80087ac <xTaskResumeAll+0xd0>)
 800871a:	4e25      	ldr	r6, [pc, #148]	; (80087b0 <xTaskResumeAll+0xd4>)
 800871c:	4f25      	ldr	r7, [pc, #148]	; (80087b4 <xTaskResumeAll+0xd8>)
 800871e:	e01e      	b.n	800875e <xTaskResumeAll+0x82>
 8008720:	68eb      	ldr	r3, [r5, #12]
 8008722:	68dc      	ldr	r4, [r3, #12]
 8008724:	f104 0018 	add.w	r0, r4, #24
 8008728:	f7ff fa11 	bl	8007b4e <uxListRemove>
 800872c:	1d21      	adds	r1, r4, #4
 800872e:	4608      	mov	r0, r1
 8008730:	9101      	str	r1, [sp, #4]
 8008732:	f7ff fa0c 	bl	8007b4e <uxListRemove>
 8008736:	6ae3      	ldr	r3, [r4, #44]	; 0x2c
 8008738:	6832      	ldr	r2, [r6, #0]
 800873a:	9901      	ldr	r1, [sp, #4]
 800873c:	2014      	movs	r0, #20
 800873e:	4293      	cmp	r3, r2
 8008740:	fb00 7003 	mla	r0, r0, r3, r7
 8008744:	bf88      	it	hi
 8008746:	6033      	strhi	r3, [r6, #0]
 8008748:	f7ff f9de 	bl	8007b08 <vListInsertEnd>
 800874c:	4b1a      	ldr	r3, [pc, #104]	; (80087b8 <xTaskResumeAll+0xdc>)
 800874e:	6ae2      	ldr	r2, [r4, #44]	; 0x2c
 8008750:	681b      	ldr	r3, [r3, #0]
 8008752:	6adb      	ldr	r3, [r3, #44]	; 0x2c
 8008754:	429a      	cmp	r2, r3
 8008756:	d302      	bcc.n	800875e <xTaskResumeAll+0x82>
 8008758:	4b18      	ldr	r3, [pc, #96]	; (80087bc <xTaskResumeAll+0xe0>)
 800875a:	2201      	movs	r2, #1
 800875c:	601a      	str	r2, [r3, #0]
 800875e:	682b      	ldr	r3, [r5, #0]
 8008760:	2b00      	cmp	r3, #0
 8008762:	d1dd      	bne.n	8008720 <xTaskResumeAll+0x44>
 8008764:	b10c      	cbz	r4, 800876a <xTaskResumeAll+0x8e>
 8008766:	f7ff fdbf 	bl	80082e8 <prvResetNextTaskUnblockTime>
 800876a:	4d15      	ldr	r5, [pc, #84]	; (80087c0 <xTaskResumeAll+0xe4>)
 800876c:	682c      	ldr	r4, [r5, #0]
 800876e:	b144      	cbz	r4, 8008782 <xTaskResumeAll+0xa6>
 8008770:	4e12      	ldr	r6, [pc, #72]	; (80087bc <xTaskResumeAll+0xe0>)
 8008772:	2701      	movs	r7, #1
 8008774:	f7ff ff1c 	bl	80085b0 <xTaskIncrementTick>
 8008778:	b100      	cbz	r0, 800877c <xTaskResumeAll+0xa0>
 800877a:	6037      	str	r7, [r6, #0]
 800877c:	3c01      	subs	r4, #1
 800877e:	d1f9      	bne.n	8008774 <xTaskResumeAll+0x98>
 8008780:	602c      	str	r4, [r5, #0]
 8008782:	4b0e      	ldr	r3, [pc, #56]	; (80087bc <xTaskResumeAll+0xe0>)
 8008784:	681b      	ldr	r3, [r3, #0]
 8008786:	2b00      	cmp	r3, #0
 8008788:	d0bc      	beq.n	8008704 <xTaskResumeAll+0x28>
 800878a:	f04f 23e0 	mov.w	r3, #3758153728	; 0xe000e000
 800878e:	f04f 5280 	mov.w	r2, #268435456	; 0x10000000
 8008792:	f8c3 2d04 	str.w	r2, [r3, #3332]	; 0xd04
 8008796:	f3bf 8f4f 	dsb	sy
 800879a:	f3bf 8f6f 	isb	sy
 800879e:	2401      	movs	r4, #1
 80087a0:	e7b1      	b.n	8008706 <xTaskResumeAll+0x2a>
 80087a2:	bf00      	nop
 80087a4:	200021d8 	.word	0x200021d8
 80087a8:	200021d0 	.word	0x200021d0
 80087ac:	20002218 	.word	0x20002218
 80087b0:	200021e0 	.word	0x200021e0
 80087b4:	20001d70 	.word	0x20001d70
 80087b8:	20001d64 	.word	0x20001d64
 80087bc:	2000225c 	.word	0x2000225c
 80087c0:	20002214 	.word	0x20002214

080087c4 <vTaskDelayUntil>:
 80087c4:	b510      	push	{r4, lr}
 80087c6:	b940      	cbnz	r0, 80087da <vTaskDelayUntil+0x16>
 80087c8:	f04f 0350 	mov.w	r3, #80	; 0x50
 80087cc:	f383 8811 	msr	BASEPRI, r3
 80087d0:	f3bf 8f6f 	isb	sy
 80087d4:	f3bf 8f4f 	dsb	sy
 80087d8:	e7fe      	b.n	80087d8 <vTaskDelayUntil+0x14>
 80087da:	b941      	cbnz	r1, 80087ee <vTaskDelayUntil+0x2a>
 80087dc:	f04f 0350 	mov.w	r3, #80	; 0x50
 80087e0:	f383 8811 	msr	BASEPRI, r3
 80087e4:	f3bf 8f6f 	isb	sy
 80087e8:	f3bf 8f4f 	dsb	sy
 80087ec:	e7fe      	b.n	80087ec <vTaskDelayUntil+0x28>
 80087ee:	4b17      	ldr	r3, [pc, #92]	; (800884c <vTaskDelayUntil+0x88>)
 80087f0:	681b      	ldr	r3, [r3, #0]
 80087f2:	b143      	cbz	r3, 8008806 <vTaskDelayUntil+0x42>
 80087f4:	f04f 0350 	mov.w	r3, #80	; 0x50
 80087f8:	f383 8811 	msr	BASEPRI, r3
 80087fc:	f3bf 8f6f 	isb	sy
 8008800:	f3bf 8f4f 	dsb	sy
 8008804:	e7fe      	b.n	8008804 <vTaskDelayUntil+0x40>
 8008806:	f7ff fec5 	bl	8008594 <vTaskSuspendAll>
 800880a:	4b11      	ldr	r3, [pc, #68]	; (8008850 <vTaskDelayUntil+0x8c>)
 800880c:	6804      	ldr	r4, [r0, #0]
 800880e:	681a      	ldr	r2, [r3, #0]
 8008810:	1863      	adds	r3, r4, r1
 8008812:	bf2c      	ite	cs
 8008814:	2101      	movcs	r1, #1
 8008816:	2100      	movcc	r1, #0
 8008818:	4294      	cmp	r4, r2
 800881a:	6003      	str	r3, [r0, #0]
 800881c:	d90e      	bls.n	800883c <vTaskDelayUntil+0x78>
 800881e:	b971      	cbnz	r1, 800883e <vTaskDelayUntil+0x7a>
 8008820:	f7ff ff5c 	bl	80086dc <xTaskResumeAll>
 8008824:	b948      	cbnz	r0, 800883a <vTaskDelayUntil+0x76>
 8008826:	f04f 23e0 	mov.w	r3, #3758153728	; 0xe000e000
 800882a:	f04f 5280 	mov.w	r2, #268435456	; 0x10000000
 800882e:	f8c3 2d04 	str.w	r2, [r3, #3332]	; 0xd04
 8008832:	f3bf 8f4f 	dsb	sy
 8008836:	f3bf 8f6f 	isb	sy
 800883a:	bd10      	pop	{r4, pc}
 800883c:	b909      	cbnz	r1, 8008842 <vTaskDelayUntil+0x7e>
 800883e:	429a      	cmp	r2, r3
 8008840:	d2ee      	bcs.n	8008820 <vTaskDelayUntil+0x5c>
 8008842:	2100      	movs	r1, #0
 8008844:	1a98      	subs	r0, r3, r2
 8008846:	f7ff fd17 	bl	8008278 <prvAddCurrentTaskToDelayedList>
 800884a:	e7e9      	b.n	8008820 <vTaskDelayUntil+0x5c>
 800884c:	200021d8 	.word	0x200021d8
 8008850:	20002258 	.word	0x20002258

08008854 <vTaskDelay>:
 8008854:	b508      	push	{r3, lr}
 8008856:	b950      	cbnz	r0, 800886e <vTaskDelay+0x1a>
 8008858:	f04f 23e0 	mov.w	r3, #3758153728	; 0xe000e000
 800885c:	f04f 5280 	mov.w	r2, #268435456	; 0x10000000
 8008860:	f8c3 2d04 	str.w	r2, [r3, #3332]	; 0xd04
 8008864:	f3bf 8f4f 	dsb	sy
 8008868:	f3bf 8f6f 	isb	sy
 800886c:	bd08      	pop	{r3, pc}
 800886e:	4b0a      	ldr	r3, [pc, #40]	; (8008898 <vTaskDelay+0x44>)
 8008870:	6819      	ldr	r1, [r3, #0]
 8008872:	b141      	cbz	r1, 8008886 <vTaskDelay+0x32>
 8008874:	f04f 0350 	mov.w	r3, #80	; 0x50
 8008878:	f383 8811 	msr	BASEPRI, r3
 800887c:	f3bf 8f6f 	isb	sy
 8008880:	f3bf 8f4f 	dsb	sy
 8008884:	e7fe      	b.n	8008884 <vTaskDelay+0x30>
 8008886:	f7ff fe85 	bl	8008594 <vTaskSuspendAll>
 800888a:	f7ff fcf5 	bl	8008278 <prvAddCurrentTaskToDelayedList>
 800888e:	f7ff ff25 	bl	80086dc <xTaskResumeAll>
 8008892:	2800      	cmp	r0, #0
 8008894:	d0e0      	beq.n	8008858 <vTaskDelay+0x4>
 8008896:	e7e9      	b.n	800886c <vTaskDelay+0x18>
 8008898:	200021d8 	.word	0x200021d8

0800889c <vTaskSwitchContext>:
 800889c:	4b17      	ldr	r3, [pc, #92]	; (80088fc <vTaskSwitchContext+0x60>)
 800889e:	681a      	ldr	r2, [r3, #0]
 80088a0:	4b17      	ldr	r3, [pc, #92]	; (8008900 <vTaskSwitchContext+0x64>)
 80088a2:	b570      	push	{r4, r5, r6, lr}
 80088a4:	b112      	cbz	r2, 80088ac <vTaskSwitchContext+0x10>
 80088a6:	2201      	movs	r2, #1
 80088a8:	601a      	str	r2, [r3, #0]
 80088aa:	bd70      	pop	{r4, r5, r6, pc}
 80088ac:	4d15      	ldr	r5, [pc, #84]	; (8008904 <vTaskSwitchContext+0x68>)
 80088ae:	601a      	str	r2, [r3, #0]
 80088b0:	682a      	ldr	r2, [r5, #0]
 80088b2:	4915      	ldr	r1, [pc, #84]	; (8008908 <vTaskSwitchContext+0x6c>)
 80088b4:	2614      	movs	r6, #20
 80088b6:	fb06 f302 	mul.w	r3, r6, r2
 80088ba:	18c8      	adds	r0, r1, r3
 80088bc:	58cc      	ldr	r4, [r1, r3]
 80088be:	b18c      	cbz	r4, 80088e4 <vTaskSwitchContext+0x48>
 80088c0:	6844      	ldr	r4, [r0, #4]
 80088c2:	3308      	adds	r3, #8
 80088c4:	6864      	ldr	r4, [r4, #4]
 80088c6:	6044      	str	r4, [r0, #4]
 80088c8:	440b      	add	r3, r1
 80088ca:	429c      	cmp	r4, r3
 80088cc:	bf04      	itt	eq
 80088ce:	6863      	ldreq	r3, [r4, #4]
 80088d0:	6043      	streq	r3, [r0, #4]
 80088d2:	2314      	movs	r3, #20
 80088d4:	fb03 1102 	mla	r1, r3, r2, r1
 80088d8:	684b      	ldr	r3, [r1, #4]
 80088da:	68d9      	ldr	r1, [r3, #12]
 80088dc:	4b0b      	ldr	r3, [pc, #44]	; (800890c <vTaskSwitchContext+0x70>)
 80088de:	6019      	str	r1, [r3, #0]
 80088e0:	602a      	str	r2, [r5, #0]
 80088e2:	e7e2      	b.n	80088aa <vTaskSwitchContext+0xe>
 80088e4:	b942      	cbnz	r2, 80088f8 <vTaskSwitchContext+0x5c>
 80088e6:	f04f 0350 	mov.w	r3, #80	; 0x50
 80088ea:	f383 8811 	msr	BASEPRI, r3
 80088ee:	f3bf 8f6f 	isb	sy
 80088f2:	f3bf 8f4f 	dsb	sy
 80088f6:	e7fe      	b.n	80088f6 <vTaskSwitchContext+0x5a>
 80088f8:	3a01      	subs	r2, #1
 80088fa:	e7dc      	b.n	80088b6 <vTaskSwitchContext+0x1a>
 80088fc:	200021d8 	.word	0x200021d8
 8008900:	2000225c 	.word	0x2000225c
 8008904:	200021e0 	.word	0x200021e0
 8008908:	20001d70 	.word	0x20001d70
 800890c:	20001d64 	.word	0x20001d64

08008910 <vTaskPlaceOnEventList>:
 8008910:	b510      	push	{r4, lr}
 8008912:	460c      	mov	r4, r1
 8008914:	b940      	cbnz	r0, 8008928 <vTaskPlaceOnEventList+0x18>
 8008916:	f04f 0350 	mov.w	r3, #80	; 0x50
 800891a:	f383 8811 	msr	BASEPRI, r3
 800891e:	f3bf 8f6f 	isb	sy
 8008922:	f3bf 8f4f 	dsb	sy
 8008926:	e7fe      	b.n	8008926 <vTaskPlaceOnEventList+0x16>
 8008928:	4b05      	ldr	r3, [pc, #20]	; (8008940 <vTaskPlaceOnEventList+0x30>)
 800892a:	6819      	ldr	r1, [r3, #0]
 800892c:	3118      	adds	r1, #24
 800892e:	f7ff f8f7 	bl	8007b20 <vListInsert>
 8008932:	4620      	mov	r0, r4
 8008934:	2101      	movs	r1, #1
 8008936:	e8bd 4010 	ldmia.w	sp!, {r4, lr}
 800893a:	f7ff bc9d 	b.w	8008278 <prvAddCurrentTaskToDelayedList>
 800893e:	bf00      	nop
 8008940:	20001d64 	.word	0x20001d64

08008944 <vTaskPlaceOnEventListRestricted>:
 8008944:	b538      	push	{r3, r4, r5, lr}
 8008946:	460d      	mov	r5, r1
 8008948:	4614      	mov	r4, r2
 800894a:	b940      	cbnz	r0, 800895e <vTaskPlaceOnEventListRestricted+0x1a>
 800894c:	f04f 0350 	mov.w	r3, #80	; 0x50
 8008950:	f383 8811 	msr	BASEPRI, r3
 8008954:	f3bf 8f6f 	isb	sy
 8008958:	f3bf 8f4f 	dsb	sy
 800895c:	e7fe      	b.n	800895c <vTaskPlaceOnEventListRestricted+0x18>
 800895e:	4b07      	ldr	r3, [pc, #28]	; (800897c <vTaskPlaceOnEventListRestricted+0x38>)
 8008960:	6819      	ldr	r1, [r3, #0]
 8008962:	3118      	adds	r1, #24
 8008964:	f7ff f8d0 	bl	8007b08 <vListInsertEnd>
 8008968:	2c00      	cmp	r4, #0
 800896a:	4621      	mov	r1, r4
 800896c:	bf0c      	ite	eq
 800896e:	4628      	moveq	r0, r5
 8008970:	f04f 30ff 	movne.w	r0, #4294967295
 8008974:	e8bd 4038 	ldmia.w	sp!, {r3, r4, r5, lr}
 8008978:	f7ff bc7e 	b.w	8008278 <prvAddCurrentTaskToDelayedList>
 800897c:	20001d64 	.word	0x20001d64

08008980 <xTaskRemoveFromEventList>:
 8008980:	68c3      	ldr	r3, [r0, #12]
 8008982:	b513      	push	{r0, r1, r4, lr}
 8008984:	68dc      	ldr	r4, [r3, #12]
 8008986:	b944      	cbnz	r4, 800899a <xTaskRemoveFromEventList+0x1a>
 8008988:	f04f 0350 	mov.w	r3, #80	; 0x50
 800898c:	f383 8811 	msr	BASEPRI, r3
 8008990:	f3bf 8f6f 	isb	sy
 8008994:	f3bf 8f4f 	dsb	sy
 8008998:	e7fe      	b.n	8008998 <xTaskRemoveFromEventList+0x18>
 800899a:	f104 0118 	add.w	r1, r4, #24
 800899e:	4608      	mov	r0, r1
 80089a0:	9101      	str	r1, [sp, #4]
 80089a2:	f7ff f8d4 	bl	8007b4e <uxListRemove>
 80089a6:	4b12      	ldr	r3, [pc, #72]	; (80089f0 <xTaskRemoveFromEventList+0x70>)
 80089a8:	9901      	ldr	r1, [sp, #4]
 80089aa:	681b      	ldr	r3, [r3, #0]
 80089ac:	b9eb      	cbnz	r3, 80089ea <xTaskRemoveFromEventList+0x6a>
 80089ae:	1d21      	adds	r1, r4, #4
 80089b0:	4608      	mov	r0, r1
 80089b2:	9101      	str	r1, [sp, #4]
 80089b4:	f7ff f8cb 	bl	8007b4e <uxListRemove>
 80089b8:	4a0e      	ldr	r2, [pc, #56]	; (80089f4 <xTaskRemoveFromEventList+0x74>)
 80089ba:	6ae3      	ldr	r3, [r4, #44]	; 0x2c
 80089bc:	6810      	ldr	r0, [r2, #0]
 80089be:	9901      	ldr	r1, [sp, #4]
 80089c0:	4283      	cmp	r3, r0
 80089c2:	bf88      	it	hi
 80089c4:	6013      	strhi	r3, [r2, #0]
 80089c6:	4a0c      	ldr	r2, [pc, #48]	; (80089f8 <xTaskRemoveFromEventList+0x78>)
 80089c8:	2014      	movs	r0, #20
 80089ca:	fb00 2003 	mla	r0, r0, r3, r2
 80089ce:	f7ff f89b 	bl	8007b08 <vListInsertEnd>
 80089d2:	4b0a      	ldr	r3, [pc, #40]	; (80089fc <xTaskRemoveFromEventList+0x7c>)
 80089d4:	6ae2      	ldr	r2, [r4, #44]	; 0x2c
 80089d6:	681b      	ldr	r3, [r3, #0]
 80089d8:	6adb      	ldr	r3, [r3, #44]	; 0x2c
 80089da:	429a      	cmp	r2, r3
 80089dc:	bf85      	ittet	hi
 80089de:	4b08      	ldrhi	r3, [pc, #32]	; (8008a00 <xTaskRemoveFromEventList+0x80>)
 80089e0:	2001      	movhi	r0, #1
 80089e2:	2000      	movls	r0, #0
 80089e4:	6018      	strhi	r0, [r3, #0]
 80089e6:	b002      	add	sp, #8
 80089e8:	bd10      	pop	{r4, pc}
 80089ea:	4806      	ldr	r0, [pc, #24]	; (8008a04 <xTaskRemoveFromEventList+0x84>)
 80089ec:	e7ef      	b.n	80089ce <xTaskRemoveFromEventList+0x4e>
 80089ee:	bf00      	nop
 80089f0:	200021d8 	.word	0x200021d8
 80089f4:	200021e0 	.word	0x200021e0
 80089f8:	20001d70 	.word	0x20001d70
 80089fc:	20001d64 	.word	0x20001d64
 8008a00:	2000225c 	.word	0x2000225c
 8008a04:	20002218 	.word	0x20002218

08008a08 <vTaskInternalSetTimeOutState>:
 8008a08:	4b03      	ldr	r3, [pc, #12]	; (8008a18 <vTaskInternalSetTimeOutState+0x10>)
 8008a0a:	681b      	ldr	r3, [r3, #0]
 8008a0c:	6003      	str	r3, [r0, #0]
 8008a0e:	4b03      	ldr	r3, [pc, #12]	; (8008a1c <vTaskInternalSetTimeOutState+0x14>)
 8008a10:	681b      	ldr	r3, [r3, #0]
 8008a12:	6043      	str	r3, [r0, #4]
 8008a14:	4770      	bx	lr
 8008a16:	bf00      	nop
 8008a18:	20002210 	.word	0x20002210
 8008a1c:	20002258 	.word	0x20002258

08008a20 <xTaskCheckForTimeOut>:
 8008a20:	b570      	push	{r4, r5, r6, lr}
 8008a22:	460c      	mov	r4, r1
 8008a24:	4605      	mov	r5, r0
 8008a26:	b940      	cbnz	r0, 8008a3a <xTaskCheckForTimeOut+0x1a>
 8008a28:	f04f 0350 	mov.w	r3, #80	; 0x50
 8008a2c:	f383 8811 	msr	BASEPRI, r3
 8008a30:	f3bf 8f6f 	isb	sy
 8008a34:	f3bf 8f4f 	dsb	sy
 8008a38:	e7fe      	b.n	8008a38 <xTaskCheckForTimeOut+0x18>
 8008a3a:	b941      	cbnz	r1, 8008a4e <xTaskCheckForTimeOut+0x2e>
 8008a3c:	f04f 0350 	mov.w	r3, #80	; 0x50
 8008a40:	f383 8811 	msr	BASEPRI, r3
 8008a44:	f3bf 8f6f 	isb	sy
 8008a48:	f3bf 8f4f 	dsb	sy
 8008a4c:	e7fe      	b.n	8008a4c <xTaskCheckForTimeOut+0x2c>
 8008a4e:	f000 fad1 	bl	8008ff4 <vPortEnterCritical>
 8008a52:	4b0f      	ldr	r3, [pc, #60]	; (8008a90 <xTaskCheckForTimeOut+0x70>)
 8008a54:	6819      	ldr	r1, [r3, #0]
 8008a56:	6823      	ldr	r3, [r4, #0]
 8008a58:	1c5a      	adds	r2, r3, #1
 8008a5a:	d010      	beq.n	8008a7e <xTaskCheckForTimeOut+0x5e>
 8008a5c:	480d      	ldr	r0, [pc, #52]	; (8008a94 <xTaskCheckForTimeOut+0x74>)
 8008a5e:	682e      	ldr	r6, [r5, #0]
 8008a60:	6800      	ldr	r0, [r0, #0]
 8008a62:	686a      	ldr	r2, [r5, #4]
 8008a64:	4286      	cmp	r6, r0
 8008a66:	d001      	beq.n	8008a6c <xTaskCheckForTimeOut+0x4c>
 8008a68:	428a      	cmp	r2, r1
 8008a6a:	d90f      	bls.n	8008a8c <xTaskCheckForTimeOut+0x6c>
 8008a6c:	1a88      	subs	r0, r1, r2
 8008a6e:	4283      	cmp	r3, r0
 8008a70:	d90a      	bls.n	8008a88 <xTaskCheckForTimeOut+0x68>
 8008a72:	1a5b      	subs	r3, r3, r1
 8008a74:	4413      	add	r3, r2
 8008a76:	6023      	str	r3, [r4, #0]
 8008a78:	4628      	mov	r0, r5
 8008a7a:	f7ff ffc5 	bl	8008a08 <vTaskInternalSetTimeOutState>
 8008a7e:	2400      	movs	r4, #0
 8008a80:	f000 fad8 	bl	8009034 <vPortExitCritical>
 8008a84:	4620      	mov	r0, r4
 8008a86:	bd70      	pop	{r4, r5, r6, pc}
 8008a88:	2300      	movs	r3, #0
 8008a8a:	6023      	str	r3, [r4, #0]
 8008a8c:	2401      	movs	r4, #1
 8008a8e:	e7f7      	b.n	8008a80 <xTaskCheckForTimeOut+0x60>
 8008a90:	20002258 	.word	0x20002258
 8008a94:	20002210 	.word	0x20002210

08008a98 <vTaskMissedYield>:
 8008a98:	4b01      	ldr	r3, [pc, #4]	; (8008aa0 <vTaskMissedYield+0x8>)
 8008a9a:	2201      	movs	r2, #1
 8008a9c:	601a      	str	r2, [r3, #0]
 8008a9e:	4770      	bx	lr
 8008aa0:	2000225c 	.word	0x2000225c

08008aa4 <xTaskGetSchedulerState>:
 8008aa4:	4b05      	ldr	r3, [pc, #20]	; (8008abc <xTaskGetSchedulerState+0x18>)
 8008aa6:	681b      	ldr	r3, [r3, #0]
 8008aa8:	b133      	cbz	r3, 8008ab8 <xTaskGetSchedulerState+0x14>
 8008aaa:	4b05      	ldr	r3, [pc, #20]	; (8008ac0 <xTaskGetSchedulerState+0x1c>)
 8008aac:	681b      	ldr	r3, [r3, #0]
 8008aae:	2b00      	cmp	r3, #0
 8008ab0:	bf0c      	ite	eq
 8008ab2:	2002      	moveq	r0, #2
 8008ab4:	2000      	movne	r0, #0
 8008ab6:	4770      	bx	lr
 8008ab8:	2001      	movs	r0, #1
 8008aba:	4770      	bx	lr
 8008abc:	2000222c 	.word	0x2000222c
 8008ac0:	200021d8 	.word	0x200021d8

08008ac4 <xTaskPriorityDisinherit>:
 8008ac4:	b513      	push	{r0, r1, r4, lr}
 8008ac6:	b910      	cbnz	r0, 8008ace <xTaskPriorityDisinherit+0xa>
 8008ac8:	2000      	movs	r0, #0
 8008aca:	b002      	add	sp, #8
 8008acc:	bd10      	pop	{r4, pc}
 8008ace:	4b1c      	ldr	r3, [pc, #112]	; (8008b40 <xTaskPriorityDisinherit+0x7c>)
 8008ad0:	681c      	ldr	r4, [r3, #0]
 8008ad2:	4284      	cmp	r4, r0
 8008ad4:	d008      	beq.n	8008ae8 <xTaskPriorityDisinherit+0x24>
 8008ad6:	f04f 0350 	mov.w	r3, #80	; 0x50
 8008ada:	f383 8811 	msr	BASEPRI, r3
 8008ade:	f3bf 8f6f 	isb	sy
 8008ae2:	f3bf 8f4f 	dsb	sy
 8008ae6:	e7fe      	b.n	8008ae6 <xTaskPriorityDisinherit+0x22>
 8008ae8:	6d23      	ldr	r3, [r4, #80]	; 0x50
 8008aea:	b943      	cbnz	r3, 8008afe <xTaskPriorityDisinherit+0x3a>
 8008aec:	f04f 0350 	mov.w	r3, #80	; 0x50
 8008af0:	f383 8811 	msr	BASEPRI, r3
 8008af4:	f3bf 8f6f 	isb	sy
 8008af8:	f3bf 8f4f 	dsb	sy
 8008afc:	e7fe      	b.n	8008afc <xTaskPriorityDisinherit+0x38>
 8008afe:	6ae1      	ldr	r1, [r4, #44]	; 0x2c
 8008b00:	6ce2      	ldr	r2, [r4, #76]	; 0x4c
 8008b02:	3b01      	subs	r3, #1
 8008b04:	4291      	cmp	r1, r2
 8008b06:	6523      	str	r3, [r4, #80]	; 0x50
 8008b08:	d0de      	beq.n	8008ac8 <xTaskPriorityDisinherit+0x4>
 8008b0a:	2b00      	cmp	r3, #0
 8008b0c:	d1dc      	bne.n	8008ac8 <xTaskPriorityDisinherit+0x4>
 8008b0e:	1d21      	adds	r1, r4, #4
 8008b10:	4608      	mov	r0, r1
 8008b12:	9101      	str	r1, [sp, #4]
 8008b14:	f7ff f81b 	bl	8007b4e <uxListRemove>
 8008b18:	6ce3      	ldr	r3, [r4, #76]	; 0x4c
 8008b1a:	9901      	ldr	r1, [sp, #4]
 8008b1c:	62e3      	str	r3, [r4, #44]	; 0x2c
 8008b1e:	f1c3 0238 	rsb	r2, r3, #56	; 0x38
 8008b22:	61a2      	str	r2, [r4, #24]
 8008b24:	4a07      	ldr	r2, [pc, #28]	; (8008b44 <xTaskPriorityDisinherit+0x80>)
 8008b26:	6810      	ldr	r0, [r2, #0]
 8008b28:	4283      	cmp	r3, r0
 8008b2a:	bf88      	it	hi
 8008b2c:	6013      	strhi	r3, [r2, #0]
 8008b2e:	4a06      	ldr	r2, [pc, #24]	; (8008b48 <xTaskPriorityDisinherit+0x84>)
 8008b30:	2014      	movs	r0, #20
 8008b32:	fb00 2003 	mla	r0, r0, r3, r2
 8008b36:	f7fe ffe7 	bl	8007b08 <vListInsertEnd>
 8008b3a:	2001      	movs	r0, #1
 8008b3c:	e7c5      	b.n	8008aca <xTaskPriorityDisinherit+0x6>
 8008b3e:	bf00      	nop
 8008b40:	20001d64 	.word	0x20001d64
 8008b44:	200021e0 	.word	0x200021e0
 8008b48:	20001d70 	.word	0x20001d70

08008b4c <prvCheckForValidListAndQueue>:
 8008b4c:	b5f7      	push	{r0, r1, r2, r4, r5, r6, r7, lr}
 8008b4e:	4c11      	ldr	r4, [pc, #68]	; (8008b94 <prvCheckForValidListAndQueue+0x48>)
 8008b50:	f000 fa50 	bl	8008ff4 <vPortEnterCritical>
 8008b54:	6825      	ldr	r5, [r4, #0]
 8008b56:	b9bd      	cbnz	r5, 8008b88 <prvCheckForValidListAndQueue+0x3c>
 8008b58:	4f0f      	ldr	r7, [pc, #60]	; (8008b98 <prvCheckForValidListAndQueue+0x4c>)
 8008b5a:	4e10      	ldr	r6, [pc, #64]	; (8008b9c <prvCheckForValidListAndQueue+0x50>)
 8008b5c:	4638      	mov	r0, r7
 8008b5e:	f7fe ffc5 	bl	8007aec <vListInitialise>
 8008b62:	4630      	mov	r0, r6
 8008b64:	f7fe ffc2 	bl	8007aec <vListInitialise>
 8008b68:	4b0d      	ldr	r3, [pc, #52]	; (8008ba0 <prvCheckForValidListAndQueue+0x54>)
 8008b6a:	4a0e      	ldr	r2, [pc, #56]	; (8008ba4 <prvCheckForValidListAndQueue+0x58>)
 8008b6c:	601f      	str	r7, [r3, #0]
 8008b6e:	4b0e      	ldr	r3, [pc, #56]	; (8008ba8 <prvCheckForValidListAndQueue+0x5c>)
 8008b70:	2110      	movs	r1, #16
 8008b72:	601e      	str	r6, [r3, #0]
 8008b74:	200a      	movs	r0, #10
 8008b76:	4b0d      	ldr	r3, [pc, #52]	; (8008bac <prvCheckForValidListAndQueue+0x60>)
 8008b78:	9500      	str	r5, [sp, #0]
 8008b7a:	f7ff f8c5 	bl	8007d08 <xQueueGenericCreateStatic>
 8008b7e:	6020      	str	r0, [r4, #0]
 8008b80:	b110      	cbz	r0, 8008b88 <prvCheckForValidListAndQueue+0x3c>
 8008b82:	490b      	ldr	r1, [pc, #44]	; (8008bb0 <prvCheckForValidListAndQueue+0x64>)
 8008b84:	f7ff fac2 	bl	800810c <vQueueAddToRegistry>
 8008b88:	b003      	add	sp, #12
 8008b8a:	e8bd 40f0 	ldmia.w	sp!, {r4, r5, r6, r7, lr}
 8008b8e:	f000 ba51 	b.w	8009034 <vPortExitCritical>
 8008b92:	bf00      	nop
 8008b94:	20002384 	.word	0x20002384
 8008b98:	20002308 	.word	0x20002308
 8008b9c:	2000231c 	.word	0x2000231c
 8008ba0:	20002260 	.word	0x20002260
 8008ba4:	20002268 	.word	0x20002268
 8008ba8:	20002264 	.word	0x20002264
 8008bac:	20002334 	.word	0x20002334
 8008bb0:	0800e29d 	.word	0x0800e29d

08008bb4 <prvInsertTimerInActiveList>:
 8008bb4:	4291      	cmp	r1, r2
 8008bb6:	b508      	push	{r3, lr}
 8008bb8:	6041      	str	r1, [r0, #4]
 8008bba:	6100      	str	r0, [r0, #16]
 8008bbc:	d80a      	bhi.n	8008bd4 <prvInsertTimerInActiveList+0x20>
 8008bbe:	1ad2      	subs	r2, r2, r3
 8008bc0:	6983      	ldr	r3, [r0, #24]
 8008bc2:	429a      	cmp	r2, r3
 8008bc4:	d20d      	bcs.n	8008be2 <prvInsertTimerInActiveList+0x2e>
 8008bc6:	4b08      	ldr	r3, [pc, #32]	; (8008be8 <prvInsertTimerInActiveList+0x34>)
 8008bc8:	1d01      	adds	r1, r0, #4
 8008bca:	6818      	ldr	r0, [r3, #0]
 8008bcc:	f7fe ffa8 	bl	8007b20 <vListInsert>
 8008bd0:	2000      	movs	r0, #0
 8008bd2:	bd08      	pop	{r3, pc}
 8008bd4:	429a      	cmp	r2, r3
 8008bd6:	d201      	bcs.n	8008bdc <prvInsertTimerInActiveList+0x28>
 8008bd8:	4299      	cmp	r1, r3
 8008bda:	d202      	bcs.n	8008be2 <prvInsertTimerInActiveList+0x2e>
 8008bdc:	4b03      	ldr	r3, [pc, #12]	; (8008bec <prvInsertTimerInActiveList+0x38>)
 8008bde:	1d01      	adds	r1, r0, #4
 8008be0:	e7f3      	b.n	8008bca <prvInsertTimerInActiveList+0x16>
 8008be2:	2001      	movs	r0, #1
 8008be4:	e7f5      	b.n	8008bd2 <prvInsertTimerInActiveList+0x1e>
 8008be6:	bf00      	nop
 8008be8:	20002264 	.word	0x20002264
 8008bec:	20002260 	.word	0x20002260

08008bf0 <xTimerCreateTimerTask>:
 8008bf0:	b510      	push	{r4, lr}
 8008bf2:	b088      	sub	sp, #32
 8008bf4:	f7ff ffaa 	bl	8008b4c <prvCheckForValidListAndQueue>
 8008bf8:	4b12      	ldr	r3, [pc, #72]	; (8008c44 <xTimerCreateTimerTask+0x54>)
 8008bfa:	681b      	ldr	r3, [r3, #0]
 8008bfc:	b1b3      	cbz	r3, 8008c2c <xTimerCreateTimerTask+0x3c>
 8008bfe:	2400      	movs	r4, #0
 8008c00:	aa07      	add	r2, sp, #28
 8008c02:	a906      	add	r1, sp, #24
 8008c04:	a805      	add	r0, sp, #20
 8008c06:	e9cd 4405 	strd	r4, r4, [sp, #20]
 8008c0a:	f7fe ff63 	bl	8007ad4 <vApplicationGetTimerTaskMemory>
 8008c0e:	9b05      	ldr	r3, [sp, #20]
 8008c10:	9302      	str	r3, [sp, #8]
 8008c12:	9b06      	ldr	r3, [sp, #24]
 8008c14:	9301      	str	r3, [sp, #4]
 8008c16:	2302      	movs	r3, #2
 8008c18:	9300      	str	r3, [sp, #0]
 8008c1a:	9a07      	ldr	r2, [sp, #28]
 8008c1c:	490a      	ldr	r1, [pc, #40]	; (8008c48 <xTimerCreateTimerTask+0x58>)
 8008c1e:	480b      	ldr	r0, [pc, #44]	; (8008c4c <xTimerCreateTimerTask+0x5c>)
 8008c20:	4623      	mov	r3, r4
 8008c22:	f7ff fc0c 	bl	800843e <xTaskCreateStatic>
 8008c26:	4b0a      	ldr	r3, [pc, #40]	; (8008c50 <xTimerCreateTimerTask+0x60>)
 8008c28:	6018      	str	r0, [r3, #0]
 8008c2a:	b940      	cbnz	r0, 8008c3e <xTimerCreateTimerTask+0x4e>
 8008c2c:	f04f 0350 	mov.w	r3, #80	; 0x50
 8008c30:	f383 8811 	msr	BASEPRI, r3
 8008c34:	f3bf 8f6f 	isb	sy
 8008c38:	f3bf 8f4f 	dsb	sy
 8008c3c:	e7fe      	b.n	8008c3c <xTimerCreateTimerTask+0x4c>
 8008c3e:	2001      	movs	r0, #1
 8008c40:	b008      	add	sp, #32
 8008c42:	bd10      	pop	{r4, pc}
 8008c44:	20002384 	.word	0x20002384
 8008c48:	0800e2a2 	.word	0x0800e2a2
 8008c4c:	08008d59 	.word	0x08008d59
 8008c50:	20002388 	.word	0x20002388

08008c54 <xTimerGenericCommand>:
 8008c54:	b57f      	push	{r0, r1, r2, r3, r4, r5, r6, lr}
 8008c56:	4616      	mov	r6, r2
 8008c58:	4604      	mov	r4, r0
 8008c5a:	461a      	mov	r2, r3
 8008c5c:	b940      	cbnz	r0, 8008c70 <xTimerGenericCommand+0x1c>
 8008c5e:	f04f 0350 	mov.w	r3, #80	; 0x50
 8008c62:	f383 8811 	msr	BASEPRI, r3
 8008c66:	f3bf 8f6f 	isb	sy
 8008c6a:	f3bf 8f4f 	dsb	sy
 8008c6e:	e7fe      	b.n	8008c6e <xTimerGenericCommand+0x1a>
 8008c70:	4d0d      	ldr	r5, [pc, #52]	; (8008ca8 <xTimerGenericCommand+0x54>)
 8008c72:	6828      	ldr	r0, [r5, #0]
 8008c74:	b180      	cbz	r0, 8008c98 <xTimerGenericCommand+0x44>
 8008c76:	2905      	cmp	r1, #5
 8008c78:	e9cd 1600 	strd	r1, r6, [sp]
 8008c7c:	9402      	str	r4, [sp, #8]
 8008c7e:	dc0d      	bgt.n	8008c9c <xTimerGenericCommand+0x48>
 8008c80:	f7ff ff10 	bl	8008aa4 <xTaskGetSchedulerState>
 8008c84:	2300      	movs	r3, #0
 8008c86:	2802      	cmp	r0, #2
 8008c88:	bf08      	it	eq
 8008c8a:	9a08      	ldreq	r2, [sp, #32]
 8008c8c:	6828      	ldr	r0, [r5, #0]
 8008c8e:	bf18      	it	ne
 8008c90:	461a      	movne	r2, r3
 8008c92:	4669      	mov	r1, sp
 8008c94:	f7ff f886 	bl	8007da4 <xQueueGenericSend>
 8008c98:	b004      	add	sp, #16
 8008c9a:	bd70      	pop	{r4, r5, r6, pc}
 8008c9c:	2300      	movs	r3, #0
 8008c9e:	4669      	mov	r1, sp
 8008ca0:	f7ff f933 	bl	8007f0a <xQueueGenericSendFromISR>
 8008ca4:	e7f8      	b.n	8008c98 <xTimerGenericCommand+0x44>
 8008ca6:	bf00      	nop
 8008ca8:	20002384 	.word	0x20002384

08008cac <prvSampleTimeNow>:
 8008cac:	e92d 47ff 	stmdb	sp!, {r0, r1, r2, r3, r4, r5, r6, r7, r8, r9, sl, lr}
 8008cb0:	f8df 80a0 	ldr.w	r8, [pc, #160]	; 8008d54 <prvSampleTimeNow+0xa8>
 8008cb4:	4606      	mov	r6, r0
 8008cb6:	f7ff fc75 	bl	80085a4 <xTaskGetTickCount>
 8008cba:	f8d8 3000 	ldr.w	r3, [r8]
 8008cbe:	4283      	cmp	r3, r0
 8008cc0:	4605      	mov	r5, r0
 8008cc2:	d940      	bls.n	8008d46 <prvSampleTimeNow+0x9a>
 8008cc4:	4f21      	ldr	r7, [pc, #132]	; (8008d4c <prvSampleTimeNow+0xa0>)
 8008cc6:	f04f 0900 	mov.w	r9, #0
 8008cca:	683b      	ldr	r3, [r7, #0]
 8008ccc:	681a      	ldr	r2, [r3, #0]
 8008cce:	b95a      	cbnz	r2, 8008ce8 <prvSampleTimeNow+0x3c>
 8008cd0:	4a1f      	ldr	r2, [pc, #124]	; (8008d50 <prvSampleTimeNow+0xa4>)
 8008cd2:	6811      	ldr	r1, [r2, #0]
 8008cd4:	6039      	str	r1, [r7, #0]
 8008cd6:	6013      	str	r3, [r2, #0]
 8008cd8:	2301      	movs	r3, #1
 8008cda:	4628      	mov	r0, r5
 8008cdc:	6033      	str	r3, [r6, #0]
 8008cde:	f8c8 5000 	str.w	r5, [r8]
 8008ce2:	b004      	add	sp, #16
 8008ce4:	e8bd 87f0 	ldmia.w	sp!, {r4, r5, r6, r7, r8, r9, sl, pc}
 8008ce8:	68db      	ldr	r3, [r3, #12]
 8008cea:	68dc      	ldr	r4, [r3, #12]
 8008cec:	f8d3 a000 	ldr.w	sl, [r3]
 8008cf0:	1d21      	adds	r1, r4, #4
 8008cf2:	4608      	mov	r0, r1
 8008cf4:	9103      	str	r1, [sp, #12]
 8008cf6:	f7fe ff2a 	bl	8007b4e <uxListRemove>
 8008cfa:	6a23      	ldr	r3, [r4, #32]
 8008cfc:	4620      	mov	r0, r4
 8008cfe:	4798      	blx	r3
 8008d00:	f894 3028 	ldrb.w	r3, [r4, #40]	; 0x28
 8008d04:	9903      	ldr	r1, [sp, #12]
 8008d06:	f013 0f04 	tst.w	r3, #4
 8008d0a:	d0de      	beq.n	8008cca <prvSampleTimeNow+0x1e>
 8008d0c:	69a3      	ldr	r3, [r4, #24]
 8008d0e:	4453      	add	r3, sl
 8008d10:	459a      	cmp	sl, r3
 8008d12:	d205      	bcs.n	8008d20 <prvSampleTimeNow+0x74>
 8008d14:	6838      	ldr	r0, [r7, #0]
 8008d16:	6063      	str	r3, [r4, #4]
 8008d18:	6124      	str	r4, [r4, #16]
 8008d1a:	f7fe ff01 	bl	8007b20 <vListInsert>
 8008d1e:	e7d4      	b.n	8008cca <prvSampleTimeNow+0x1e>
 8008d20:	2300      	movs	r3, #0
 8008d22:	f8cd 9000 	str.w	r9, [sp]
 8008d26:	4652      	mov	r2, sl
 8008d28:	4619      	mov	r1, r3
 8008d2a:	4620      	mov	r0, r4
 8008d2c:	f7ff ff92 	bl	8008c54 <xTimerGenericCommand>
 8008d30:	2800      	cmp	r0, #0
 8008d32:	d1ca      	bne.n	8008cca <prvSampleTimeNow+0x1e>
 8008d34:	f04f 0350 	mov.w	r3, #80	; 0x50
 8008d38:	f383 8811 	msr	BASEPRI, r3
 8008d3c:	f3bf 8f6f 	isb	sy
 8008d40:	f3bf 8f4f 	dsb	sy
 8008d44:	e7fe      	b.n	8008d44 <prvSampleTimeNow+0x98>
 8008d46:	2300      	movs	r3, #0
 8008d48:	e7c7      	b.n	8008cda <prvSampleTimeNow+0x2e>
 8008d4a:	bf00      	nop
 8008d4c:	20002260 	.word	0x20002260
 8008d50:	20002264 	.word	0x20002264
 8008d54:	20002330 	.word	0x20002330

08008d58 <prvTimerTask>:
 8008d58:	e92d 43f0 	stmdb	sp!, {r4, r5, r6, r7, r8, r9, lr}
 8008d5c:	4d6e      	ldr	r5, [pc, #440]	; (8008f18 <prvTimerTask+0x1c0>)
 8008d5e:	4e6f      	ldr	r6, [pc, #444]	; (8008f1c <prvTimerTask+0x1c4>)
 8008d60:	b089      	sub	sp, #36	; 0x24
 8008d62:	682b      	ldr	r3, [r5, #0]
 8008d64:	f8d3 8000 	ldr.w	r8, [r3]
 8008d68:	f1b8 0f00 	cmp.w	r8, #0
 8008d6c:	d035      	beq.n	8008dda <prvTimerTask+0x82>
 8008d6e:	68db      	ldr	r3, [r3, #12]
 8008d70:	f8d3 8000 	ldr.w	r8, [r3]
 8008d74:	2400      	movs	r4, #0
 8008d76:	f7ff fc0d 	bl	8008594 <vTaskSuspendAll>
 8008d7a:	a804      	add	r0, sp, #16
 8008d7c:	f7ff ff96 	bl	8008cac <prvSampleTimeNow>
 8008d80:	9b04      	ldr	r3, [sp, #16]
 8008d82:	4681      	mov	r9, r0
 8008d84:	2b00      	cmp	r3, #0
 8008d86:	d169      	bne.n	8008e5c <prvTimerTask+0x104>
 8008d88:	2c00      	cmp	r4, #0
 8008d8a:	d14c      	bne.n	8008e26 <prvTimerTask+0xce>
 8008d8c:	4540      	cmp	r0, r8
 8008d8e:	d350      	bcc.n	8008e32 <prvTimerTask+0xda>
 8008d90:	f7ff fca4 	bl	80086dc <xTaskResumeAll>
 8008d94:	682b      	ldr	r3, [r5, #0]
 8008d96:	68db      	ldr	r3, [r3, #12]
 8008d98:	68df      	ldr	r7, [r3, #12]
 8008d9a:	1d38      	adds	r0, r7, #4
 8008d9c:	f7fe fed7 	bl	8007b4e <uxListRemove>
 8008da0:	f897 3028 	ldrb.w	r3, [r7, #40]	; 0x28
 8008da4:	0758      	lsls	r0, r3, #29
 8008da6:	d51a      	bpl.n	8008dde <prvTimerTask+0x86>
 8008da8:	69b9      	ldr	r1, [r7, #24]
 8008daa:	4643      	mov	r3, r8
 8008dac:	464a      	mov	r2, r9
 8008dae:	4441      	add	r1, r8
 8008db0:	4638      	mov	r0, r7
 8008db2:	f7ff feff 	bl	8008bb4 <prvInsertTimerInActiveList>
 8008db6:	b1b0      	cbz	r0, 8008de6 <prvTimerTask+0x8e>
 8008db8:	9400      	str	r4, [sp, #0]
 8008dba:	4623      	mov	r3, r4
 8008dbc:	4642      	mov	r2, r8
 8008dbe:	4621      	mov	r1, r4
 8008dc0:	4638      	mov	r0, r7
 8008dc2:	f7ff ff47 	bl	8008c54 <xTimerGenericCommand>
 8008dc6:	b970      	cbnz	r0, 8008de6 <prvTimerTask+0x8e>
 8008dc8:	f04f 0350 	mov.w	r3, #80	; 0x50
 8008dcc:	f383 8811 	msr	BASEPRI, r3
 8008dd0:	f3bf 8f6f 	isb	sy
 8008dd4:	f3bf 8f4f 	dsb	sy
 8008dd8:	e7fe      	b.n	8008dd8 <prvTimerTask+0x80>
 8008dda:	2401      	movs	r4, #1
 8008ddc:	e7cb      	b.n	8008d76 <prvTimerTask+0x1e>
 8008dde:	f023 0301 	bic.w	r3, r3, #1
 8008de2:	f887 3028 	strb.w	r3, [r7, #40]	; 0x28
 8008de6:	6a3b      	ldr	r3, [r7, #32]
 8008de8:	4638      	mov	r0, r7
 8008dea:	4798      	blx	r3
 8008dec:	6830      	ldr	r0, [r6, #0]
 8008dee:	2200      	movs	r2, #0
 8008df0:	a904      	add	r1, sp, #16
 8008df2:	f7ff f8ec 	bl	8007fce <xQueueReceive>
 8008df6:	2800      	cmp	r0, #0
 8008df8:	d0b3      	beq.n	8008d62 <prvTimerTask+0xa>
 8008dfa:	9b04      	ldr	r3, [sp, #16]
 8008dfc:	9806      	ldr	r0, [sp, #24]
 8008dfe:	2b00      	cmp	r3, #0
 8008e00:	db2f      	blt.n	8008e62 <prvTimerTask+0x10a>
 8008e02:	9c06      	ldr	r4, [sp, #24]
 8008e04:	6963      	ldr	r3, [r4, #20]
 8008e06:	2b00      	cmp	r3, #0
 8008e08:	d132      	bne.n	8008e70 <prvTimerTask+0x118>
 8008e0a:	a803      	add	r0, sp, #12
 8008e0c:	f7ff ff4e 	bl	8008cac <prvSampleTimeNow>
 8008e10:	9b04      	ldr	r3, [sp, #16]
 8008e12:	4602      	mov	r2, r0
 8008e14:	2b09      	cmp	r3, #9
 8008e16:	d8e9      	bhi.n	8008dec <prvTimerTask+0x94>
 8008e18:	e8df f003 	tbb	[pc, r3]
 8008e1c:	572e2e2e 	.word	0x572e2e2e
 8008e20:	2e2e765e 	.word	0x2e2e765e
 8008e24:	5e57      	.short	0x5e57
 8008e26:	4b3e      	ldr	r3, [pc, #248]	; (8008f20 <prvTimerTask+0x1c8>)
 8008e28:	681b      	ldr	r3, [r3, #0]
 8008e2a:	681c      	ldr	r4, [r3, #0]
 8008e2c:	fab4 f484 	clz	r4, r4
 8008e30:	0964      	lsrs	r4, r4, #5
 8008e32:	6830      	ldr	r0, [r6, #0]
 8008e34:	4622      	mov	r2, r4
 8008e36:	eba8 0109 	sub.w	r1, r8, r9
 8008e3a:	f7ff f979 	bl	8008130 <vQueueWaitForMessageRestricted>
 8008e3e:	f7ff fc4d 	bl	80086dc <xTaskResumeAll>
 8008e42:	2800      	cmp	r0, #0
 8008e44:	d1d2      	bne.n	8008dec <prvTimerTask+0x94>
 8008e46:	f04f 23e0 	mov.w	r3, #3758153728	; 0xe000e000
 8008e4a:	f04f 5280 	mov.w	r2, #268435456	; 0x10000000
 8008e4e:	f8c3 2d04 	str.w	r2, [r3, #3332]	; 0xd04
 8008e52:	f3bf 8f4f 	dsb	sy
 8008e56:	f3bf 8f6f 	isb	sy
 8008e5a:	e7c7      	b.n	8008dec <prvTimerTask+0x94>
 8008e5c:	f7ff fc3e 	bl	80086dc <xTaskResumeAll>
 8008e60:	e7c4      	b.n	8008dec <prvTimerTask+0x94>
 8008e62:	9b05      	ldr	r3, [sp, #20]
 8008e64:	9907      	ldr	r1, [sp, #28]
 8008e66:	4798      	blx	r3
 8008e68:	9b04      	ldr	r3, [sp, #16]
 8008e6a:	2b00      	cmp	r3, #0
 8008e6c:	dbbe      	blt.n	8008dec <prvTimerTask+0x94>
 8008e6e:	e7c8      	b.n	8008e02 <prvTimerTask+0xaa>
 8008e70:	1d20      	adds	r0, r4, #4
 8008e72:	f7fe fe6c 	bl	8007b4e <uxListRemove>
 8008e76:	e7c8      	b.n	8008e0a <prvTimerTask+0xb2>
 8008e78:	f894 3028 	ldrb.w	r3, [r4, #40]	; 0x28
 8008e7c:	69a1      	ldr	r1, [r4, #24]
 8008e7e:	f043 0301 	orr.w	r3, r3, #1
 8008e82:	f884 3028 	strb.w	r3, [r4, #40]	; 0x28
 8008e86:	9b05      	ldr	r3, [sp, #20]
 8008e88:	4620      	mov	r0, r4
 8008e8a:	4419      	add	r1, r3
 8008e8c:	f7ff fe92 	bl	8008bb4 <prvInsertTimerInActiveList>
 8008e90:	2800      	cmp	r0, #0
 8008e92:	d0ab      	beq.n	8008dec <prvTimerTask+0x94>
 8008e94:	6a23      	ldr	r3, [r4, #32]
 8008e96:	4620      	mov	r0, r4
 8008e98:	4798      	blx	r3
 8008e9a:	f894 3028 	ldrb.w	r3, [r4, #40]	; 0x28
 8008e9e:	0759      	lsls	r1, r3, #29
 8008ea0:	d5a4      	bpl.n	8008dec <prvTimerTask+0x94>
 8008ea2:	69a2      	ldr	r2, [r4, #24]
 8008ea4:	9905      	ldr	r1, [sp, #20]
 8008ea6:	2300      	movs	r3, #0
 8008ea8:	440a      	add	r2, r1
 8008eaa:	9300      	str	r3, [sp, #0]
 8008eac:	4619      	mov	r1, r3
 8008eae:	4620      	mov	r0, r4
 8008eb0:	f7ff fed0 	bl	8008c54 <xTimerGenericCommand>
 8008eb4:	2800      	cmp	r0, #0
 8008eb6:	d199      	bne.n	8008dec <prvTimerTask+0x94>
 8008eb8:	f04f 0350 	mov.w	r3, #80	; 0x50
 8008ebc:	f383 8811 	msr	BASEPRI, r3
 8008ec0:	f3bf 8f6f 	isb	sy
 8008ec4:	f3bf 8f4f 	dsb	sy
 8008ec8:	e7fe      	b.n	8008ec8 <prvTimerTask+0x170>
 8008eca:	f894 3028 	ldrb.w	r3, [r4, #40]	; 0x28
 8008ece:	f023 0301 	bic.w	r3, r3, #1
 8008ed2:	f884 3028 	strb.w	r3, [r4, #40]	; 0x28
 8008ed6:	e789      	b.n	8008dec <prvTimerTask+0x94>
 8008ed8:	f894 3028 	ldrb.w	r3, [r4, #40]	; 0x28
 8008edc:	f043 0301 	orr.w	r3, r3, #1
 8008ee0:	f884 3028 	strb.w	r3, [r4, #40]	; 0x28
 8008ee4:	9905      	ldr	r1, [sp, #20]
 8008ee6:	61a1      	str	r1, [r4, #24]
 8008ee8:	b941      	cbnz	r1, 8008efc <prvTimerTask+0x1a4>
 8008eea:	f04f 0350 	mov.w	r3, #80	; 0x50
 8008eee:	f383 8811 	msr	BASEPRI, r3
 8008ef2:	f3bf 8f6f 	isb	sy
 8008ef6:	f3bf 8f4f 	dsb	sy
 8008efa:	e7fe      	b.n	8008efa <prvTimerTask+0x1a2>
 8008efc:	4603      	mov	r3, r0
 8008efe:	4401      	add	r1, r0
 8008f00:	4620      	mov	r0, r4
 8008f02:	f7ff fe57 	bl	8008bb4 <prvInsertTimerInActiveList>
 8008f06:	e771      	b.n	8008dec <prvTimerTask+0x94>
 8008f08:	f894 3028 	ldrb.w	r3, [r4, #40]	; 0x28
 8008f0c:	079a      	lsls	r2, r3, #30
 8008f0e:	d4de      	bmi.n	8008ece <prvTimerTask+0x176>
 8008f10:	4620      	mov	r0, r4
 8008f12:	f000 fa6f 	bl	80093f4 <vPortFree>
 8008f16:	e769      	b.n	8008dec <prvTimerTask+0x94>
 8008f18:	20002260 	.word	0x20002260
 8008f1c:	20002384 	.word	0x20002384
 8008f20:	20002264 	.word	0x20002264

08008f24 <prvPortStartFirstTask>:
 8008f24:	4808      	ldr	r0, [pc, #32]	; (8008f48 <prvPortStartFirstTask+0x24>)
 8008f26:	6800      	ldr	r0, [r0, #0]
 8008f28:	6800      	ldr	r0, [r0, #0]
 8008f2a:	f380 8808 	msr	MSP, r0
 8008f2e:	f04f 0000 	mov.w	r0, #0
 8008f32:	f380 8814 	msr	CONTROL, r0
 8008f36:	b662      	cpsie	i
 8008f38:	b661      	cpsie	f
 8008f3a:	f3bf 8f4f 	dsb	sy
 8008f3e:	f3bf 8f6f 	isb	sy
 8008f42:	df00      	svc	0
 8008f44:	bf00      	nop
 8008f46:	0000      	.short	0x0000
 8008f48:	e000ed08 	.word	0xe000ed08

08008f4c <vPortEnableVFP>:
 8008f4c:	f8df 000c 	ldr.w	r0, [pc, #12]	; 8008f5c <vPortEnableVFP+0x10>
 8008f50:	6801      	ldr	r1, [r0, #0]
 8008f52:	f441 0170 	orr.w	r1, r1, #15728640	; 0xf00000
 8008f56:	6001      	str	r1, [r0, #0]
 8008f58:	4770      	bx	lr
 8008f5a:	0000      	.short	0x0000
 8008f5c:	e000ed88 	.word	0xe000ed88

08008f60 <prvTaskExitError>:
 8008f60:	b082      	sub	sp, #8
 8008f62:	2300      	movs	r3, #0
 8008f64:	9301      	str	r3, [sp, #4]
 8008f66:	4b0d      	ldr	r3, [pc, #52]	; (8008f9c <prvTaskExitError+0x3c>)
 8008f68:	681b      	ldr	r3, [r3, #0]
 8008f6a:	3301      	adds	r3, #1
 8008f6c:	d008      	beq.n	8008f80 <prvTaskExitError+0x20>
 8008f6e:	f04f 0350 	mov.w	r3, #80	; 0x50
 8008f72:	f383 8811 	msr	BASEPRI, r3
 8008f76:	f3bf 8f6f 	isb	sy
 8008f7a:	f3bf 8f4f 	dsb	sy
 8008f7e:	e7fe      	b.n	8008f7e <prvTaskExitError+0x1e>
 8008f80:	f04f 0350 	mov.w	r3, #80	; 0x50
 8008f84:	f383 8811 	msr	BASEPRI, r3
 8008f88:	f3bf 8f6f 	isb	sy
 8008f8c:	f3bf 8f4f 	dsb	sy
 8008f90:	9b01      	ldr	r3, [sp, #4]
 8008f92:	2b00      	cmp	r3, #0
 8008f94:	d0fc      	beq.n	8008f90 <prvTaskExitError+0x30>
 8008f96:	b002      	add	sp, #8
 8008f98:	4770      	bx	lr
 8008f9a:	bf00      	nop
 8008f9c:	20000010 	.word	0x20000010

08008fa0 <pxPortInitialiseStack>:
 8008fa0:	f04f 7380 	mov.w	r3, #16777216	; 0x1000000
 8008fa4:	f840 3c04 	str.w	r3, [r0, #-4]
 8008fa8:	4b07      	ldr	r3, [pc, #28]	; (8008fc8 <pxPortInitialiseStack+0x28>)
 8008faa:	f840 3c0c 	str.w	r3, [r0, #-12]
 8008fae:	f021 0101 	bic.w	r1, r1, #1
 8008fb2:	f06f 0302 	mvn.w	r3, #2
 8008fb6:	f840 1c08 	str.w	r1, [r0, #-8]
 8008fba:	f840 2c20 	str.w	r2, [r0, #-32]
 8008fbe:	f840 3c24 	str.w	r3, [r0, #-36]
 8008fc2:	3844      	subs	r0, #68	; 0x44
 8008fc4:	4770      	bx	lr
 8008fc6:	bf00      	nop
 8008fc8:	08008f61 	.word	0x08008f61
 8008fcc:	00000000 	.word	0x00000000

08008fd0 <SVC_Handler>:
 8008fd0:	4b07      	ldr	r3, [pc, #28]	; (8008ff0 <pxCurrentTCBConst2>)
 8008fd2:	6819      	ldr	r1, [r3, #0]
 8008fd4:	6808      	ldr	r0, [r1, #0]
 8008fd6:	e8b0 4ff0 	ldmia.w	r0!, {r4, r5, r6, r7, r8, r9, sl, fp, lr}
 8008fda:	f380 8809 	msr	PSP, r0
 8008fde:	f3bf 8f6f 	isb	sy
 8008fe2:	f04f 0000 	mov.w	r0, #0
 8008fe6:	f380 8811 	msr	BASEPRI, r0
 8008fea:	4770      	bx	lr
 8008fec:	f3af 8000 	nop.w

08008ff0 <pxCurrentTCBConst2>:
 8008ff0:	20001d64 	.word	0x20001d64

08008ff4 <vPortEnterCritical>:
 8008ff4:	f04f 0350 	mov.w	r3, #80	; 0x50
 8008ff8:	f383 8811 	msr	BASEPRI, r3
 8008ffc:	f3bf 8f6f 	isb	sy
 8009000:	f3bf 8f4f 	dsb	sy
 8009004:	4a0a      	ldr	r2, [pc, #40]	; (8009030 <vPortEnterCritical+0x3c>)
 8009006:	6813      	ldr	r3, [r2, #0]
 8009008:	3301      	adds	r3, #1
 800900a:	2b01      	cmp	r3, #1
 800900c:	6013      	str	r3, [r2, #0]
 800900e:	d10e      	bne.n	800902e <vPortEnterCritical+0x3a>
 8009010:	f04f 23e0 	mov.w	r3, #3758153728	; 0xe000e000
 8009014:	f8d3 3d04 	ldr.w	r3, [r3, #3332]	; 0xd04
 8009018:	b2db      	uxtb	r3, r3
 800901a:	b143      	cbz	r3, 800902e <vPortEnterCritical+0x3a>
 800901c:	f04f 0350 	mov.w	r3, #80	; 0x50
 8009020:	f383 8811 	msr	BASEPRI, r3
 8009024:	f3bf 8f6f 	isb	sy
 8009028:	f3bf 8f4f 	dsb	sy
 800902c:	e7fe      	b.n	800902c <vPortEnterCritical+0x38>
 800902e:	4770      	bx	lr
 8009030:	20000010 	.word	0x20000010

08009034 <vPortExitCritical>:
 8009034:	4a08      	ldr	r2, [pc, #32]	; (8009058 <vPortExitCritical+0x24>)
 8009036:	6813      	ldr	r3, [r2, #0]
 8009038:	b943      	cbnz	r3, 800904c <vPortExitCritical+0x18>
 800903a:	f04f 0350 	mov.w	r3, #80	; 0x50
 800903e:	f383 8811 	msr	BASEPRI, r3
 8009042:	f3bf 8f6f 	isb	sy
 8009046:	f3bf 8f4f 	dsb	sy
 800904a:	e7fe      	b.n	800904a <vPortExitCritical+0x16>
 800904c:	3b01      	subs	r3, #1
 800904e:	6013      	str	r3, [r2, #0]
 8009050:	b90b      	cbnz	r3, 8009056 <vPortExitCritical+0x22>
 8009052:	f383 8811 	msr	BASEPRI, r3
 8009056:	4770      	bx	lr
 8009058:	20000010 	.word	0x20000010
 800905c:	00000000 	.word	0x00000000

08009060 <PendSV_Handler>:
 8009060:	f3ef 8009 	mrs	r0, PSP
 8009064:	f3bf 8f6f 	isb	sy
 8009068:	4b15      	ldr	r3, [pc, #84]	; (80090c0 <pxCurrentTCBConst>)
 800906a:	681a      	ldr	r2, [r3, #0]
 800906c:	f01e 0f10 	tst.w	lr, #16
 8009070:	bf08      	it	eq
 8009072:	ed20 8a10 	vstmdbeq	r0!, {s16-s31}
 8009076:	e920 4ff0 	stmdb	r0!, {r4, r5, r6, r7, r8, r9, sl, fp, lr}
 800907a:	6010      	str	r0, [r2, #0]
 800907c:	e92d 0009 	stmdb	sp!, {r0, r3}
 8009080:	f04f 0050 	mov.w	r0, #80	; 0x50
 8009084:	f380 8811 	msr	BASEPRI, r0
 8009088:	f3bf 8f4f 	dsb	sy
 800908c:	f3bf 8f6f 	isb	sy
 8009090:	f7ff fc04 	bl	800889c <vTaskSwitchContext>
 8009094:	f04f 0000 	mov.w	r0, #0
 8009098:	f380 8811 	msr	BASEPRI, r0
 800909c:	bc09      	pop	{r0, r3}
 800909e:	6819      	ldr	r1, [r3, #0]
 80090a0:	6808      	ldr	r0, [r1, #0]
 80090a2:	e8b0 4ff0 	ldmia.w	r0!, {r4, r5, r6, r7, r8, r9, sl, fp, lr}
 80090a6:	f01e 0f10 	tst.w	lr, #16
 80090aa:	bf08      	it	eq
 80090ac:	ecb0 8a10 	vldmiaeq	r0!, {s16-s31}
 80090b0:	f380 8809 	msr	PSP, r0
 80090b4:	f3bf 8f6f 	isb	sy
 80090b8:	4770      	bx	lr
 80090ba:	bf00      	nop
 80090bc:	f3af 8000 	nop.w

080090c0 <pxCurrentTCBConst>:
 80090c0:	20001d64 	.word	0x20001d64

080090c4 <xPortSysTickHandler>:
 80090c4:	b508      	push	{r3, lr}
 80090c6:	f04f 0350 	mov.w	r3, #80	; 0x50
 80090ca:	f383 8811 	msr	BASEPRI, r3
 80090ce:	f3bf 8f6f 	isb	sy
 80090d2:	f3bf 8f4f 	dsb	sy
 80090d6:	f7ff fa6b 	bl	80085b0 <xTaskIncrementTick>
 80090da:	b128      	cbz	r0, 80090e8 <xPortSysTickHandler+0x24>
 80090dc:	f04f 23e0 	mov.w	r3, #3758153728	; 0xe000e000
 80090e0:	f04f 5280 	mov.w	r2, #268435456	; 0x10000000
 80090e4:	f8c3 2d04 	str.w	r2, [r3, #3332]	; 0xd04
 80090e8:	2300      	movs	r3, #0
 80090ea:	f383 8811 	msr	BASEPRI, r3
 80090ee:	bd08      	pop	{r3, pc}

080090f0 <vPortSetupTimerInterrupt>:
 80090f0:	f04f 22e0 	mov.w	r2, #3758153728	; 0xe000e000
 80090f4:	2300      	movs	r3, #0
 80090f6:	6113      	str	r3, [r2, #16]
 80090f8:	6193      	str	r3, [r2, #24]
 80090fa:	4b05      	ldr	r3, [pc, #20]	; (8009110 <vPortSetupTimerInterrupt+0x20>)
 80090fc:	f44f 717a 	mov.w	r1, #1000	; 0x3e8
 8009100:	681b      	ldr	r3, [r3, #0]
 8009102:	fbb3 f3f1 	udiv	r3, r3, r1
 8009106:	3b01      	subs	r3, #1
 8009108:	6153      	str	r3, [r2, #20]
 800910a:	2307      	movs	r3, #7
 800910c:	6113      	str	r3, [r2, #16]
 800910e:	4770      	bx	lr
 8009110:	20000004 	.word	0x20000004

08009114 <xPortStartScheduler>:
 8009114:	f04f 23e0 	mov.w	r3, #3758153728	; 0xe000e000
 8009118:	b537      	push	{r0, r1, r2, r4, r5, lr}
 800911a:	f8d3 1d00 	ldr.w	r1, [r3, #3328]	; 0xd00
 800911e:	4a3a      	ldr	r2, [pc, #232]	; (8009208 <xPortStartScheduler+0xf4>)
 8009120:	4291      	cmp	r1, r2
 8009122:	d108      	bne.n	8009136 <xPortStartScheduler+0x22>
 8009124:	f04f 0350 	mov.w	r3, #80	; 0x50
 8009128:	f383 8811 	msr	BASEPRI, r3
 800912c:	f3bf 8f6f 	isb	sy
 8009130:	f3bf 8f4f 	dsb	sy
 8009134:	e7fe      	b.n	8009134 <xPortStartScheduler+0x20>
 8009136:	f8d3 2d00 	ldr.w	r2, [r3, #3328]	; 0xd00
 800913a:	4b34      	ldr	r3, [pc, #208]	; (800920c <xPortStartScheduler+0xf8>)
 800913c:	429a      	cmp	r2, r3
 800913e:	d108      	bne.n	8009152 <xPortStartScheduler+0x3e>
 8009140:	f04f 0350 	mov.w	r3, #80	; 0x50
 8009144:	f383 8811 	msr	BASEPRI, r3
 8009148:	f3bf 8f6f 	isb	sy
 800914c:	f3bf 8f4f 	dsb	sy
 8009150:	e7fe      	b.n	8009150 <xPortStartScheduler+0x3c>
 8009152:	4b2f      	ldr	r3, [pc, #188]	; (8009210 <xPortStartScheduler+0xfc>)
 8009154:	781a      	ldrb	r2, [r3, #0]
 8009156:	b2d2      	uxtb	r2, r2
 8009158:	9201      	str	r2, [sp, #4]
 800915a:	22ff      	movs	r2, #255	; 0xff
 800915c:	701a      	strb	r2, [r3, #0]
 800915e:	781b      	ldrb	r3, [r3, #0]
 8009160:	4a2c      	ldr	r2, [pc, #176]	; (8009214 <xPortStartScheduler+0x100>)
 8009162:	b2db      	uxtb	r3, r3
 8009164:	f88d 3003 	strb.w	r3, [sp, #3]
 8009168:	f89d 3003 	ldrb.w	r3, [sp, #3]
 800916c:	f003 0350 	and.w	r3, r3, #80	; 0x50
 8009170:	7013      	strb	r3, [r2, #0]
 8009172:	4a29      	ldr	r2, [pc, #164]	; (8009218 <xPortStartScheduler+0x104>)
 8009174:	2307      	movs	r3, #7
 8009176:	6013      	str	r3, [r2, #0]
 8009178:	2100      	movs	r1, #0
 800917a:	f89d 0003 	ldrb.w	r0, [sp, #3]
 800917e:	0600      	lsls	r0, r0, #24
 8009180:	f103 34ff 	add.w	r4, r3, #4294967295
 8009184:	d40c      	bmi.n	80091a0 <xPortStartScheduler+0x8c>
 8009186:	b111      	cbz	r1, 800918e <xPortStartScheduler+0x7a>
 8009188:	2b03      	cmp	r3, #3
 800918a:	6013      	str	r3, [r2, #0]
 800918c:	d011      	beq.n	80091b2 <xPortStartScheduler+0x9e>
 800918e:	f04f 0350 	mov.w	r3, #80	; 0x50
 8009192:	f383 8811 	msr	BASEPRI, r3
 8009196:	f3bf 8f6f 	isb	sy
 800919a:	f3bf 8f4f 	dsb	sy
 800919e:	e7fe      	b.n	800919e <xPortStartScheduler+0x8a>
 80091a0:	f89d 3003 	ldrb.w	r3, [sp, #3]
 80091a4:	005b      	lsls	r3, r3, #1
 80091a6:	b2db      	uxtb	r3, r3
 80091a8:	f88d 3003 	strb.w	r3, [sp, #3]
 80091ac:	2101      	movs	r1, #1
 80091ae:	4623      	mov	r3, r4
 80091b0:	e7e3      	b.n	800917a <xPortStartScheduler+0x66>
 80091b2:	f44f 7340 	mov.w	r3, #768	; 0x300
 80091b6:	6013      	str	r3, [r2, #0]
 80091b8:	9b01      	ldr	r3, [sp, #4]
 80091ba:	4a15      	ldr	r2, [pc, #84]	; (8009210 <xPortStartScheduler+0xfc>)
 80091bc:	f04f 24e0 	mov.w	r4, #3758153728	; 0xe000e000
 80091c0:	b2db      	uxtb	r3, r3
 80091c2:	7013      	strb	r3, [r2, #0]
 80091c4:	f8d4 3d20 	ldr.w	r3, [r4, #3360]	; 0xd20
 80091c8:	f443 0370 	orr.w	r3, r3, #15728640	; 0xf00000
 80091cc:	f8c4 3d20 	str.w	r3, [r4, #3360]	; 0xd20
 80091d0:	f8d4 3d20 	ldr.w	r3, [r4, #3360]	; 0xd20
 80091d4:	f043 4370 	orr.w	r3, r3, #4026531840	; 0xf0000000
 80091d8:	f8c4 3d20 	str.w	r3, [r4, #3360]	; 0xd20
 80091dc:	f7ff ff88 	bl	80090f0 <vPortSetupTimerInterrupt>
 80091e0:	4b0e      	ldr	r3, [pc, #56]	; (800921c <xPortStartScheduler+0x108>)
 80091e2:	2500      	movs	r5, #0
 80091e4:	601d      	str	r5, [r3, #0]
 80091e6:	f7ff feb1 	bl	8008f4c <vPortEnableVFP>
 80091ea:	f8d4 3f34 	ldr.w	r3, [r4, #3892]	; 0xf34
 80091ee:	f043 4340 	orr.w	r3, r3, #3221225472	; 0xc0000000
 80091f2:	f8c4 3f34 	str.w	r3, [r4, #3892]	; 0xf34
 80091f6:	f7ff fe95 	bl	8008f24 <prvPortStartFirstTask>
 80091fa:	f7ff fb4f 	bl	800889c <vTaskSwitchContext>
 80091fe:	f7ff feaf 	bl	8008f60 <prvTaskExitError>
 8009202:	4628      	mov	r0, r5
 8009204:	b003      	add	sp, #12
 8009206:	bd30      	pop	{r4, r5, pc}
 8009208:	410fc271 	.word	0x410fc271
 800920c:	410fc270 	.word	0x410fc270
 8009210:	e000e400 	.word	0xe000e400
 8009214:	2000238c 	.word	0x2000238c
 8009218:	20002390 	.word	0x20002390
 800921c:	20000010 	.word	0x20000010

08009220 <vPortValidateInterruptPriority>:
 8009220:	f3ef 8305 	mrs	r3, IPSR
 8009224:	2b0f      	cmp	r3, #15
 8009226:	d90e      	bls.n	8009246 <vPortValidateInterruptPriority+0x26>
 8009228:	4a11      	ldr	r2, [pc, #68]	; (8009270 <vPortValidateInterruptPriority+0x50>)
 800922a:	5c9b      	ldrb	r3, [r3, r2]
 800922c:	4a11      	ldr	r2, [pc, #68]	; (8009274 <vPortValidateInterruptPriority+0x54>)
 800922e:	7812      	ldrb	r2, [r2, #0]
 8009230:	429a      	cmp	r2, r3
 8009232:	d908      	bls.n	8009246 <vPortValidateInterruptPriority+0x26>
 8009234:	f04f 0350 	mov.w	r3, #80	; 0x50
 8009238:	f383 8811 	msr	BASEPRI, r3
 800923c:	f3bf 8f6f 	isb	sy
 8009240:	f3bf 8f4f 	dsb	sy
 8009244:	e7fe      	b.n	8009244 <vPortValidateInterruptPriority+0x24>
 8009246:	f04f 23e0 	mov.w	r3, #3758153728	; 0xe000e000
 800924a:	4a0b      	ldr	r2, [pc, #44]	; (8009278 <vPortValidateInterruptPriority+0x58>)
 800924c:	f8d3 3d0c 	ldr.w	r3, [r3, #3340]	; 0xd0c
 8009250:	6812      	ldr	r2, [r2, #0]
 8009252:	f403 63e0 	and.w	r3, r3, #1792	; 0x700
 8009256:	4293      	cmp	r3, r2
 8009258:	d908      	bls.n	800926c <vPortValidateInterruptPriority+0x4c>
 800925a:	f04f 0350 	mov.w	r3, #80	; 0x50
 800925e:	f383 8811 	msr	BASEPRI, r3
 8009262:	f3bf 8f6f 	isb	sy
 8009266:	f3bf 8f4f 	dsb	sy
 800926a:	e7fe      	b.n	800926a <vPortValidateInterruptPriority+0x4a>
 800926c:	4770      	bx	lr
 800926e:	bf00      	nop
 8009270:	e000e3f0 	.word	0xe000e3f0
 8009274:	2000238c 	.word	0x2000238c
 8009278:	20002390 	.word	0x20002390

0800927c <prvInsertBlockIntoFreeList>:
 800927c:	b510      	push	{r4, lr}
 800927e:	4b0f      	ldr	r3, [pc, #60]	; (80092bc <prvInsertBlockIntoFreeList+0x40>)
 8009280:	461a      	mov	r2, r3
 8009282:	681b      	ldr	r3, [r3, #0]
 8009284:	4283      	cmp	r3, r0
 8009286:	d3fb      	bcc.n	8009280 <prvInsertBlockIntoFreeList+0x4>
 8009288:	6854      	ldr	r4, [r2, #4]
 800928a:	1911      	adds	r1, r2, r4
 800928c:	4288      	cmp	r0, r1
 800928e:	bf01      	itttt	eq
 8009290:	6841      	ldreq	r1, [r0, #4]
 8009292:	4610      	moveq	r0, r2
 8009294:	1909      	addeq	r1, r1, r4
 8009296:	6051      	streq	r1, [r2, #4]
 8009298:	6844      	ldr	r4, [r0, #4]
 800929a:	1901      	adds	r1, r0, r4
 800929c:	428b      	cmp	r3, r1
 800929e:	d107      	bne.n	80092b0 <prvInsertBlockIntoFreeList+0x34>
 80092a0:	4907      	ldr	r1, [pc, #28]	; (80092c0 <prvInsertBlockIntoFreeList+0x44>)
 80092a2:	6809      	ldr	r1, [r1, #0]
 80092a4:	428b      	cmp	r3, r1
 80092a6:	bf1f      	itttt	ne
 80092a8:	6859      	ldrne	r1, [r3, #4]
 80092aa:	681b      	ldrne	r3, [r3, #0]
 80092ac:	1909      	addne	r1, r1, r4
 80092ae:	6041      	strne	r1, [r0, #4]
 80092b0:	4290      	cmp	r0, r2
 80092b2:	6003      	str	r3, [r0, #0]
 80092b4:	bf18      	it	ne
 80092b6:	6010      	strne	r0, [r2, #0]
 80092b8:	bd10      	pop	{r4, pc}
 80092ba:	bf00      	nop
 80092bc:	20005fac 	.word	0x20005fac
 80092c0:	20002394 	.word	0x20002394

080092c4 <pvPortMalloc>:
 80092c4:	e92d 41f0 	stmdb	sp!, {r4, r5, r6, r7, r8, lr}
 80092c8:	4604      	mov	r4, r0
 80092ca:	f7ff f963 	bl	8008594 <vTaskSuspendAll>
 80092ce:	4842      	ldr	r0, [pc, #264]	; (80093d8 <pvPortMalloc+0x114>)
 80092d0:	4d42      	ldr	r5, [pc, #264]	; (80093dc <pvPortMalloc+0x118>)
 80092d2:	6803      	ldr	r3, [r0, #0]
 80092d4:	bb0b      	cbnz	r3, 800931a <pvPortMalloc+0x56>
 80092d6:	4942      	ldr	r1, [pc, #264]	; (80093e0 <pvPortMalloc+0x11c>)
 80092d8:	074e      	lsls	r6, r1, #29
 80092da:	bf1f      	itttt	ne
 80092dc:	1dcb      	addne	r3, r1, #7
 80092de:	f023 0307 	bicne.w	r3, r3, #7
 80092e2:	f501 5270 	addne.w	r2, r1, #15360	; 0x3c00
 80092e6:	1ad2      	subne	r2, r2, r3
 80092e8:	bf14      	ite	ne
 80092ea:	4619      	movne	r1, r3
 80092ec:	f44f 5270 	moveq.w	r2, #15360	; 0x3c00
 80092f0:	440a      	add	r2, r1
 80092f2:	4e3c      	ldr	r6, [pc, #240]	; (80093e4 <pvPortMalloc+0x120>)
 80092f4:	3a08      	subs	r2, #8
 80092f6:	f022 0207 	bic.w	r2, r2, #7
 80092fa:	2300      	movs	r3, #0
 80092fc:	6073      	str	r3, [r6, #4]
 80092fe:	6031      	str	r1, [r6, #0]
 8009300:	e9c2 3300 	strd	r3, r3, [r2]
 8009304:	1a53      	subs	r3, r2, r1
 8009306:	e9c1 2300 	strd	r2, r3, [r1]
 800930a:	6002      	str	r2, [r0, #0]
 800930c:	4a36      	ldr	r2, [pc, #216]	; (80093e8 <pvPortMalloc+0x124>)
 800930e:	6013      	str	r3, [r2, #0]
 8009310:	4a36      	ldr	r2, [pc, #216]	; (80093ec <pvPortMalloc+0x128>)
 8009312:	6013      	str	r3, [r2, #0]
 8009314:	f04f 4300 	mov.w	r3, #2147483648	; 0x80000000
 8009318:	602b      	str	r3, [r5, #0]
 800931a:	682f      	ldr	r7, [r5, #0]
 800931c:	4227      	tst	r7, r4
 800931e:	d155      	bne.n	80093cc <pvPortMalloc+0x108>
 8009320:	2c00      	cmp	r4, #0
 8009322:	d046      	beq.n	80093b2 <pvPortMalloc+0xee>
 8009324:	f104 0308 	add.w	r3, r4, #8
 8009328:	0761      	lsls	r1, r4, #29
 800932a:	bf1c      	itt	ne
 800932c:	f023 0307 	bicne.w	r3, r3, #7
 8009330:	3308      	addne	r3, #8
 8009332:	2b00      	cmp	r3, #0
 8009334:	d04a      	beq.n	80093cc <pvPortMalloc+0x108>
 8009336:	4c2d      	ldr	r4, [pc, #180]	; (80093ec <pvPortMalloc+0x128>)
 8009338:	6826      	ldr	r6, [r4, #0]
 800933a:	429e      	cmp	r6, r3
 800933c:	d346      	bcc.n	80093cc <pvPortMalloc+0x108>
 800933e:	4a29      	ldr	r2, [pc, #164]	; (80093e4 <pvPortMalloc+0x120>)
 8009340:	6815      	ldr	r5, [r2, #0]
 8009342:	6869      	ldr	r1, [r5, #4]
 8009344:	4299      	cmp	r1, r3
 8009346:	d204      	bcs.n	8009352 <pvPortMalloc+0x8e>
 8009348:	f8d5 c000 	ldr.w	ip, [r5]
 800934c:	f1bc 0f00 	cmp.w	ip, #0
 8009350:	d115      	bne.n	800937e <pvPortMalloc+0xba>
 8009352:	6800      	ldr	r0, [r0, #0]
 8009354:	42a8      	cmp	r0, r5
 8009356:	d039      	beq.n	80093cc <pvPortMalloc+0x108>
 8009358:	1ac9      	subs	r1, r1, r3
 800935a:	6828      	ldr	r0, [r5, #0]
 800935c:	f8d2 8000 	ldr.w	r8, [r2]
 8009360:	6010      	str	r0, [r2, #0]
 8009362:	2910      	cmp	r1, #16
 8009364:	d912      	bls.n	800938c <pvPortMalloc+0xc8>
 8009366:	18e8      	adds	r0, r5, r3
 8009368:	0742      	lsls	r2, r0, #29
 800936a:	d00b      	beq.n	8009384 <pvPortMalloc+0xc0>
 800936c:	f04f 0350 	mov.w	r3, #80	; 0x50
 8009370:	f383 8811 	msr	BASEPRI, r3
 8009374:	f3bf 8f6f 	isb	sy
 8009378:	f3bf 8f4f 	dsb	sy
 800937c:	e7fe      	b.n	800937c <pvPortMalloc+0xb8>
 800937e:	462a      	mov	r2, r5
 8009380:	4665      	mov	r5, ip
 8009382:	e7de      	b.n	8009342 <pvPortMalloc+0x7e>
 8009384:	6041      	str	r1, [r0, #4]
 8009386:	606b      	str	r3, [r5, #4]
 8009388:	f7ff ff78 	bl	800927c <prvInsertBlockIntoFreeList>
 800938c:	686b      	ldr	r3, [r5, #4]
 800938e:	4916      	ldr	r1, [pc, #88]	; (80093e8 <pvPortMalloc+0x124>)
 8009390:	4a17      	ldr	r2, [pc, #92]	; (80093f0 <pvPortMalloc+0x12c>)
 8009392:	6808      	ldr	r0, [r1, #0]
 8009394:	1af6      	subs	r6, r6, r3
 8009396:	431f      	orrs	r7, r3
 8009398:	2300      	movs	r3, #0
 800939a:	602b      	str	r3, [r5, #0]
 800939c:	6813      	ldr	r3, [r2, #0]
 800939e:	6026      	str	r6, [r4, #0]
 80093a0:	4286      	cmp	r6, r0
 80093a2:	f103 0301 	add.w	r3, r3, #1
 80093a6:	bf38      	it	cc
 80093a8:	600e      	strcc	r6, [r1, #0]
 80093aa:	f108 0408 	add.w	r4, r8, #8
 80093ae:	606f      	str	r7, [r5, #4]
 80093b0:	6013      	str	r3, [r2, #0]
 80093b2:	f7ff f993 	bl	80086dc <xTaskResumeAll>
 80093b6:	0763      	lsls	r3, r4, #29
 80093b8:	d00a      	beq.n	80093d0 <pvPortMalloc+0x10c>
 80093ba:	f04f 0350 	mov.w	r3, #80	; 0x50
 80093be:	f383 8811 	msr	BASEPRI, r3
 80093c2:	f3bf 8f6f 	isb	sy
 80093c6:	f3bf 8f4f 	dsb	sy
 80093ca:	e7fe      	b.n	80093ca <pvPortMalloc+0x106>
 80093cc:	2400      	movs	r4, #0
 80093ce:	e7f0      	b.n	80093b2 <pvPortMalloc+0xee>
 80093d0:	4620      	mov	r0, r4
 80093d2:	e8bd 81f0 	ldmia.w	sp!, {r4, r5, r6, r7, r8, pc}
 80093d6:	bf00      	nop
 80093d8:	20002394 	.word	0x20002394
 80093dc:	20005f98 	.word	0x20005f98
 80093e0:	20002398 	.word	0x20002398
 80093e4:	20005fac 	.word	0x20005fac
 80093e8:	20005fa0 	.word	0x20005fa0
 80093ec:	20005f9c 	.word	0x20005f9c
 80093f0:	20005fa4 	.word	0x20005fa4

080093f4 <vPortFree>:
 80093f4:	b510      	push	{r4, lr}
 80093f6:	4604      	mov	r4, r0
 80093f8:	b390      	cbz	r0, 8009460 <vPortFree+0x6c>
 80093fa:	4a1a      	ldr	r2, [pc, #104]	; (8009464 <vPortFree+0x70>)
 80093fc:	f850 3c04 	ldr.w	r3, [r0, #-4]
 8009400:	6812      	ldr	r2, [r2, #0]
 8009402:	4213      	tst	r3, r2
 8009404:	d108      	bne.n	8009418 <vPortFree+0x24>
 8009406:	f04f 0350 	mov.w	r3, #80	; 0x50
 800940a:	f383 8811 	msr	BASEPRI, r3
 800940e:	f3bf 8f6f 	isb	sy
 8009412:	f3bf 8f4f 	dsb	sy
 8009416:	e7fe      	b.n	8009416 <vPortFree+0x22>
 8009418:	f850 1c08 	ldr.w	r1, [r0, #-8]
 800941c:	b141      	cbz	r1, 8009430 <vPortFree+0x3c>
 800941e:	f04f 0350 	mov.w	r3, #80	; 0x50
 8009422:	f383 8811 	msr	BASEPRI, r3
 8009426:	f3bf 8f6f 	isb	sy
 800942a:	f3bf 8f4f 	dsb	sy
 800942e:	e7fe      	b.n	800942e <vPortFree+0x3a>
 8009430:	ea23 0302 	bic.w	r3, r3, r2
 8009434:	f840 3c04 	str.w	r3, [r0, #-4]
 8009438:	f7ff f8ac 	bl	8008594 <vTaskSuspendAll>
 800943c:	4a0a      	ldr	r2, [pc, #40]	; (8009468 <vPortFree+0x74>)
 800943e:	f854 3c04 	ldr.w	r3, [r4, #-4]
 8009442:	6811      	ldr	r1, [r2, #0]
 8009444:	f1a4 0008 	sub.w	r0, r4, #8
 8009448:	440b      	add	r3, r1
 800944a:	6013      	str	r3, [r2, #0]
 800944c:	f7ff ff16 	bl	800927c <prvInsertBlockIntoFreeList>
 8009450:	4a06      	ldr	r2, [pc, #24]	; (800946c <vPortFree+0x78>)
 8009452:	6813      	ldr	r3, [r2, #0]
 8009454:	e8bd 4010 	ldmia.w	sp!, {r4, lr}
 8009458:	3301      	adds	r3, #1
 800945a:	6013      	str	r3, [r2, #0]
 800945c:	f7ff b93e 	b.w	80086dc <xTaskResumeAll>
 8009460:	bd10      	pop	{r4, pc}
 8009462:	bf00      	nop
 8009464:	20005f98 	.word	0x20005f98
 8009468:	20005f9c 	.word	0x20005f9c
 800946c:	20005fa8 	.word	0x20005fa8

08009470 <PIDController_Init>:
 8009470:	2300      	movs	r3, #0
 8009472:	2200      	movs	r2, #0
 8009474:	6143      	str	r3, [r0, #20]
 8009476:	6182      	str	r2, [r0, #24]
 8009478:	61c2      	str	r2, [r0, #28]
 800947a:	6203      	str	r3, [r0, #32]
 800947c:	4770      	bx	lr
	...

08009480 <PIDController_Update>:
 8009480:	ee30 7a60 	vsub.f32	s14, s0, s1
 8009484:	ee07 1a90 	vmov	s15, r1
 8009488:	eeb4 7a47 	vcmp.f32	s14, s14
 800948c:	eef1 fa10 	vmrs	APSR_nzcv, fpscr
 8009490:	eeb8 6ae7 	vcvt.f32.s32	s12, s15
 8009494:	b570      	push	{r4, r5, r6, lr}
 8009496:	edd0 6a00 	vldr	s13, [r0]
 800949a:	eef7 7a00 	vmov.f32	s15, #112	; 0x3f800000  1.0
 800949e:	d607      	bvs.n	80094b0 <PIDController_Update+0x30>
 80094a0:	eeb5 7ac0 	vcmpe.f32	s14, #0.0
 80094a4:	eef1 fa10 	vmrs	APSR_nzcv, fpscr
 80094a8:	da04      	bge.n	80094b4 <PIDController_Update+0x34>
 80094aa:	eec7 5a20 	vdiv.f32	s11, s14, s1
 80094ae:	e003      	b.n	80094b8 <PIDController_Update+0x38>
 80094b0:	ed9f 7a25 	vldr	s14, [pc, #148]	; 8009548 <PIDController_Update+0xc8>
 80094b4:	eec7 5a00 	vdiv.f32	s11, s14, s0
 80094b8:	68c1      	ldr	r1, [r0, #12]
 80094ba:	6884      	ldr	r4, [r0, #8]
 80094bc:	eee5 7aa6 	vfma.f32	s15, s11, s13
 80094c0:	edd0 6a01 	vldr	s13, [r0, #4]
 80094c4:	ee67 7a86 	vmul.f32	s15, s15, s12
 80094c8:	eefd 7ae7 	vcvt.s32.f32	s15, s15
 80094cc:	ee17 3a90 	vmov	r3, s15
 80094d0:	eef6 7a00 	vmov.f32	s15, #96	; 0x3f000000  0.5
 80094d4:	ee66 6aa7 	vmul.f32	s13, s13, s15
 80094d8:	edd0 7a04 	vldr	s15, [r0, #16]
 80094dc:	ee66 6aa7 	vmul.f32	s13, s13, s15
 80094e0:	edd0 7a06 	vldr	s15, [r0, #24]
 80094e4:	ee77 7a27 	vadd.f32	s15, s14, s15
 80094e8:	4299      	cmp	r1, r3
 80094ea:	ee66 6aa7 	vmul.f32	s13, s13, s15
 80094ee:	edd0 7a05 	vldr	s15, [r0, #20]
 80094f2:	eef8 7ae7 	vcvt.f32.s32	s15, s15
 80094f6:	bfc8      	it	gt
 80094f8:	1ace      	subgt	r6, r1, r3
 80094fa:	eee6 7a86 	vfma.f32	s15, s13, s12
 80094fe:	bfd8      	it	le
 8009500:	2600      	movle	r6, #0
 8009502:	429c      	cmp	r4, r3
 8009504:	bfb8      	it	lt
 8009506:	1ae5      	sublt	r5, r4, r3
 8009508:	eefd 7ae7 	vcvt.s32.f32	s15, s15
 800950c:	bfa8      	it	ge
 800950e:	2500      	movge	r5, #0
 8009510:	ee17 2a90 	vmov	r2, s15
 8009514:	42b2      	cmp	r2, r6
 8009516:	edc0 7a05 	vstr	s15, [r0, #20]
 800951a:	dd0b      	ble.n	8009534 <PIDController_Update+0xb4>
 800951c:	6146      	str	r6, [r0, #20]
 800951e:	6942      	ldr	r2, [r0, #20]
 8009520:	4413      	add	r3, r2
 8009522:	4299      	cmp	r1, r3
 8009524:	da0a      	bge.n	800953c <PIDController_Update+0xbc>
 8009526:	6201      	str	r1, [r0, #32]
 8009528:	ed80 7a06 	vstr	s14, [r0, #24]
 800952c:	edc0 0a07 	vstr	s1, [r0, #28]
 8009530:	6a00      	ldr	r0, [r0, #32]
 8009532:	bd70      	pop	{r4, r5, r6, pc}
 8009534:	42aa      	cmp	r2, r5
 8009536:	bfb8      	it	lt
 8009538:	6145      	strlt	r5, [r0, #20]
 800953a:	e7f0      	b.n	800951e <PIDController_Update+0x9e>
 800953c:	42a3      	cmp	r3, r4
 800953e:	bfac      	ite	ge
 8009540:	6203      	strge	r3, [r0, #32]
 8009542:	6204      	strlt	r4, [r0, #32]
 8009544:	e7f0      	b.n	8009528 <PIDController_Update+0xa8>
 8009546:	bf00      	nop
 8009548:	00000000 	.word	0x00000000

0800954c <OLED_WR_Byte>:
 800954c:	b570      	push	{r4, r5, r6, lr}
 800954e:	460a      	mov	r2, r1
 8009550:	4604      	mov	r4, r0
 8009552:	b101      	cbz	r1, 8009556 <OLED_WR_Byte+0xa>
 8009554:	2201      	movs	r2, #1
 8009556:	4813      	ldr	r0, [pc, #76]	; (80095a4 <OLED_WR_Byte+0x58>)
 8009558:	4e12      	ldr	r6, [pc, #72]	; (80095a4 <OLED_WR_Byte+0x58>)
 800955a:	f44f 7180 	mov.w	r1, #256	; 0x100
 800955e:	f7fb fc4d 	bl	8004dfc <HAL_GPIO_WritePin>
 8009562:	2508      	movs	r5, #8
 8009564:	2200      	movs	r2, #0
 8009566:	2120      	movs	r1, #32
 8009568:	4630      	mov	r0, r6
 800956a:	f7fb fc47 	bl	8004dfc <HAL_GPIO_WritePin>
 800956e:	0623      	lsls	r3, r4, #24
 8009570:	bf4c      	ite	mi
 8009572:	2201      	movmi	r2, #1
 8009574:	2200      	movpl	r2, #0
 8009576:	2140      	movs	r1, #64	; 0x40
 8009578:	4630      	mov	r0, r6
 800957a:	f7fb fc3f 	bl	8004dfc <HAL_GPIO_WritePin>
 800957e:	3d01      	subs	r5, #1
 8009580:	2201      	movs	r2, #1
 8009582:	2120      	movs	r1, #32
 8009584:	4630      	mov	r0, r6
 8009586:	f7fb fc39 	bl	8004dfc <HAL_GPIO_WritePin>
 800958a:	0064      	lsls	r4, r4, #1
 800958c:	f015 05ff 	ands.w	r5, r5, #255	; 0xff
 8009590:	b2e4      	uxtb	r4, r4
 8009592:	d1e7      	bne.n	8009564 <OLED_WR_Byte+0x18>
 8009594:	e8bd 4070 	ldmia.w	sp!, {r4, r5, r6, lr}
 8009598:	4802      	ldr	r0, [pc, #8]	; (80095a4 <OLED_WR_Byte+0x58>)
 800959a:	2201      	movs	r2, #1
 800959c:	f44f 7180 	mov.w	r1, #256	; 0x100
 80095a0:	f7fb bc2c 	b.w	8004dfc <HAL_GPIO_WritePin>
 80095a4:	40021000 	.word	0x40021000

080095a8 <OLED_Refresh_Gram>:
 80095a8:	b570      	push	{r4, r5, r6, lr}
 80095aa:	4e0f      	ldr	r6, [pc, #60]	; (80095e8 <OLED_Refresh_Gram+0x40>)
 80095ac:	24b0      	movs	r4, #176	; 0xb0
 80095ae:	2100      	movs	r1, #0
 80095b0:	4620      	mov	r0, r4
 80095b2:	f7ff ffcb 	bl	800954c <OLED_WR_Byte>
 80095b6:	2100      	movs	r1, #0
 80095b8:	4608      	mov	r0, r1
 80095ba:	f7ff ffc7 	bl	800954c <OLED_WR_Byte>
 80095be:	2100      	movs	r1, #0
 80095c0:	2010      	movs	r0, #16
 80095c2:	f7ff ffc3 	bl	800954c <OLED_WR_Byte>
 80095c6:	2500      	movs	r5, #0
 80095c8:	f816 0035 	ldrb.w	r0, [r6, r5, lsl #3]
 80095cc:	2101      	movs	r1, #1
 80095ce:	3501      	adds	r5, #1
 80095d0:	f7ff ffbc 	bl	800954c <OLED_WR_Byte>
 80095d4:	2d80      	cmp	r5, #128	; 0x80
 80095d6:	d1f7      	bne.n	80095c8 <OLED_Refresh_Gram+0x20>
 80095d8:	3401      	adds	r4, #1
 80095da:	b2e4      	uxtb	r4, r4
 80095dc:	2cb8      	cmp	r4, #184	; 0xb8
 80095de:	f106 0601 	add.w	r6, r6, #1
 80095e2:	d1e4      	bne.n	80095ae <OLED_Refresh_Gram+0x6>
 80095e4:	bd70      	pop	{r4, r5, r6, pc}
 80095e6:	bf00      	nop
 80095e8:	20005fb4 	.word	0x20005fb4

080095ec <OLED_Clear>:
 80095ec:	2300      	movs	r3, #0
 80095ee:	4808      	ldr	r0, [pc, #32]	; (8009610 <OLED_Clear+0x24>)
 80095f0:	b410      	push	{r4}
 80095f2:	461c      	mov	r4, r3
 80095f4:	2200      	movs	r2, #0
 80095f6:	18c1      	adds	r1, r0, r3
 80095f8:	f801 4032 	strb.w	r4, [r1, r2, lsl #3]
 80095fc:	3201      	adds	r2, #1
 80095fe:	2a80      	cmp	r2, #128	; 0x80
 8009600:	d1fa      	bne.n	80095f8 <OLED_Clear+0xc>
 8009602:	3301      	adds	r3, #1
 8009604:	2b08      	cmp	r3, #8
 8009606:	d1f5      	bne.n	80095f4 <OLED_Clear+0x8>
 8009608:	f85d 4b04 	ldr.w	r4, [sp], #4
 800960c:	f7ff bfcc 	b.w	80095a8 <OLED_Refresh_Gram>
 8009610:	20005fb4 	.word	0x20005fb4

08009614 <OLED_DrawPoint>:
 8009614:	0603      	lsls	r3, r0, #24
 8009616:	b530      	push	{r4, r5, lr}
 8009618:	d413      	bmi.n	8009642 <OLED_DrawPoint+0x2e>
 800961a:	293f      	cmp	r1, #63	; 0x3f
 800961c:	d811      	bhi.n	8009642 <OLED_DrawPoint+0x2e>
 800961e:	f001 0507 	and.w	r5, r1, #7
 8009622:	4c0a      	ldr	r4, [pc, #40]	; (800964c <OLED_DrawPoint+0x38>)
 8009624:	08c9      	lsrs	r1, r1, #3
 8009626:	f1c1 0107 	rsb	r1, r1, #7
 800962a:	b2c9      	uxtb	r1, r1
 800962c:	eb04 00c0 	add.w	r0, r4, r0, lsl #3
 8009630:	2301      	movs	r3, #1
 8009632:	f1c5 0507 	rsb	r5, r5, #7
 8009636:	fa03 f505 	lsl.w	r5, r3, r5
 800963a:	5c43      	ldrb	r3, [r0, r1]
 800963c:	b112      	cbz	r2, 8009644 <OLED_DrawPoint+0x30>
 800963e:	432b      	orrs	r3, r5
 8009640:	5443      	strb	r3, [r0, r1]
 8009642:	bd30      	pop	{r4, r5, pc}
 8009644:	ea23 0305 	bic.w	r3, r3, r5
 8009648:	e7fa      	b.n	8009640 <OLED_DrawPoint+0x2c>
 800964a:	bf00      	nop
 800964c:	20005fb4 	.word	0x20005fb4

08009650 <OLED_ShowChar>:
 8009650:	e92d 4ff7 	stmdb	sp!, {r0, r1, r2, r4, r5, r6, r7, r8, r9, sl, fp, lr}
 8009654:	461f      	mov	r7, r3
 8009656:	f1a2 0a20 	sub.w	sl, r2, #32
 800965a:	4b1f      	ldr	r3, [pc, #124]	; (80096d8 <OLED_ShowChar+0x88>)
 800965c:	f89d b030 	ldrb.w	fp, [sp, #48]	; 0x30
 8009660:	fa5f fa8a 	uxtb.w	sl, sl
 8009664:	eb03 130a 	add.w	r3, r3, sl, lsl #4
 8009668:	9300      	str	r3, [sp, #0]
 800966a:	4b1c      	ldr	r3, [pc, #112]	; (80096dc <OLED_ShowChar+0x8c>)
 800966c:	eb0a 0a4a 	add.w	sl, sl, sl, lsl #1
 8009670:	eb03 038a 	add.w	r3, r3, sl, lsl #2
 8009674:	4681      	mov	r9, r0
 8009676:	4688      	mov	r8, r1
 8009678:	9301      	str	r3, [sp, #4]
 800967a:	460c      	mov	r4, r1
 800967c:	2600      	movs	r6, #0
 800967e:	42b7      	cmp	r7, r6
 8009680:	d102      	bne.n	8009688 <OLED_ShowChar+0x38>
 8009682:	b003      	add	sp, #12
 8009684:	e8bd 8ff0 	ldmia.w	sp!, {r4, r5, r6, r7, r8, r9, sl, fp, pc}
 8009688:	2f0c      	cmp	r7, #12
 800968a:	bf0c      	ite	eq
 800968c:	9b01      	ldreq	r3, [sp, #4]
 800968e:	9b00      	ldrne	r3, [sp, #0]
 8009690:	5d9d      	ldrb	r5, [r3, r6]
 8009692:	f104 0308 	add.w	r3, r4, #8
 8009696:	fa5f fa83 	uxtb.w	sl, r3
 800969a:	062b      	lsls	r3, r5, #24
 800969c:	bf58      	it	pl
 800969e:	fabb f28b 	clzpl	r2, fp
 80096a2:	4621      	mov	r1, r4
 80096a4:	f104 0401 	add.w	r4, r4, #1
 80096a8:	bf4c      	ite	mi
 80096aa:	465a      	movmi	r2, fp
 80096ac:	0952      	lsrpl	r2, r2, #5
 80096ae:	4648      	mov	r0, r9
 80096b0:	b2e4      	uxtb	r4, r4
 80096b2:	f7ff ffaf 	bl	8009614 <OLED_DrawPoint>
 80096b6:	eba4 0208 	sub.w	r2, r4, r8
 80096ba:	006d      	lsls	r5, r5, #1
 80096bc:	42ba      	cmp	r2, r7
 80096be:	b2ed      	uxtb	r5, r5
 80096c0:	d107      	bne.n	80096d2 <OLED_ShowChar+0x82>
 80096c2:	f109 0001 	add.w	r0, r9, #1
 80096c6:	fa5f f980 	uxtb.w	r9, r0
 80096ca:	46c2      	mov	sl, r8
 80096cc:	3601      	adds	r6, #1
 80096ce:	4654      	mov	r4, sl
 80096d0:	e7d5      	b.n	800967e <OLED_ShowChar+0x2e>
 80096d2:	45a2      	cmp	sl, r4
 80096d4:	d1e1      	bne.n	800969a <OLED_ShowChar+0x4a>
 80096d6:	e7f9      	b.n	80096cc <OLED_ShowChar+0x7c>
 80096d8:	0800e71e 	.word	0x0800e71e
 80096dc:	0800e2aa 	.word	0x0800e2aa

080096e0 <OLED_ShowString>:
 80096e0:	b5f7      	push	{r0, r1, r2, r4, r5, r6, r7, lr}
 80096e2:	4604      	mov	r4, r0
 80096e4:	460d      	mov	r5, r1
 80096e6:	1e56      	subs	r6, r2, #1
 80096e8:	2701      	movs	r7, #1
 80096ea:	f816 3f01 	ldrb.w	r3, [r6, #1]!
 80096ee:	b90b      	cbnz	r3, 80096f4 <OLED_ShowString+0x14>
 80096f0:	b003      	add	sp, #12
 80096f2:	bdf0      	pop	{r4, r5, r6, r7, pc}
 80096f4:	2c7a      	cmp	r4, #122	; 0x7a
 80096f6:	bf82      	ittt	hi
 80096f8:	3510      	addhi	r5, #16
 80096fa:	b2ed      	uxtbhi	r5, r5
 80096fc:	2400      	movhi	r4, #0
 80096fe:	2d3a      	cmp	r5, #58	; 0x3a
 8009700:	d903      	bls.n	800970a <OLED_ShowString+0x2a>
 8009702:	f7ff ff73 	bl	80095ec <OLED_Clear>
 8009706:	2500      	movs	r5, #0
 8009708:	462c      	mov	r4, r5
 800970a:	9700      	str	r7, [sp, #0]
 800970c:	4620      	mov	r0, r4
 800970e:	7832      	ldrb	r2, [r6, #0]
 8009710:	230c      	movs	r3, #12
 8009712:	4629      	mov	r1, r5
 8009714:	3408      	adds	r4, #8
 8009716:	f7ff ff9b 	bl	8009650 <OLED_ShowChar>
 800971a:	b2e4      	uxtb	r4, r4
 800971c:	e7e5      	b.n	80096ea <OLED_ShowString+0xa>
	...

08009720 <OLED_Init>:
 8009720:	b510      	push	{r4, lr}
 8009722:	f7fc fd03 	bl	800612c <HAL_PWR_EnableBkUpAccess>
 8009726:	4b40      	ldr	r3, [pc, #256]	; (8009828 <OLED_Init+0x108>)
 8009728:	4c40      	ldr	r4, [pc, #256]	; (800982c <OLED_Init+0x10c>)
 800972a:	6f1a      	ldr	r2, [r3, #112]	; 0x70
 800972c:	f022 0201 	bic.w	r2, r2, #1
 8009730:	671a      	str	r2, [r3, #112]	; 0x70
 8009732:	6f1a      	ldr	r2, [r3, #112]	; 0x70
 8009734:	f022 0204 	bic.w	r2, r2, #4
 8009738:	671a      	str	r2, [r3, #112]	; 0x70
 800973a:	f7fc fd05 	bl	8006148 <HAL_PWR_DisableBkUpAccess>
 800973e:	2200      	movs	r2, #0
 8009740:	2180      	movs	r1, #128	; 0x80
 8009742:	4620      	mov	r0, r4
 8009744:	f7fb fb5a 	bl	8004dfc <HAL_GPIO_WritePin>
 8009748:	2064      	movs	r0, #100	; 0x64
 800974a:	f7fb f9a9 	bl	8004aa0 <HAL_Delay>
 800974e:	2201      	movs	r2, #1
 8009750:	4620      	mov	r0, r4
 8009752:	2180      	movs	r1, #128	; 0x80
 8009754:	f7fb fb52 	bl	8004dfc <HAL_GPIO_WritePin>
 8009758:	2100      	movs	r1, #0
 800975a:	20ae      	movs	r0, #174	; 0xae
 800975c:	f7ff fef6 	bl	800954c <OLED_WR_Byte>
 8009760:	2100      	movs	r1, #0
 8009762:	20d5      	movs	r0, #213	; 0xd5
 8009764:	f7ff fef2 	bl	800954c <OLED_WR_Byte>
 8009768:	2100      	movs	r1, #0
 800976a:	2050      	movs	r0, #80	; 0x50
 800976c:	f7ff feee 	bl	800954c <OLED_WR_Byte>
 8009770:	2100      	movs	r1, #0
 8009772:	20a8      	movs	r0, #168	; 0xa8
 8009774:	f7ff feea 	bl	800954c <OLED_WR_Byte>
 8009778:	2100      	movs	r1, #0
 800977a:	203f      	movs	r0, #63	; 0x3f
 800977c:	f7ff fee6 	bl	800954c <OLED_WR_Byte>
 8009780:	2100      	movs	r1, #0
 8009782:	20d3      	movs	r0, #211	; 0xd3
 8009784:	f7ff fee2 	bl	800954c <OLED_WR_Byte>
 8009788:	2100      	movs	r1, #0
 800978a:	4608      	mov	r0, r1
 800978c:	f7ff fede 	bl	800954c <OLED_WR_Byte>
 8009790:	2100      	movs	r1, #0
 8009792:	2040      	movs	r0, #64	; 0x40
 8009794:	f7ff feda 	bl	800954c <OLED_WR_Byte>
 8009798:	2100      	movs	r1, #0
 800979a:	208d      	movs	r0, #141	; 0x8d
 800979c:	f7ff fed6 	bl	800954c <OLED_WR_Byte>
 80097a0:	2100      	movs	r1, #0
 80097a2:	2014      	movs	r0, #20
 80097a4:	f7ff fed2 	bl	800954c <OLED_WR_Byte>
 80097a8:	2100      	movs	r1, #0
 80097aa:	2020      	movs	r0, #32
 80097ac:	f7ff fece 	bl	800954c <OLED_WR_Byte>
 80097b0:	2100      	movs	r1, #0
 80097b2:	2002      	movs	r0, #2
 80097b4:	f7ff feca 	bl	800954c <OLED_WR_Byte>
 80097b8:	2100      	movs	r1, #0
 80097ba:	20a1      	movs	r0, #161	; 0xa1
 80097bc:	f7ff fec6 	bl	800954c <OLED_WR_Byte>
 80097c0:	2100      	movs	r1, #0
 80097c2:	20c0      	movs	r0, #192	; 0xc0
 80097c4:	f7ff fec2 	bl	800954c <OLED_WR_Byte>
 80097c8:	2100      	movs	r1, #0
 80097ca:	20da      	movs	r0, #218	; 0xda
 80097cc:	f7ff febe 	bl	800954c <OLED_WR_Byte>
 80097d0:	2100      	movs	r1, #0
 80097d2:	2012      	movs	r0, #18
 80097d4:	f7ff feba 	bl	800954c <OLED_WR_Byte>
 80097d8:	2100      	movs	r1, #0
 80097da:	2081      	movs	r0, #129	; 0x81
 80097dc:	f7ff feb6 	bl	800954c <OLED_WR_Byte>
 80097e0:	2100      	movs	r1, #0
 80097e2:	20ef      	movs	r0, #239	; 0xef
 80097e4:	f7ff feb2 	bl	800954c <OLED_WR_Byte>
 80097e8:	2100      	movs	r1, #0
 80097ea:	20d9      	movs	r0, #217	; 0xd9
 80097ec:	f7ff feae 	bl	800954c <OLED_WR_Byte>
 80097f0:	2100      	movs	r1, #0
 80097f2:	20f1      	movs	r0, #241	; 0xf1
 80097f4:	f7ff feaa 	bl	800954c <OLED_WR_Byte>
 80097f8:	2100      	movs	r1, #0
 80097fa:	20db      	movs	r0, #219	; 0xdb
 80097fc:	f7ff fea6 	bl	800954c <OLED_WR_Byte>
 8009800:	2100      	movs	r1, #0
 8009802:	2030      	movs	r0, #48	; 0x30
 8009804:	f7ff fea2 	bl	800954c <OLED_WR_Byte>
 8009808:	2100      	movs	r1, #0
 800980a:	20a4      	movs	r0, #164	; 0xa4
 800980c:	f7ff fe9e 	bl	800954c <OLED_WR_Byte>
 8009810:	2100      	movs	r1, #0
 8009812:	20a6      	movs	r0, #166	; 0xa6
 8009814:	f7ff fe9a 	bl	800954c <OLED_WR_Byte>
 8009818:	2100      	movs	r1, #0
 800981a:	20af      	movs	r0, #175	; 0xaf
 800981c:	f7ff fe96 	bl	800954c <OLED_WR_Byte>
 8009820:	e8bd 4010 	ldmia.w	sp!, {r4, lr}
 8009824:	f7ff bee2 	b.w	80095ec <OLED_Clear>
 8009828:	40023800 	.word	0x40023800
 800982c:	40021000 	.word	0x40021000

08009830 <__errno>:
 8009830:	4b01      	ldr	r3, [pc, #4]	; (8009838 <__errno+0x8>)
 8009832:	6818      	ldr	r0, [r3, #0]
 8009834:	4770      	bx	lr
 8009836:	bf00      	nop
 8009838:	20000014 	.word	0x20000014

0800983c <__libc_init_array>:
 800983c:	b570      	push	{r4, r5, r6, lr}
 800983e:	4d0d      	ldr	r5, [pc, #52]	; (8009874 <__libc_init_array+0x38>)
 8009840:	4c0d      	ldr	r4, [pc, #52]	; (8009878 <__libc_init_array+0x3c>)
 8009842:	1b64      	subs	r4, r4, r5
 8009844:	10a4      	asrs	r4, r4, #2
 8009846:	2600      	movs	r6, #0
 8009848:	42a6      	cmp	r6, r4
 800984a:	d109      	bne.n	8009860 <__libc_init_array+0x24>
 800984c:	4d0b      	ldr	r5, [pc, #44]	; (800987c <__libc_init_array+0x40>)
 800984e:	4c0c      	ldr	r4, [pc, #48]	; (8009880 <__libc_init_array+0x44>)
 8009850:	f004 fc8e 	bl	800e170 <_init>
 8009854:	1b64      	subs	r4, r4, r5
 8009856:	10a4      	asrs	r4, r4, #2
 8009858:	2600      	movs	r6, #0
 800985a:	42a6      	cmp	r6, r4
 800985c:	d105      	bne.n	800986a <__libc_init_array+0x2e>
 800985e:	bd70      	pop	{r4, r5, r6, pc}
 8009860:	f855 3b04 	ldr.w	r3, [r5], #4
 8009864:	4798      	blx	r3
 8009866:	3601      	adds	r6, #1
 8009868:	e7ee      	b.n	8009848 <__libc_init_array+0xc>
 800986a:	f855 3b04 	ldr.w	r3, [r5], #4
 800986e:	4798      	blx	r3
 8009870:	3601      	adds	r6, #1
 8009872:	e7f2      	b.n	800985a <__libc_init_array+0x1e>
 8009874:	0800f1bc 	.word	0x0800f1bc
 8009878:	0800f1bc 	.word	0x0800f1bc
 800987c:	0800f1bc 	.word	0x0800f1bc
 8009880:	0800f1c0 	.word	0x0800f1c0

08009884 <memcpy>:
 8009884:	440a      	add	r2, r1
 8009886:	4291      	cmp	r1, r2
 8009888:	f100 33ff 	add.w	r3, r0, #4294967295
 800988c:	d100      	bne.n	8009890 <memcpy+0xc>
 800988e:	4770      	bx	lr
 8009890:	b510      	push	{r4, lr}
 8009892:	f811 4b01 	ldrb.w	r4, [r1], #1
 8009896:	f803 4f01 	strb.w	r4, [r3, #1]!
 800989a:	4291      	cmp	r1, r2
 800989c:	d1f9      	bne.n	8009892 <memcpy+0xe>
 800989e:	bd10      	pop	{r4, pc}

080098a0 <memset>:
 80098a0:	4402      	add	r2, r0
 80098a2:	4603      	mov	r3, r0
 80098a4:	4293      	cmp	r3, r2
 80098a6:	d100      	bne.n	80098aa <memset+0xa>
 80098a8:	4770      	bx	lr
 80098aa:	f803 1b01 	strb.w	r1, [r3], #1
 80098ae:	e7f9      	b.n	80098a4 <memset+0x4>

080098b0 <__cvt>:
 80098b0:	e92d 47ff 	stmdb	sp!, {r0, r1, r2, r3, r4, r5, r6, r7, r8, r9, sl, lr}
 80098b4:	ec55 4b10 	vmov	r4, r5, d0
 80098b8:	2d00      	cmp	r5, #0
 80098ba:	460e      	mov	r6, r1
 80098bc:	4619      	mov	r1, r3
 80098be:	462b      	mov	r3, r5
 80098c0:	bfbb      	ittet	lt
 80098c2:	f105 4300 	addlt.w	r3, r5, #2147483648	; 0x80000000
 80098c6:	461d      	movlt	r5, r3
 80098c8:	2300      	movge	r3, #0
 80098ca:	232d      	movlt	r3, #45	; 0x2d
 80098cc:	700b      	strb	r3, [r1, #0]
 80098ce:	9b0d      	ldr	r3, [sp, #52]	; 0x34
 80098d0:	f8dd a030 	ldr.w	sl, [sp, #48]	; 0x30
 80098d4:	4691      	mov	r9, r2
 80098d6:	f023 0820 	bic.w	r8, r3, #32
 80098da:	bfbc      	itt	lt
 80098dc:	4622      	movlt	r2, r4
 80098de:	4614      	movlt	r4, r2
 80098e0:	f1b8 0f46 	cmp.w	r8, #70	; 0x46
 80098e4:	d005      	beq.n	80098f2 <__cvt+0x42>
 80098e6:	f1b8 0f45 	cmp.w	r8, #69	; 0x45
 80098ea:	d100      	bne.n	80098ee <__cvt+0x3e>
 80098ec:	3601      	adds	r6, #1
 80098ee:	2102      	movs	r1, #2
 80098f0:	e000      	b.n	80098f4 <__cvt+0x44>
 80098f2:	2103      	movs	r1, #3
 80098f4:	ab03      	add	r3, sp, #12
 80098f6:	9301      	str	r3, [sp, #4]
 80098f8:	ab02      	add	r3, sp, #8
 80098fa:	9300      	str	r3, [sp, #0]
 80098fc:	ec45 4b10 	vmov	d0, r4, r5
 8009900:	4653      	mov	r3, sl
 8009902:	4632      	mov	r2, r6
 8009904:	f001 fdac 	bl	800b460 <_dtoa_r>
 8009908:	f1b8 0f47 	cmp.w	r8, #71	; 0x47
 800990c:	4607      	mov	r7, r0
 800990e:	d102      	bne.n	8009916 <__cvt+0x66>
 8009910:	f019 0f01 	tst.w	r9, #1
 8009914:	d022      	beq.n	800995c <__cvt+0xac>
 8009916:	f1b8 0f46 	cmp.w	r8, #70	; 0x46
 800991a:	eb07 0906 	add.w	r9, r7, r6
 800991e:	d110      	bne.n	8009942 <__cvt+0x92>
 8009920:	783b      	ldrb	r3, [r7, #0]
 8009922:	2b30      	cmp	r3, #48	; 0x30
 8009924:	d10a      	bne.n	800993c <__cvt+0x8c>
 8009926:	2200      	movs	r2, #0
 8009928:	2300      	movs	r3, #0
 800992a:	4620      	mov	r0, r4
 800992c:	4629      	mov	r1, r5
 800992e:	f7f7 f8cb 	bl	8000ac8 <__aeabi_dcmpeq>
 8009932:	b918      	cbnz	r0, 800993c <__cvt+0x8c>
 8009934:	f1c6 0601 	rsb	r6, r6, #1
 8009938:	f8ca 6000 	str.w	r6, [sl]
 800993c:	f8da 3000 	ldr.w	r3, [sl]
 8009940:	4499      	add	r9, r3
 8009942:	2200      	movs	r2, #0
 8009944:	2300      	movs	r3, #0
 8009946:	4620      	mov	r0, r4
 8009948:	4629      	mov	r1, r5
 800994a:	f7f7 f8bd 	bl	8000ac8 <__aeabi_dcmpeq>
 800994e:	b108      	cbz	r0, 8009954 <__cvt+0xa4>
 8009950:	f8cd 900c 	str.w	r9, [sp, #12]
 8009954:	2230      	movs	r2, #48	; 0x30
 8009956:	9b03      	ldr	r3, [sp, #12]
 8009958:	454b      	cmp	r3, r9
 800995a:	d307      	bcc.n	800996c <__cvt+0xbc>
 800995c:	9b03      	ldr	r3, [sp, #12]
 800995e:	9a0e      	ldr	r2, [sp, #56]	; 0x38
 8009960:	1bdb      	subs	r3, r3, r7
 8009962:	4638      	mov	r0, r7
 8009964:	6013      	str	r3, [r2, #0]
 8009966:	b004      	add	sp, #16
 8009968:	e8bd 87f0 	ldmia.w	sp!, {r4, r5, r6, r7, r8, r9, sl, pc}
 800996c:	1c59      	adds	r1, r3, #1
 800996e:	9103      	str	r1, [sp, #12]
 8009970:	701a      	strb	r2, [r3, #0]
 8009972:	e7f0      	b.n	8009956 <__cvt+0xa6>

08009974 <__exponent>:
 8009974:	b5f7      	push	{r0, r1, r2, r4, r5, r6, r7, lr}
 8009976:	4603      	mov	r3, r0
 8009978:	2900      	cmp	r1, #0
 800997a:	bfb8      	it	lt
 800997c:	4249      	neglt	r1, r1
 800997e:	f803 2b02 	strb.w	r2, [r3], #2
 8009982:	bfb4      	ite	lt
 8009984:	222d      	movlt	r2, #45	; 0x2d
 8009986:	222b      	movge	r2, #43	; 0x2b
 8009988:	2909      	cmp	r1, #9
 800998a:	7042      	strb	r2, [r0, #1]
 800998c:	dd2a      	ble.n	80099e4 <__exponent+0x70>
 800998e:	f10d 0407 	add.w	r4, sp, #7
 8009992:	46a4      	mov	ip, r4
 8009994:	270a      	movs	r7, #10
 8009996:	46a6      	mov	lr, r4
 8009998:	460a      	mov	r2, r1
 800999a:	fb91 f6f7 	sdiv	r6, r1, r7
 800999e:	fb07 1516 	mls	r5, r7, r6, r1
 80099a2:	3530      	adds	r5, #48	; 0x30
 80099a4:	2a63      	cmp	r2, #99	; 0x63
 80099a6:	f104 34ff 	add.w	r4, r4, #4294967295
 80099aa:	f80e 5c01 	strb.w	r5, [lr, #-1]
 80099ae:	4631      	mov	r1, r6
 80099b0:	dcf1      	bgt.n	8009996 <__exponent+0x22>
 80099b2:	3130      	adds	r1, #48	; 0x30
 80099b4:	f1ae 0502 	sub.w	r5, lr, #2
 80099b8:	f804 1c01 	strb.w	r1, [r4, #-1]
 80099bc:	1c44      	adds	r4, r0, #1
 80099be:	4629      	mov	r1, r5
 80099c0:	4561      	cmp	r1, ip
 80099c2:	d30a      	bcc.n	80099da <__exponent+0x66>
 80099c4:	f10d 0209 	add.w	r2, sp, #9
 80099c8:	eba2 020e 	sub.w	r2, r2, lr
 80099cc:	4565      	cmp	r5, ip
 80099ce:	bf88      	it	hi
 80099d0:	2200      	movhi	r2, #0
 80099d2:	4413      	add	r3, r2
 80099d4:	1a18      	subs	r0, r3, r0
 80099d6:	b003      	add	sp, #12
 80099d8:	bdf0      	pop	{r4, r5, r6, r7, pc}
 80099da:	f811 2b01 	ldrb.w	r2, [r1], #1
 80099de:	f804 2f01 	strb.w	r2, [r4, #1]!
 80099e2:	e7ed      	b.n	80099c0 <__exponent+0x4c>
 80099e4:	2330      	movs	r3, #48	; 0x30
 80099e6:	3130      	adds	r1, #48	; 0x30
 80099e8:	7083      	strb	r3, [r0, #2]
 80099ea:	70c1      	strb	r1, [r0, #3]
 80099ec:	1d03      	adds	r3, r0, #4
 80099ee:	e7f1      	b.n	80099d4 <__exponent+0x60>

080099f0 <_printf_float>:
 80099f0:	e92d 4ff0 	stmdb	sp!, {r4, r5, r6, r7, r8, r9, sl, fp, lr}
 80099f4:	ed2d 8b02 	vpush	{d8}
 80099f8:	b08d      	sub	sp, #52	; 0x34
 80099fa:	460c      	mov	r4, r1
 80099fc:	f8dd 8060 	ldr.w	r8, [sp, #96]	; 0x60
 8009a00:	4616      	mov	r6, r2
 8009a02:	461f      	mov	r7, r3
 8009a04:	4605      	mov	r5, r0
 8009a06:	f002 fe89 	bl	800c71c <_localeconv_r>
 8009a0a:	f8d0 a000 	ldr.w	sl, [r0]
 8009a0e:	4650      	mov	r0, sl
 8009a10:	f7f6 fbde 	bl	80001d0 <strlen>
 8009a14:	2300      	movs	r3, #0
 8009a16:	930a      	str	r3, [sp, #40]	; 0x28
 8009a18:	6823      	ldr	r3, [r4, #0]
 8009a1a:	9305      	str	r3, [sp, #20]
 8009a1c:	f8d8 3000 	ldr.w	r3, [r8]
 8009a20:	f894 b018 	ldrb.w	fp, [r4, #24]
 8009a24:	3307      	adds	r3, #7
 8009a26:	f023 0307 	bic.w	r3, r3, #7
 8009a2a:	f103 0208 	add.w	r2, r3, #8
 8009a2e:	f8c8 2000 	str.w	r2, [r8]
 8009a32:	e9d3 2300 	ldrd	r2, r3, [r3]
 8009a36:	e9c4 2312 	strd	r2, r3, [r4, #72]	; 0x48
 8009a3a:	e9d4 8912 	ldrd	r8, r9, [r4, #72]	; 0x48
 8009a3e:	f029 4300 	bic.w	r3, r9, #2147483648	; 0x80000000
 8009a42:	9307      	str	r3, [sp, #28]
 8009a44:	f8cd 8018 	str.w	r8, [sp, #24]
 8009a48:	ee08 0a10 	vmov	s16, r0
 8009a4c:	4b9f      	ldr	r3, [pc, #636]	; (8009ccc <_printf_float+0x2dc>)
 8009a4e:	e9dd 0106 	ldrd	r0, r1, [sp, #24]
 8009a52:	f04f 32ff 	mov.w	r2, #4294967295
 8009a56:	f7f7 f869 	bl	8000b2c <__aeabi_dcmpun>
 8009a5a:	bb88      	cbnz	r0, 8009ac0 <_printf_float+0xd0>
 8009a5c:	e9dd 0106 	ldrd	r0, r1, [sp, #24]
 8009a60:	4b9a      	ldr	r3, [pc, #616]	; (8009ccc <_printf_float+0x2dc>)
 8009a62:	f04f 32ff 	mov.w	r2, #4294967295
 8009a66:	f7f7 f843 	bl	8000af0 <__aeabi_dcmple>
 8009a6a:	bb48      	cbnz	r0, 8009ac0 <_printf_float+0xd0>
 8009a6c:	2200      	movs	r2, #0
 8009a6e:	2300      	movs	r3, #0
 8009a70:	4640      	mov	r0, r8
 8009a72:	4649      	mov	r1, r9
 8009a74:	f7f7 f832 	bl	8000adc <__aeabi_dcmplt>
 8009a78:	b110      	cbz	r0, 8009a80 <_printf_float+0x90>
 8009a7a:	232d      	movs	r3, #45	; 0x2d
 8009a7c:	f884 3043 	strb.w	r3, [r4, #67]	; 0x43
 8009a80:	4b93      	ldr	r3, [pc, #588]	; (8009cd0 <_printf_float+0x2e0>)
 8009a82:	4894      	ldr	r0, [pc, #592]	; (8009cd4 <_printf_float+0x2e4>)
 8009a84:	f1bb 0f47 	cmp.w	fp, #71	; 0x47
 8009a88:	bf94      	ite	ls
 8009a8a:	4698      	movls	r8, r3
 8009a8c:	4680      	movhi	r8, r0
 8009a8e:	2303      	movs	r3, #3
 8009a90:	6123      	str	r3, [r4, #16]
 8009a92:	9b05      	ldr	r3, [sp, #20]
 8009a94:	f023 0204 	bic.w	r2, r3, #4
 8009a98:	6022      	str	r2, [r4, #0]
 8009a9a:	f04f 0900 	mov.w	r9, #0
 8009a9e:	9700      	str	r7, [sp, #0]
 8009aa0:	4633      	mov	r3, r6
 8009aa2:	aa0b      	add	r2, sp, #44	; 0x2c
 8009aa4:	4621      	mov	r1, r4
 8009aa6:	4628      	mov	r0, r5
 8009aa8:	f000 f9d8 	bl	8009e5c <_printf_common>
 8009aac:	3001      	adds	r0, #1
 8009aae:	f040 8090 	bne.w	8009bd2 <_printf_float+0x1e2>
 8009ab2:	f04f 30ff 	mov.w	r0, #4294967295
 8009ab6:	b00d      	add	sp, #52	; 0x34
 8009ab8:	ecbd 8b02 	vpop	{d8}
 8009abc:	e8bd 8ff0 	ldmia.w	sp!, {r4, r5, r6, r7, r8, r9, sl, fp, pc}
 8009ac0:	4642      	mov	r2, r8
 8009ac2:	464b      	mov	r3, r9
 8009ac4:	4640      	mov	r0, r8
 8009ac6:	4649      	mov	r1, r9
 8009ac8:	f7f7 f830 	bl	8000b2c <__aeabi_dcmpun>
 8009acc:	b140      	cbz	r0, 8009ae0 <_printf_float+0xf0>
 8009ace:	464b      	mov	r3, r9
 8009ad0:	2b00      	cmp	r3, #0
 8009ad2:	bfbc      	itt	lt
 8009ad4:	232d      	movlt	r3, #45	; 0x2d
 8009ad6:	f884 3043 	strblt.w	r3, [r4, #67]	; 0x43
 8009ada:	487f      	ldr	r0, [pc, #508]	; (8009cd8 <_printf_float+0x2e8>)
 8009adc:	4b7f      	ldr	r3, [pc, #508]	; (8009cdc <_printf_float+0x2ec>)
 8009ade:	e7d1      	b.n	8009a84 <_printf_float+0x94>
 8009ae0:	6863      	ldr	r3, [r4, #4]
 8009ae2:	f00b 02df 	and.w	r2, fp, #223	; 0xdf
 8009ae6:	9206      	str	r2, [sp, #24]
 8009ae8:	1c5a      	adds	r2, r3, #1
 8009aea:	d13f      	bne.n	8009b6c <_printf_float+0x17c>
 8009aec:	2306      	movs	r3, #6
 8009aee:	6063      	str	r3, [r4, #4]
 8009af0:	9b05      	ldr	r3, [sp, #20]
 8009af2:	6861      	ldr	r1, [r4, #4]
 8009af4:	f443 6280 	orr.w	r2, r3, #1024	; 0x400
 8009af8:	2300      	movs	r3, #0
 8009afa:	9303      	str	r3, [sp, #12]
 8009afc:	ab0a      	add	r3, sp, #40	; 0x28
 8009afe:	e9cd b301 	strd	fp, r3, [sp, #4]
 8009b02:	ab09      	add	r3, sp, #36	; 0x24
 8009b04:	ec49 8b10 	vmov	d0, r8, r9
 8009b08:	9300      	str	r3, [sp, #0]
 8009b0a:	6022      	str	r2, [r4, #0]
 8009b0c:	f10d 0323 	add.w	r3, sp, #35	; 0x23
 8009b10:	4628      	mov	r0, r5
 8009b12:	f7ff fecd 	bl	80098b0 <__cvt>
 8009b16:	9b06      	ldr	r3, [sp, #24]
 8009b18:	9909      	ldr	r1, [sp, #36]	; 0x24
 8009b1a:	2b47      	cmp	r3, #71	; 0x47
 8009b1c:	4680      	mov	r8, r0
 8009b1e:	d108      	bne.n	8009b32 <_printf_float+0x142>
 8009b20:	1cc8      	adds	r0, r1, #3
 8009b22:	db02      	blt.n	8009b2a <_printf_float+0x13a>
 8009b24:	6863      	ldr	r3, [r4, #4]
 8009b26:	4299      	cmp	r1, r3
 8009b28:	dd41      	ble.n	8009bae <_printf_float+0x1be>
 8009b2a:	f1ab 0b02 	sub.w	fp, fp, #2
 8009b2e:	fa5f fb8b 	uxtb.w	fp, fp
 8009b32:	f1bb 0f65 	cmp.w	fp, #101	; 0x65
 8009b36:	d820      	bhi.n	8009b7a <_printf_float+0x18a>
 8009b38:	3901      	subs	r1, #1
 8009b3a:	465a      	mov	r2, fp
 8009b3c:	f104 0050 	add.w	r0, r4, #80	; 0x50
 8009b40:	9109      	str	r1, [sp, #36]	; 0x24
 8009b42:	f7ff ff17 	bl	8009974 <__exponent>
 8009b46:	9a0a      	ldr	r2, [sp, #40]	; 0x28
 8009b48:	1813      	adds	r3, r2, r0
 8009b4a:	2a01      	cmp	r2, #1
 8009b4c:	4681      	mov	r9, r0
 8009b4e:	6123      	str	r3, [r4, #16]
 8009b50:	dc02      	bgt.n	8009b58 <_printf_float+0x168>
 8009b52:	6822      	ldr	r2, [r4, #0]
 8009b54:	07d2      	lsls	r2, r2, #31
 8009b56:	d501      	bpl.n	8009b5c <_printf_float+0x16c>
 8009b58:	3301      	adds	r3, #1
 8009b5a:	6123      	str	r3, [r4, #16]
 8009b5c:	f89d 3023 	ldrb.w	r3, [sp, #35]	; 0x23
 8009b60:	2b00      	cmp	r3, #0
 8009b62:	d09c      	beq.n	8009a9e <_printf_float+0xae>
 8009b64:	232d      	movs	r3, #45	; 0x2d
 8009b66:	f884 3043 	strb.w	r3, [r4, #67]	; 0x43
 8009b6a:	e798      	b.n	8009a9e <_printf_float+0xae>
 8009b6c:	9a06      	ldr	r2, [sp, #24]
 8009b6e:	2a47      	cmp	r2, #71	; 0x47
 8009b70:	d1be      	bne.n	8009af0 <_printf_float+0x100>
 8009b72:	2b00      	cmp	r3, #0
 8009b74:	d1bc      	bne.n	8009af0 <_printf_float+0x100>
 8009b76:	2301      	movs	r3, #1
 8009b78:	e7b9      	b.n	8009aee <_printf_float+0xfe>
 8009b7a:	f1bb 0f66 	cmp.w	fp, #102	; 0x66
 8009b7e:	d118      	bne.n	8009bb2 <_printf_float+0x1c2>
 8009b80:	2900      	cmp	r1, #0
 8009b82:	6863      	ldr	r3, [r4, #4]
 8009b84:	dd0b      	ble.n	8009b9e <_printf_float+0x1ae>
 8009b86:	6121      	str	r1, [r4, #16]
 8009b88:	b913      	cbnz	r3, 8009b90 <_printf_float+0x1a0>
 8009b8a:	6822      	ldr	r2, [r4, #0]
 8009b8c:	07d0      	lsls	r0, r2, #31
 8009b8e:	d502      	bpl.n	8009b96 <_printf_float+0x1a6>
 8009b90:	3301      	adds	r3, #1
 8009b92:	440b      	add	r3, r1
 8009b94:	6123      	str	r3, [r4, #16]
 8009b96:	65a1      	str	r1, [r4, #88]	; 0x58
 8009b98:	f04f 0900 	mov.w	r9, #0
 8009b9c:	e7de      	b.n	8009b5c <_printf_float+0x16c>
 8009b9e:	b913      	cbnz	r3, 8009ba6 <_printf_float+0x1b6>
 8009ba0:	6822      	ldr	r2, [r4, #0]
 8009ba2:	07d2      	lsls	r2, r2, #31
 8009ba4:	d501      	bpl.n	8009baa <_printf_float+0x1ba>
 8009ba6:	3302      	adds	r3, #2
 8009ba8:	e7f4      	b.n	8009b94 <_printf_float+0x1a4>
 8009baa:	2301      	movs	r3, #1
 8009bac:	e7f2      	b.n	8009b94 <_printf_float+0x1a4>
 8009bae:	f04f 0b67 	mov.w	fp, #103	; 0x67
 8009bb2:	9b0a      	ldr	r3, [sp, #40]	; 0x28
 8009bb4:	4299      	cmp	r1, r3
 8009bb6:	db05      	blt.n	8009bc4 <_printf_float+0x1d4>
 8009bb8:	6823      	ldr	r3, [r4, #0]
 8009bba:	6121      	str	r1, [r4, #16]
 8009bbc:	07d8      	lsls	r0, r3, #31
 8009bbe:	d5ea      	bpl.n	8009b96 <_printf_float+0x1a6>
 8009bc0:	1c4b      	adds	r3, r1, #1
 8009bc2:	e7e7      	b.n	8009b94 <_printf_float+0x1a4>
 8009bc4:	2900      	cmp	r1, #0
 8009bc6:	bfd4      	ite	le
 8009bc8:	f1c1 0202 	rsble	r2, r1, #2
 8009bcc:	2201      	movgt	r2, #1
 8009bce:	4413      	add	r3, r2
 8009bd0:	e7e0      	b.n	8009b94 <_printf_float+0x1a4>
 8009bd2:	6823      	ldr	r3, [r4, #0]
 8009bd4:	055a      	lsls	r2, r3, #21
 8009bd6:	d407      	bmi.n	8009be8 <_printf_float+0x1f8>
 8009bd8:	6923      	ldr	r3, [r4, #16]
 8009bda:	4642      	mov	r2, r8
 8009bdc:	4631      	mov	r1, r6
 8009bde:	4628      	mov	r0, r5
 8009be0:	47b8      	blx	r7
 8009be2:	3001      	adds	r0, #1
 8009be4:	d12c      	bne.n	8009c40 <_printf_float+0x250>
 8009be6:	e764      	b.n	8009ab2 <_printf_float+0xc2>
 8009be8:	f1bb 0f65 	cmp.w	fp, #101	; 0x65
 8009bec:	f240 80e0 	bls.w	8009db0 <_printf_float+0x3c0>
 8009bf0:	e9d4 0112 	ldrd	r0, r1, [r4, #72]	; 0x48
 8009bf4:	2200      	movs	r2, #0
 8009bf6:	2300      	movs	r3, #0
 8009bf8:	f7f6 ff66 	bl	8000ac8 <__aeabi_dcmpeq>
 8009bfc:	2800      	cmp	r0, #0
 8009bfe:	d034      	beq.n	8009c6a <_printf_float+0x27a>
 8009c00:	4a37      	ldr	r2, [pc, #220]	; (8009ce0 <_printf_float+0x2f0>)
 8009c02:	2301      	movs	r3, #1
 8009c04:	4631      	mov	r1, r6
 8009c06:	4628      	mov	r0, r5
 8009c08:	47b8      	blx	r7
 8009c0a:	3001      	adds	r0, #1
 8009c0c:	f43f af51 	beq.w	8009ab2 <_printf_float+0xc2>
 8009c10:	e9dd 2309 	ldrd	r2, r3, [sp, #36]	; 0x24
 8009c14:	429a      	cmp	r2, r3
 8009c16:	db02      	blt.n	8009c1e <_printf_float+0x22e>
 8009c18:	6823      	ldr	r3, [r4, #0]
 8009c1a:	07d8      	lsls	r0, r3, #31
 8009c1c:	d510      	bpl.n	8009c40 <_printf_float+0x250>
 8009c1e:	ee18 3a10 	vmov	r3, s16
 8009c22:	4652      	mov	r2, sl
 8009c24:	4631      	mov	r1, r6
 8009c26:	4628      	mov	r0, r5
 8009c28:	47b8      	blx	r7
 8009c2a:	3001      	adds	r0, #1
 8009c2c:	f43f af41 	beq.w	8009ab2 <_printf_float+0xc2>
 8009c30:	f04f 0800 	mov.w	r8, #0
 8009c34:	f104 091a 	add.w	r9, r4, #26
 8009c38:	9b0a      	ldr	r3, [sp, #40]	; 0x28
 8009c3a:	3b01      	subs	r3, #1
 8009c3c:	4543      	cmp	r3, r8
 8009c3e:	dc09      	bgt.n	8009c54 <_printf_float+0x264>
 8009c40:	6823      	ldr	r3, [r4, #0]
 8009c42:	079b      	lsls	r3, r3, #30
 8009c44:	f100 8105 	bmi.w	8009e52 <_printf_float+0x462>
 8009c48:	68e0      	ldr	r0, [r4, #12]
 8009c4a:	9b0b      	ldr	r3, [sp, #44]	; 0x2c
 8009c4c:	4298      	cmp	r0, r3
 8009c4e:	bfb8      	it	lt
 8009c50:	4618      	movlt	r0, r3
 8009c52:	e730      	b.n	8009ab6 <_printf_float+0xc6>
 8009c54:	2301      	movs	r3, #1
 8009c56:	464a      	mov	r2, r9
 8009c58:	4631      	mov	r1, r6
 8009c5a:	4628      	mov	r0, r5
 8009c5c:	47b8      	blx	r7
 8009c5e:	3001      	adds	r0, #1
 8009c60:	f43f af27 	beq.w	8009ab2 <_printf_float+0xc2>
 8009c64:	f108 0801 	add.w	r8, r8, #1
 8009c68:	e7e6      	b.n	8009c38 <_printf_float+0x248>
 8009c6a:	9b09      	ldr	r3, [sp, #36]	; 0x24
 8009c6c:	2b00      	cmp	r3, #0
 8009c6e:	dc39      	bgt.n	8009ce4 <_printf_float+0x2f4>
 8009c70:	4a1b      	ldr	r2, [pc, #108]	; (8009ce0 <_printf_float+0x2f0>)
 8009c72:	2301      	movs	r3, #1
 8009c74:	4631      	mov	r1, r6
 8009c76:	4628      	mov	r0, r5
 8009c78:	47b8      	blx	r7
 8009c7a:	3001      	adds	r0, #1
 8009c7c:	f43f af19 	beq.w	8009ab2 <_printf_float+0xc2>
 8009c80:	e9dd 2309 	ldrd	r2, r3, [sp, #36]	; 0x24
 8009c84:	4313      	orrs	r3, r2
 8009c86:	d102      	bne.n	8009c8e <_printf_float+0x29e>
 8009c88:	6823      	ldr	r3, [r4, #0]
 8009c8a:	07d9      	lsls	r1, r3, #31
 8009c8c:	d5d8      	bpl.n	8009c40 <_printf_float+0x250>
 8009c8e:	ee18 3a10 	vmov	r3, s16
 8009c92:	4652      	mov	r2, sl
 8009c94:	4631      	mov	r1, r6
 8009c96:	4628      	mov	r0, r5
 8009c98:	47b8      	blx	r7
 8009c9a:	3001      	adds	r0, #1
 8009c9c:	f43f af09 	beq.w	8009ab2 <_printf_float+0xc2>
 8009ca0:	f04f 0900 	mov.w	r9, #0
 8009ca4:	f104 0a1a 	add.w	sl, r4, #26
 8009ca8:	9b09      	ldr	r3, [sp, #36]	; 0x24
 8009caa:	425b      	negs	r3, r3
 8009cac:	454b      	cmp	r3, r9
 8009cae:	dc01      	bgt.n	8009cb4 <_printf_float+0x2c4>
 8009cb0:	9b0a      	ldr	r3, [sp, #40]	; 0x28
 8009cb2:	e792      	b.n	8009bda <_printf_float+0x1ea>
 8009cb4:	2301      	movs	r3, #1
 8009cb6:	4652      	mov	r2, sl
 8009cb8:	4631      	mov	r1, r6
 8009cba:	4628      	mov	r0, r5
 8009cbc:	47b8      	blx	r7
 8009cbe:	3001      	adds	r0, #1
 8009cc0:	f43f aef7 	beq.w	8009ab2 <_printf_float+0xc2>
 8009cc4:	f109 0901 	add.w	r9, r9, #1
 8009cc8:	e7ee      	b.n	8009ca8 <_printf_float+0x2b8>
 8009cca:	bf00      	nop
 8009ccc:	7fefffff 	.word	0x7fefffff
 8009cd0:	0800ed14 	.word	0x0800ed14
 8009cd4:	0800ed18 	.word	0x0800ed18
 8009cd8:	0800ed20 	.word	0x0800ed20
 8009cdc:	0800ed1c 	.word	0x0800ed1c
 8009ce0:	0800ed24 	.word	0x0800ed24
 8009ce4:	9a0a      	ldr	r2, [sp, #40]	; 0x28
 8009ce6:	6da3      	ldr	r3, [r4, #88]	; 0x58
 8009ce8:	429a      	cmp	r2, r3
 8009cea:	bfa8      	it	ge
 8009cec:	461a      	movge	r2, r3
 8009cee:	2a00      	cmp	r2, #0
 8009cf0:	4691      	mov	r9, r2
 8009cf2:	dc37      	bgt.n	8009d64 <_printf_float+0x374>
 8009cf4:	f04f 0b00 	mov.w	fp, #0
 8009cf8:	ea29 79e9 	bic.w	r9, r9, r9, asr #31
 8009cfc:	f104 021a 	add.w	r2, r4, #26
 8009d00:	6da3      	ldr	r3, [r4, #88]	; 0x58
 8009d02:	9305      	str	r3, [sp, #20]
 8009d04:	eba3 0309 	sub.w	r3, r3, r9
 8009d08:	455b      	cmp	r3, fp
 8009d0a:	dc33      	bgt.n	8009d74 <_printf_float+0x384>
 8009d0c:	e9dd 2309 	ldrd	r2, r3, [sp, #36]	; 0x24
 8009d10:	429a      	cmp	r2, r3
 8009d12:	db3b      	blt.n	8009d8c <_printf_float+0x39c>
 8009d14:	6823      	ldr	r3, [r4, #0]
 8009d16:	07da      	lsls	r2, r3, #31
 8009d18:	d438      	bmi.n	8009d8c <_printf_float+0x39c>
 8009d1a:	9b0a      	ldr	r3, [sp, #40]	; 0x28
 8009d1c:	9a05      	ldr	r2, [sp, #20]
 8009d1e:	9909      	ldr	r1, [sp, #36]	; 0x24
 8009d20:	1a9a      	subs	r2, r3, r2
 8009d22:	eba3 0901 	sub.w	r9, r3, r1
 8009d26:	4591      	cmp	r9, r2
 8009d28:	bfa8      	it	ge
 8009d2a:	4691      	movge	r9, r2
 8009d2c:	f1b9 0f00 	cmp.w	r9, #0
 8009d30:	dc35      	bgt.n	8009d9e <_printf_float+0x3ae>
 8009d32:	f04f 0800 	mov.w	r8, #0
 8009d36:	ea29 79e9 	bic.w	r9, r9, r9, asr #31
 8009d3a:	f104 0a1a 	add.w	sl, r4, #26
 8009d3e:	e9dd 2309 	ldrd	r2, r3, [sp, #36]	; 0x24
 8009d42:	1a9b      	subs	r3, r3, r2
 8009d44:	eba3 0309 	sub.w	r3, r3, r9
 8009d48:	4543      	cmp	r3, r8
 8009d4a:	f77f af79 	ble.w	8009c40 <_printf_float+0x250>
 8009d4e:	2301      	movs	r3, #1
 8009d50:	4652      	mov	r2, sl
 8009d52:	4631      	mov	r1, r6
 8009d54:	4628      	mov	r0, r5
 8009d56:	47b8      	blx	r7
 8009d58:	3001      	adds	r0, #1
 8009d5a:	f43f aeaa 	beq.w	8009ab2 <_printf_float+0xc2>
 8009d5e:	f108 0801 	add.w	r8, r8, #1
 8009d62:	e7ec      	b.n	8009d3e <_printf_float+0x34e>
 8009d64:	4613      	mov	r3, r2
 8009d66:	4631      	mov	r1, r6
 8009d68:	4642      	mov	r2, r8
 8009d6a:	4628      	mov	r0, r5
 8009d6c:	47b8      	blx	r7
 8009d6e:	3001      	adds	r0, #1
 8009d70:	d1c0      	bne.n	8009cf4 <_printf_float+0x304>
 8009d72:	e69e      	b.n	8009ab2 <_printf_float+0xc2>
 8009d74:	2301      	movs	r3, #1
 8009d76:	4631      	mov	r1, r6
 8009d78:	4628      	mov	r0, r5
 8009d7a:	9205      	str	r2, [sp, #20]
 8009d7c:	47b8      	blx	r7
 8009d7e:	3001      	adds	r0, #1
 8009d80:	f43f ae97 	beq.w	8009ab2 <_printf_float+0xc2>
 8009d84:	9a05      	ldr	r2, [sp, #20]
 8009d86:	f10b 0b01 	add.w	fp, fp, #1
 8009d8a:	e7b9      	b.n	8009d00 <_printf_float+0x310>
 8009d8c:	ee18 3a10 	vmov	r3, s16
 8009d90:	4652      	mov	r2, sl
 8009d92:	4631      	mov	r1, r6
 8009d94:	4628      	mov	r0, r5
 8009d96:	47b8      	blx	r7
 8009d98:	3001      	adds	r0, #1
 8009d9a:	d1be      	bne.n	8009d1a <_printf_float+0x32a>
 8009d9c:	e689      	b.n	8009ab2 <_printf_float+0xc2>
 8009d9e:	9a05      	ldr	r2, [sp, #20]
 8009da0:	464b      	mov	r3, r9
 8009da2:	4442      	add	r2, r8
 8009da4:	4631      	mov	r1, r6
 8009da6:	4628      	mov	r0, r5
 8009da8:	47b8      	blx	r7
 8009daa:	3001      	adds	r0, #1
 8009dac:	d1c1      	bne.n	8009d32 <_printf_float+0x342>
 8009dae:	e680      	b.n	8009ab2 <_printf_float+0xc2>
 8009db0:	9a0a      	ldr	r2, [sp, #40]	; 0x28
 8009db2:	2a01      	cmp	r2, #1
 8009db4:	dc01      	bgt.n	8009dba <_printf_float+0x3ca>
 8009db6:	07db      	lsls	r3, r3, #31
 8009db8:	d538      	bpl.n	8009e2c <_printf_float+0x43c>
 8009dba:	2301      	movs	r3, #1
 8009dbc:	4642      	mov	r2, r8
 8009dbe:	4631      	mov	r1, r6
 8009dc0:	4628      	mov	r0, r5
 8009dc2:	47b8      	blx	r7
 8009dc4:	3001      	adds	r0, #1
 8009dc6:	f43f ae74 	beq.w	8009ab2 <_printf_float+0xc2>
 8009dca:	ee18 3a10 	vmov	r3, s16
 8009dce:	4652      	mov	r2, sl
 8009dd0:	4631      	mov	r1, r6
 8009dd2:	4628      	mov	r0, r5
 8009dd4:	47b8      	blx	r7
 8009dd6:	3001      	adds	r0, #1
 8009dd8:	f43f ae6b 	beq.w	8009ab2 <_printf_float+0xc2>
 8009ddc:	e9d4 0112 	ldrd	r0, r1, [r4, #72]	; 0x48
 8009de0:	2200      	movs	r2, #0
 8009de2:	2300      	movs	r3, #0
 8009de4:	f7f6 fe70 	bl	8000ac8 <__aeabi_dcmpeq>
 8009de8:	b9d8      	cbnz	r0, 8009e22 <_printf_float+0x432>
 8009dea:	9b0a      	ldr	r3, [sp, #40]	; 0x28
 8009dec:	f108 0201 	add.w	r2, r8, #1
 8009df0:	3b01      	subs	r3, #1
 8009df2:	4631      	mov	r1, r6
 8009df4:	4628      	mov	r0, r5
 8009df6:	47b8      	blx	r7
 8009df8:	3001      	adds	r0, #1
 8009dfa:	d10e      	bne.n	8009e1a <_printf_float+0x42a>
 8009dfc:	e659      	b.n	8009ab2 <_printf_float+0xc2>
 8009dfe:	2301      	movs	r3, #1
 8009e00:	4652      	mov	r2, sl
 8009e02:	4631      	mov	r1, r6
 8009e04:	4628      	mov	r0, r5
 8009e06:	47b8      	blx	r7
 8009e08:	3001      	adds	r0, #1
 8009e0a:	f43f ae52 	beq.w	8009ab2 <_printf_float+0xc2>
 8009e0e:	f108 0801 	add.w	r8, r8, #1
 8009e12:	9b0a      	ldr	r3, [sp, #40]	; 0x28
 8009e14:	3b01      	subs	r3, #1
 8009e16:	4543      	cmp	r3, r8
 8009e18:	dcf1      	bgt.n	8009dfe <_printf_float+0x40e>
 8009e1a:	464b      	mov	r3, r9
 8009e1c:	f104 0250 	add.w	r2, r4, #80	; 0x50
 8009e20:	e6dc      	b.n	8009bdc <_printf_float+0x1ec>
 8009e22:	f04f 0800 	mov.w	r8, #0
 8009e26:	f104 0a1a 	add.w	sl, r4, #26
 8009e2a:	e7f2      	b.n	8009e12 <_printf_float+0x422>
 8009e2c:	2301      	movs	r3, #1
 8009e2e:	4642      	mov	r2, r8
 8009e30:	e7df      	b.n	8009df2 <_printf_float+0x402>
 8009e32:	2301      	movs	r3, #1
 8009e34:	464a      	mov	r2, r9
 8009e36:	4631      	mov	r1, r6
 8009e38:	4628      	mov	r0, r5
 8009e3a:	47b8      	blx	r7
 8009e3c:	3001      	adds	r0, #1
 8009e3e:	f43f ae38 	beq.w	8009ab2 <_printf_float+0xc2>
 8009e42:	f108 0801 	add.w	r8, r8, #1
 8009e46:	68e3      	ldr	r3, [r4, #12]
 8009e48:	990b      	ldr	r1, [sp, #44]	; 0x2c
 8009e4a:	1a5b      	subs	r3, r3, r1
 8009e4c:	4543      	cmp	r3, r8
 8009e4e:	dcf0      	bgt.n	8009e32 <_printf_float+0x442>
 8009e50:	e6fa      	b.n	8009c48 <_printf_float+0x258>
 8009e52:	f04f 0800 	mov.w	r8, #0
 8009e56:	f104 0919 	add.w	r9, r4, #25
 8009e5a:	e7f4      	b.n	8009e46 <_printf_float+0x456>

08009e5c <_printf_common>:
 8009e5c:	e92d 47f0 	stmdb	sp!, {r4, r5, r6, r7, r8, r9, sl, lr}
 8009e60:	4616      	mov	r6, r2
 8009e62:	4699      	mov	r9, r3
 8009e64:	688a      	ldr	r2, [r1, #8]
 8009e66:	690b      	ldr	r3, [r1, #16]
 8009e68:	f8dd 8020 	ldr.w	r8, [sp, #32]
 8009e6c:	4293      	cmp	r3, r2
 8009e6e:	bfb8      	it	lt
 8009e70:	4613      	movlt	r3, r2
 8009e72:	6033      	str	r3, [r6, #0]
 8009e74:	f891 2043 	ldrb.w	r2, [r1, #67]	; 0x43
 8009e78:	4607      	mov	r7, r0
 8009e7a:	460c      	mov	r4, r1
 8009e7c:	b10a      	cbz	r2, 8009e82 <_printf_common+0x26>
 8009e7e:	3301      	adds	r3, #1
 8009e80:	6033      	str	r3, [r6, #0]
 8009e82:	6823      	ldr	r3, [r4, #0]
 8009e84:	0699      	lsls	r1, r3, #26
 8009e86:	bf42      	ittt	mi
 8009e88:	6833      	ldrmi	r3, [r6, #0]
 8009e8a:	3302      	addmi	r3, #2
 8009e8c:	6033      	strmi	r3, [r6, #0]
 8009e8e:	6825      	ldr	r5, [r4, #0]
 8009e90:	f015 0506 	ands.w	r5, r5, #6
 8009e94:	d106      	bne.n	8009ea4 <_printf_common+0x48>
 8009e96:	f104 0a19 	add.w	sl, r4, #25
 8009e9a:	68e3      	ldr	r3, [r4, #12]
 8009e9c:	6832      	ldr	r2, [r6, #0]
 8009e9e:	1a9b      	subs	r3, r3, r2
 8009ea0:	42ab      	cmp	r3, r5
 8009ea2:	dc26      	bgt.n	8009ef2 <_printf_common+0x96>
 8009ea4:	f894 2043 	ldrb.w	r2, [r4, #67]	; 0x43
 8009ea8:	1e13      	subs	r3, r2, #0
 8009eaa:	6822      	ldr	r2, [r4, #0]
 8009eac:	bf18      	it	ne
 8009eae:	2301      	movne	r3, #1
 8009eb0:	0692      	lsls	r2, r2, #26
 8009eb2:	d42b      	bmi.n	8009f0c <_printf_common+0xb0>
 8009eb4:	f104 0243 	add.w	r2, r4, #67	; 0x43
 8009eb8:	4649      	mov	r1, r9
 8009eba:	4638      	mov	r0, r7
 8009ebc:	47c0      	blx	r8
 8009ebe:	3001      	adds	r0, #1
 8009ec0:	d01e      	beq.n	8009f00 <_printf_common+0xa4>
 8009ec2:	6823      	ldr	r3, [r4, #0]
 8009ec4:	68e5      	ldr	r5, [r4, #12]
 8009ec6:	6832      	ldr	r2, [r6, #0]
 8009ec8:	f003 0306 	and.w	r3, r3, #6
 8009ecc:	2b04      	cmp	r3, #4
 8009ece:	bf08      	it	eq
 8009ed0:	1aad      	subeq	r5, r5, r2
 8009ed2:	68a3      	ldr	r3, [r4, #8]
 8009ed4:	6922      	ldr	r2, [r4, #16]
 8009ed6:	bf0c      	ite	eq
 8009ed8:	ea25 75e5 	biceq.w	r5, r5, r5, asr #31
 8009edc:	2500      	movne	r5, #0
 8009ede:	4293      	cmp	r3, r2
 8009ee0:	bfc4      	itt	gt
 8009ee2:	1a9b      	subgt	r3, r3, r2
 8009ee4:	18ed      	addgt	r5, r5, r3
 8009ee6:	2600      	movs	r6, #0
 8009ee8:	341a      	adds	r4, #26
 8009eea:	42b5      	cmp	r5, r6
 8009eec:	d11a      	bne.n	8009f24 <_printf_common+0xc8>
 8009eee:	2000      	movs	r0, #0
 8009ef0:	e008      	b.n	8009f04 <_printf_common+0xa8>
 8009ef2:	2301      	movs	r3, #1
 8009ef4:	4652      	mov	r2, sl
 8009ef6:	4649      	mov	r1, r9
 8009ef8:	4638      	mov	r0, r7
 8009efa:	47c0      	blx	r8
 8009efc:	3001      	adds	r0, #1
 8009efe:	d103      	bne.n	8009f08 <_printf_common+0xac>
 8009f00:	f04f 30ff 	mov.w	r0, #4294967295
 8009f04:	e8bd 87f0 	ldmia.w	sp!, {r4, r5, r6, r7, r8, r9, sl, pc}
 8009f08:	3501      	adds	r5, #1
 8009f0a:	e7c6      	b.n	8009e9a <_printf_common+0x3e>
 8009f0c:	18e1      	adds	r1, r4, r3
 8009f0e:	1c5a      	adds	r2, r3, #1
 8009f10:	2030      	movs	r0, #48	; 0x30
 8009f12:	f881 0043 	strb.w	r0, [r1, #67]	; 0x43
 8009f16:	4422      	add	r2, r4
 8009f18:	f894 1045 	ldrb.w	r1, [r4, #69]	; 0x45
 8009f1c:	f882 1043 	strb.w	r1, [r2, #67]	; 0x43
 8009f20:	3302      	adds	r3, #2
 8009f22:	e7c7      	b.n	8009eb4 <_printf_common+0x58>
 8009f24:	2301      	movs	r3, #1
 8009f26:	4622      	mov	r2, r4
 8009f28:	4649      	mov	r1, r9
 8009f2a:	4638      	mov	r0, r7
 8009f2c:	47c0      	blx	r8
 8009f2e:	3001      	adds	r0, #1
 8009f30:	d0e6      	beq.n	8009f00 <_printf_common+0xa4>
 8009f32:	3601      	adds	r6, #1
 8009f34:	e7d9      	b.n	8009eea <_printf_common+0x8e>
	...

08009f38 <_printf_i>:
 8009f38:	e92d 47ff 	stmdb	sp!, {r0, r1, r2, r3, r4, r5, r6, r7, r8, r9, sl, lr}
 8009f3c:	7e0f      	ldrb	r7, [r1, #24]
 8009f3e:	9d0c      	ldr	r5, [sp, #48]	; 0x30
 8009f40:	2f78      	cmp	r7, #120	; 0x78
 8009f42:	4691      	mov	r9, r2
 8009f44:	4680      	mov	r8, r0
 8009f46:	460c      	mov	r4, r1
 8009f48:	469a      	mov	sl, r3
 8009f4a:	f101 0243 	add.w	r2, r1, #67	; 0x43
 8009f4e:	d807      	bhi.n	8009f60 <_printf_i+0x28>
 8009f50:	2f62      	cmp	r7, #98	; 0x62
 8009f52:	d80a      	bhi.n	8009f6a <_printf_i+0x32>
 8009f54:	2f00      	cmp	r7, #0
 8009f56:	f000 80d8 	beq.w	800a10a <_printf_i+0x1d2>
 8009f5a:	2f58      	cmp	r7, #88	; 0x58
 8009f5c:	f000 80a3 	beq.w	800a0a6 <_printf_i+0x16e>
 8009f60:	f104 0542 	add.w	r5, r4, #66	; 0x42
 8009f64:	f884 7042 	strb.w	r7, [r4, #66]	; 0x42
 8009f68:	e03a      	b.n	8009fe0 <_printf_i+0xa8>
 8009f6a:	f1a7 0363 	sub.w	r3, r7, #99	; 0x63
 8009f6e:	2b15      	cmp	r3, #21
 8009f70:	d8f6      	bhi.n	8009f60 <_printf_i+0x28>
 8009f72:	a101      	add	r1, pc, #4	; (adr r1, 8009f78 <_printf_i+0x40>)
 8009f74:	f851 f023 	ldr.w	pc, [r1, r3, lsl #2]
 8009f78:	08009fd1 	.word	0x08009fd1
 8009f7c:	08009fe5 	.word	0x08009fe5
 8009f80:	08009f61 	.word	0x08009f61
 8009f84:	08009f61 	.word	0x08009f61
 8009f88:	08009f61 	.word	0x08009f61
 8009f8c:	08009f61 	.word	0x08009f61
 8009f90:	08009fe5 	.word	0x08009fe5
 8009f94:	08009f61 	.word	0x08009f61
 8009f98:	08009f61 	.word	0x08009f61
 8009f9c:	08009f61 	.word	0x08009f61
 8009fa0:	08009f61 	.word	0x08009f61
 8009fa4:	0800a0f1 	.word	0x0800a0f1
 8009fa8:	0800a015 	.word	0x0800a015
 8009fac:	0800a0d3 	.word	0x0800a0d3
 8009fb0:	08009f61 	.word	0x08009f61
 8009fb4:	08009f61 	.word	0x08009f61
 8009fb8:	0800a113 	.word	0x0800a113
 8009fbc:	08009f61 	.word	0x08009f61
 8009fc0:	0800a015 	.word	0x0800a015
 8009fc4:	08009f61 	.word	0x08009f61
 8009fc8:	08009f61 	.word	0x08009f61
 8009fcc:	0800a0db 	.word	0x0800a0db
 8009fd0:	682b      	ldr	r3, [r5, #0]
 8009fd2:	1d1a      	adds	r2, r3, #4
 8009fd4:	681b      	ldr	r3, [r3, #0]
 8009fd6:	602a      	str	r2, [r5, #0]
 8009fd8:	f104 0542 	add.w	r5, r4, #66	; 0x42
 8009fdc:	f884 3042 	strb.w	r3, [r4, #66]	; 0x42
 8009fe0:	2301      	movs	r3, #1
 8009fe2:	e0a3      	b.n	800a12c <_printf_i+0x1f4>
 8009fe4:	6820      	ldr	r0, [r4, #0]
 8009fe6:	6829      	ldr	r1, [r5, #0]
 8009fe8:	0606      	lsls	r6, r0, #24
 8009fea:	f101 0304 	add.w	r3, r1, #4
 8009fee:	d50a      	bpl.n	800a006 <_printf_i+0xce>
 8009ff0:	680e      	ldr	r6, [r1, #0]
 8009ff2:	602b      	str	r3, [r5, #0]
 8009ff4:	2e00      	cmp	r6, #0
 8009ff6:	da03      	bge.n	800a000 <_printf_i+0xc8>
 8009ff8:	232d      	movs	r3, #45	; 0x2d
 8009ffa:	4276      	negs	r6, r6
 8009ffc:	f884 3043 	strb.w	r3, [r4, #67]	; 0x43
 800a000:	485e      	ldr	r0, [pc, #376]	; (800a17c <_printf_i+0x244>)
 800a002:	230a      	movs	r3, #10
 800a004:	e019      	b.n	800a03a <_printf_i+0x102>
 800a006:	680e      	ldr	r6, [r1, #0]
 800a008:	602b      	str	r3, [r5, #0]
 800a00a:	f010 0f40 	tst.w	r0, #64	; 0x40
 800a00e:	bf18      	it	ne
 800a010:	b236      	sxthne	r6, r6
 800a012:	e7ef      	b.n	8009ff4 <_printf_i+0xbc>
 800a014:	682b      	ldr	r3, [r5, #0]
 800a016:	6820      	ldr	r0, [r4, #0]
 800a018:	1d19      	adds	r1, r3, #4
 800a01a:	6029      	str	r1, [r5, #0]
 800a01c:	0601      	lsls	r1, r0, #24
 800a01e:	d501      	bpl.n	800a024 <_printf_i+0xec>
 800a020:	681e      	ldr	r6, [r3, #0]
 800a022:	e002      	b.n	800a02a <_printf_i+0xf2>
 800a024:	0646      	lsls	r6, r0, #25
 800a026:	d5fb      	bpl.n	800a020 <_printf_i+0xe8>
 800a028:	881e      	ldrh	r6, [r3, #0]
 800a02a:	4854      	ldr	r0, [pc, #336]	; (800a17c <_printf_i+0x244>)
 800a02c:	2f6f      	cmp	r7, #111	; 0x6f
 800a02e:	bf0c      	ite	eq
 800a030:	2308      	moveq	r3, #8
 800a032:	230a      	movne	r3, #10
 800a034:	2100      	movs	r1, #0
 800a036:	f884 1043 	strb.w	r1, [r4, #67]	; 0x43
 800a03a:	6865      	ldr	r5, [r4, #4]
 800a03c:	60a5      	str	r5, [r4, #8]
 800a03e:	2d00      	cmp	r5, #0
 800a040:	bfa2      	ittt	ge
 800a042:	6821      	ldrge	r1, [r4, #0]
 800a044:	f021 0104 	bicge.w	r1, r1, #4
 800a048:	6021      	strge	r1, [r4, #0]
 800a04a:	b90e      	cbnz	r6, 800a050 <_printf_i+0x118>
 800a04c:	2d00      	cmp	r5, #0
 800a04e:	d04d      	beq.n	800a0ec <_printf_i+0x1b4>
 800a050:	4615      	mov	r5, r2
 800a052:	fbb6 f1f3 	udiv	r1, r6, r3
 800a056:	fb03 6711 	mls	r7, r3, r1, r6
 800a05a:	5dc7      	ldrb	r7, [r0, r7]
 800a05c:	f805 7d01 	strb.w	r7, [r5, #-1]!
 800a060:	4637      	mov	r7, r6
 800a062:	42bb      	cmp	r3, r7
 800a064:	460e      	mov	r6, r1
 800a066:	d9f4      	bls.n	800a052 <_printf_i+0x11a>
 800a068:	2b08      	cmp	r3, #8
 800a06a:	d10b      	bne.n	800a084 <_printf_i+0x14c>
 800a06c:	6823      	ldr	r3, [r4, #0]
 800a06e:	07de      	lsls	r6, r3, #31
 800a070:	d508      	bpl.n	800a084 <_printf_i+0x14c>
 800a072:	6923      	ldr	r3, [r4, #16]
 800a074:	6861      	ldr	r1, [r4, #4]
 800a076:	4299      	cmp	r1, r3
 800a078:	bfde      	ittt	le
 800a07a:	2330      	movle	r3, #48	; 0x30
 800a07c:	f805 3c01 	strble.w	r3, [r5, #-1]
 800a080:	f105 35ff 	addle.w	r5, r5, #4294967295
 800a084:	1b52      	subs	r2, r2, r5
 800a086:	6122      	str	r2, [r4, #16]
 800a088:	f8cd a000 	str.w	sl, [sp]
 800a08c:	464b      	mov	r3, r9
 800a08e:	aa03      	add	r2, sp, #12
 800a090:	4621      	mov	r1, r4
 800a092:	4640      	mov	r0, r8
 800a094:	f7ff fee2 	bl	8009e5c <_printf_common>
 800a098:	3001      	adds	r0, #1
 800a09a:	d14c      	bne.n	800a136 <_printf_i+0x1fe>
 800a09c:	f04f 30ff 	mov.w	r0, #4294967295
 800a0a0:	b004      	add	sp, #16
 800a0a2:	e8bd 87f0 	ldmia.w	sp!, {r4, r5, r6, r7, r8, r9, sl, pc}
 800a0a6:	4835      	ldr	r0, [pc, #212]	; (800a17c <_printf_i+0x244>)
 800a0a8:	f881 7045 	strb.w	r7, [r1, #69]	; 0x45
 800a0ac:	6829      	ldr	r1, [r5, #0]
 800a0ae:	6823      	ldr	r3, [r4, #0]
 800a0b0:	f851 6b04 	ldr.w	r6, [r1], #4
 800a0b4:	6029      	str	r1, [r5, #0]
 800a0b6:	061d      	lsls	r5, r3, #24
 800a0b8:	d514      	bpl.n	800a0e4 <_printf_i+0x1ac>
 800a0ba:	07df      	lsls	r7, r3, #31
 800a0bc:	bf44      	itt	mi
 800a0be:	f043 0320 	orrmi.w	r3, r3, #32
 800a0c2:	6023      	strmi	r3, [r4, #0]
 800a0c4:	b91e      	cbnz	r6, 800a0ce <_printf_i+0x196>
 800a0c6:	6823      	ldr	r3, [r4, #0]
 800a0c8:	f023 0320 	bic.w	r3, r3, #32
 800a0cc:	6023      	str	r3, [r4, #0]
 800a0ce:	2310      	movs	r3, #16
 800a0d0:	e7b0      	b.n	800a034 <_printf_i+0xfc>
 800a0d2:	6823      	ldr	r3, [r4, #0]
 800a0d4:	f043 0320 	orr.w	r3, r3, #32
 800a0d8:	6023      	str	r3, [r4, #0]
 800a0da:	2378      	movs	r3, #120	; 0x78
 800a0dc:	4828      	ldr	r0, [pc, #160]	; (800a180 <_printf_i+0x248>)
 800a0de:	f884 3045 	strb.w	r3, [r4, #69]	; 0x45
 800a0e2:	e7e3      	b.n	800a0ac <_printf_i+0x174>
 800a0e4:	0659      	lsls	r1, r3, #25
 800a0e6:	bf48      	it	mi
 800a0e8:	b2b6      	uxthmi	r6, r6
 800a0ea:	e7e6      	b.n	800a0ba <_printf_i+0x182>
 800a0ec:	4615      	mov	r5, r2
 800a0ee:	e7bb      	b.n	800a068 <_printf_i+0x130>
 800a0f0:	682b      	ldr	r3, [r5, #0]
 800a0f2:	6826      	ldr	r6, [r4, #0]
 800a0f4:	6961      	ldr	r1, [r4, #20]
 800a0f6:	1d18      	adds	r0, r3, #4
 800a0f8:	6028      	str	r0, [r5, #0]
 800a0fa:	0635      	lsls	r5, r6, #24
 800a0fc:	681b      	ldr	r3, [r3, #0]
 800a0fe:	d501      	bpl.n	800a104 <_printf_i+0x1cc>
 800a100:	6019      	str	r1, [r3, #0]
 800a102:	e002      	b.n	800a10a <_printf_i+0x1d2>
 800a104:	0670      	lsls	r0, r6, #25
 800a106:	d5fb      	bpl.n	800a100 <_printf_i+0x1c8>
 800a108:	8019      	strh	r1, [r3, #0]
 800a10a:	2300      	movs	r3, #0
 800a10c:	6123      	str	r3, [r4, #16]
 800a10e:	4615      	mov	r5, r2
 800a110:	e7ba      	b.n	800a088 <_printf_i+0x150>
 800a112:	682b      	ldr	r3, [r5, #0]
 800a114:	1d1a      	adds	r2, r3, #4
 800a116:	602a      	str	r2, [r5, #0]
 800a118:	681d      	ldr	r5, [r3, #0]
 800a11a:	6862      	ldr	r2, [r4, #4]
 800a11c:	2100      	movs	r1, #0
 800a11e:	4628      	mov	r0, r5
 800a120:	f7f6 f85e 	bl	80001e0 <memchr>
 800a124:	b108      	cbz	r0, 800a12a <_printf_i+0x1f2>
 800a126:	1b40      	subs	r0, r0, r5
 800a128:	6060      	str	r0, [r4, #4]
 800a12a:	6863      	ldr	r3, [r4, #4]
 800a12c:	6123      	str	r3, [r4, #16]
 800a12e:	2300      	movs	r3, #0
 800a130:	f884 3043 	strb.w	r3, [r4, #67]	; 0x43
 800a134:	e7a8      	b.n	800a088 <_printf_i+0x150>
 800a136:	6923      	ldr	r3, [r4, #16]
 800a138:	462a      	mov	r2, r5
 800a13a:	4649      	mov	r1, r9
 800a13c:	4640      	mov	r0, r8
 800a13e:	47d0      	blx	sl
 800a140:	3001      	adds	r0, #1
 800a142:	d0ab      	beq.n	800a09c <_printf_i+0x164>
 800a144:	6823      	ldr	r3, [r4, #0]
 800a146:	079b      	lsls	r3, r3, #30
 800a148:	d413      	bmi.n	800a172 <_printf_i+0x23a>
 800a14a:	68e0      	ldr	r0, [r4, #12]
 800a14c:	9b03      	ldr	r3, [sp, #12]
 800a14e:	4298      	cmp	r0, r3
 800a150:	bfb8      	it	lt
 800a152:	4618      	movlt	r0, r3
 800a154:	e7a4      	b.n	800a0a0 <_printf_i+0x168>
 800a156:	2301      	movs	r3, #1
 800a158:	4632      	mov	r2, r6
 800a15a:	4649      	mov	r1, r9
 800a15c:	4640      	mov	r0, r8
 800a15e:	47d0      	blx	sl
 800a160:	3001      	adds	r0, #1
 800a162:	d09b      	beq.n	800a09c <_printf_i+0x164>
 800a164:	3501      	adds	r5, #1
 800a166:	68e3      	ldr	r3, [r4, #12]
 800a168:	9903      	ldr	r1, [sp, #12]
 800a16a:	1a5b      	subs	r3, r3, r1
 800a16c:	42ab      	cmp	r3, r5
 800a16e:	dcf2      	bgt.n	800a156 <_printf_i+0x21e>
 800a170:	e7eb      	b.n	800a14a <_printf_i+0x212>
 800a172:	2500      	movs	r5, #0
 800a174:	f104 0619 	add.w	r6, r4, #25
 800a178:	e7f5      	b.n	800a166 <_printf_i+0x22e>
 800a17a:	bf00      	nop
 800a17c:	0800ed26 	.word	0x0800ed26
 800a180:	0800ed37 	.word	0x0800ed37

0800a184 <_scanf_float>:
 800a184:	e92d 4ff0 	stmdb	sp!, {r4, r5, r6, r7, r8, r9, sl, fp, lr}
 800a188:	b087      	sub	sp, #28
 800a18a:	4617      	mov	r7, r2
 800a18c:	9303      	str	r3, [sp, #12]
 800a18e:	688b      	ldr	r3, [r1, #8]
 800a190:	1e5a      	subs	r2, r3, #1
 800a192:	f5b2 7fae 	cmp.w	r2, #348	; 0x15c
 800a196:	bf83      	ittte	hi
 800a198:	f46f 75ae 	mvnhi.w	r5, #348	; 0x15c
 800a19c:	195b      	addhi	r3, r3, r5
 800a19e:	9302      	strhi	r3, [sp, #8]
 800a1a0:	2300      	movls	r3, #0
 800a1a2:	bf86      	itte	hi
 800a1a4:	f240 135d 	movwhi	r3, #349	; 0x15d
 800a1a8:	608b      	strhi	r3, [r1, #8]
 800a1aa:	9302      	strls	r3, [sp, #8]
 800a1ac:	680b      	ldr	r3, [r1, #0]
 800a1ae:	468b      	mov	fp, r1
 800a1b0:	2500      	movs	r5, #0
 800a1b2:	f443 63f0 	orr.w	r3, r3, #1920	; 0x780
 800a1b6:	f84b 3b1c 	str.w	r3, [fp], #28
 800a1ba:	e9cd 5504 	strd	r5, r5, [sp, #16]
 800a1be:	4680      	mov	r8, r0
 800a1c0:	460c      	mov	r4, r1
 800a1c2:	465e      	mov	r6, fp
 800a1c4:	46aa      	mov	sl, r5
 800a1c6:	46a9      	mov	r9, r5
 800a1c8:	9501      	str	r5, [sp, #4]
 800a1ca:	68a2      	ldr	r2, [r4, #8]
 800a1cc:	b152      	cbz	r2, 800a1e4 <_scanf_float+0x60>
 800a1ce:	683b      	ldr	r3, [r7, #0]
 800a1d0:	781b      	ldrb	r3, [r3, #0]
 800a1d2:	2b4e      	cmp	r3, #78	; 0x4e
 800a1d4:	d864      	bhi.n	800a2a0 <_scanf_float+0x11c>
 800a1d6:	2b40      	cmp	r3, #64	; 0x40
 800a1d8:	d83c      	bhi.n	800a254 <_scanf_float+0xd0>
 800a1da:	f1a3 012b 	sub.w	r1, r3, #43	; 0x2b
 800a1de:	b2c8      	uxtb	r0, r1
 800a1e0:	280e      	cmp	r0, #14
 800a1e2:	d93a      	bls.n	800a25a <_scanf_float+0xd6>
 800a1e4:	f1b9 0f00 	cmp.w	r9, #0
 800a1e8:	d003      	beq.n	800a1f2 <_scanf_float+0x6e>
 800a1ea:	6823      	ldr	r3, [r4, #0]
 800a1ec:	f423 7380 	bic.w	r3, r3, #256	; 0x100
 800a1f0:	6023      	str	r3, [r4, #0]
 800a1f2:	f10a 3aff 	add.w	sl, sl, #4294967295
 800a1f6:	f1ba 0f01 	cmp.w	sl, #1
 800a1fa:	f200 8113 	bhi.w	800a424 <_scanf_float+0x2a0>
 800a1fe:	455e      	cmp	r6, fp
 800a200:	f200 8105 	bhi.w	800a40e <_scanf_float+0x28a>
 800a204:	2501      	movs	r5, #1
 800a206:	4628      	mov	r0, r5
 800a208:	b007      	add	sp, #28
 800a20a:	e8bd 8ff0 	ldmia.w	sp!, {r4, r5, r6, r7, r8, r9, sl, fp, pc}
 800a20e:	f1a3 0261 	sub.w	r2, r3, #97	; 0x61
 800a212:	2a0d      	cmp	r2, #13
 800a214:	d8e6      	bhi.n	800a1e4 <_scanf_float+0x60>
 800a216:	a101      	add	r1, pc, #4	; (adr r1, 800a21c <_scanf_float+0x98>)
 800a218:	f851 f022 	ldr.w	pc, [r1, r2, lsl #2]
 800a21c:	0800a35b 	.word	0x0800a35b
 800a220:	0800a1e5 	.word	0x0800a1e5
 800a224:	0800a1e5 	.word	0x0800a1e5
 800a228:	0800a1e5 	.word	0x0800a1e5
 800a22c:	0800a3bb 	.word	0x0800a3bb
 800a230:	0800a393 	.word	0x0800a393
 800a234:	0800a1e5 	.word	0x0800a1e5
 800a238:	0800a1e5 	.word	0x0800a1e5
 800a23c:	0800a369 	.word	0x0800a369
 800a240:	0800a1e5 	.word	0x0800a1e5
 800a244:	0800a1e5 	.word	0x0800a1e5
 800a248:	0800a1e5 	.word	0x0800a1e5
 800a24c:	0800a1e5 	.word	0x0800a1e5
 800a250:	0800a321 	.word	0x0800a321
 800a254:	f1a3 0241 	sub.w	r2, r3, #65	; 0x41
 800a258:	e7db      	b.n	800a212 <_scanf_float+0x8e>
 800a25a:	290e      	cmp	r1, #14
 800a25c:	d8c2      	bhi.n	800a1e4 <_scanf_float+0x60>
 800a25e:	a001      	add	r0, pc, #4	; (adr r0, 800a264 <_scanf_float+0xe0>)
 800a260:	f850 f021 	ldr.w	pc, [r0, r1, lsl #2]
 800a264:	0800a313 	.word	0x0800a313
 800a268:	0800a1e5 	.word	0x0800a1e5
 800a26c:	0800a313 	.word	0x0800a313
 800a270:	0800a3a7 	.word	0x0800a3a7
 800a274:	0800a1e5 	.word	0x0800a1e5
 800a278:	0800a2c1 	.word	0x0800a2c1
 800a27c:	0800a2fd 	.word	0x0800a2fd
 800a280:	0800a2fd 	.word	0x0800a2fd
 800a284:	0800a2fd 	.word	0x0800a2fd
 800a288:	0800a2fd 	.word	0x0800a2fd
 800a28c:	0800a2fd 	.word	0x0800a2fd
 800a290:	0800a2fd 	.word	0x0800a2fd
 800a294:	0800a2fd 	.word	0x0800a2fd
 800a298:	0800a2fd 	.word	0x0800a2fd
 800a29c:	0800a2fd 	.word	0x0800a2fd
 800a2a0:	2b6e      	cmp	r3, #110	; 0x6e
 800a2a2:	d809      	bhi.n	800a2b8 <_scanf_float+0x134>
 800a2a4:	2b60      	cmp	r3, #96	; 0x60
 800a2a6:	d8b2      	bhi.n	800a20e <_scanf_float+0x8a>
 800a2a8:	2b54      	cmp	r3, #84	; 0x54
 800a2aa:	d077      	beq.n	800a39c <_scanf_float+0x218>
 800a2ac:	2b59      	cmp	r3, #89	; 0x59
 800a2ae:	d199      	bne.n	800a1e4 <_scanf_float+0x60>
 800a2b0:	2d07      	cmp	r5, #7
 800a2b2:	d197      	bne.n	800a1e4 <_scanf_float+0x60>
 800a2b4:	2508      	movs	r5, #8
 800a2b6:	e029      	b.n	800a30c <_scanf_float+0x188>
 800a2b8:	2b74      	cmp	r3, #116	; 0x74
 800a2ba:	d06f      	beq.n	800a39c <_scanf_float+0x218>
 800a2bc:	2b79      	cmp	r3, #121	; 0x79
 800a2be:	e7f6      	b.n	800a2ae <_scanf_float+0x12a>
 800a2c0:	6821      	ldr	r1, [r4, #0]
 800a2c2:	05c8      	lsls	r0, r1, #23
 800a2c4:	d51a      	bpl.n	800a2fc <_scanf_float+0x178>
 800a2c6:	9b02      	ldr	r3, [sp, #8]
 800a2c8:	f021 0180 	bic.w	r1, r1, #128	; 0x80
 800a2cc:	6021      	str	r1, [r4, #0]
 800a2ce:	f109 0901 	add.w	r9, r9, #1
 800a2d2:	b11b      	cbz	r3, 800a2dc <_scanf_float+0x158>
 800a2d4:	3b01      	subs	r3, #1
 800a2d6:	3201      	adds	r2, #1
 800a2d8:	9302      	str	r3, [sp, #8]
 800a2da:	60a2      	str	r2, [r4, #8]
 800a2dc:	68a3      	ldr	r3, [r4, #8]
 800a2de:	3b01      	subs	r3, #1
 800a2e0:	60a3      	str	r3, [r4, #8]
 800a2e2:	6923      	ldr	r3, [r4, #16]
 800a2e4:	3301      	adds	r3, #1
 800a2e6:	6123      	str	r3, [r4, #16]
 800a2e8:	687b      	ldr	r3, [r7, #4]
 800a2ea:	3b01      	subs	r3, #1
 800a2ec:	2b00      	cmp	r3, #0
 800a2ee:	607b      	str	r3, [r7, #4]
 800a2f0:	f340 8084 	ble.w	800a3fc <_scanf_float+0x278>
 800a2f4:	683b      	ldr	r3, [r7, #0]
 800a2f6:	3301      	adds	r3, #1
 800a2f8:	603b      	str	r3, [r7, #0]
 800a2fa:	e766      	b.n	800a1ca <_scanf_float+0x46>
 800a2fc:	eb1a 0f05 	cmn.w	sl, r5
 800a300:	f47f af70 	bne.w	800a1e4 <_scanf_float+0x60>
 800a304:	6822      	ldr	r2, [r4, #0]
 800a306:	f422 72c0 	bic.w	r2, r2, #384	; 0x180
 800a30a:	6022      	str	r2, [r4, #0]
 800a30c:	f806 3b01 	strb.w	r3, [r6], #1
 800a310:	e7e4      	b.n	800a2dc <_scanf_float+0x158>
 800a312:	6822      	ldr	r2, [r4, #0]
 800a314:	0610      	lsls	r0, r2, #24
 800a316:	f57f af65 	bpl.w	800a1e4 <_scanf_float+0x60>
 800a31a:	f022 0280 	bic.w	r2, r2, #128	; 0x80
 800a31e:	e7f4      	b.n	800a30a <_scanf_float+0x186>
 800a320:	f1ba 0f00 	cmp.w	sl, #0
 800a324:	d10e      	bne.n	800a344 <_scanf_float+0x1c0>
 800a326:	f1b9 0f00 	cmp.w	r9, #0
 800a32a:	d10e      	bne.n	800a34a <_scanf_float+0x1c6>
 800a32c:	6822      	ldr	r2, [r4, #0]
 800a32e:	f402 61e0 	and.w	r1, r2, #1792	; 0x700
 800a332:	f5b1 6fe0 	cmp.w	r1, #1792	; 0x700
 800a336:	d108      	bne.n	800a34a <_scanf_float+0x1c6>
 800a338:	f422 62f0 	bic.w	r2, r2, #1920	; 0x780
 800a33c:	6022      	str	r2, [r4, #0]
 800a33e:	f04f 0a01 	mov.w	sl, #1
 800a342:	e7e3      	b.n	800a30c <_scanf_float+0x188>
 800a344:	f1ba 0f02 	cmp.w	sl, #2
 800a348:	d055      	beq.n	800a3f6 <_scanf_float+0x272>
 800a34a:	2d01      	cmp	r5, #1
 800a34c:	d002      	beq.n	800a354 <_scanf_float+0x1d0>
 800a34e:	2d04      	cmp	r5, #4
 800a350:	f47f af48 	bne.w	800a1e4 <_scanf_float+0x60>
 800a354:	3501      	adds	r5, #1
 800a356:	b2ed      	uxtb	r5, r5
 800a358:	e7d8      	b.n	800a30c <_scanf_float+0x188>
 800a35a:	f1ba 0f01 	cmp.w	sl, #1
 800a35e:	f47f af41 	bne.w	800a1e4 <_scanf_float+0x60>
 800a362:	f04f 0a02 	mov.w	sl, #2
 800a366:	e7d1      	b.n	800a30c <_scanf_float+0x188>
 800a368:	b97d      	cbnz	r5, 800a38a <_scanf_float+0x206>
 800a36a:	f1b9 0f00 	cmp.w	r9, #0
 800a36e:	f47f af3c 	bne.w	800a1ea <_scanf_float+0x66>
 800a372:	6822      	ldr	r2, [r4, #0]
 800a374:	f402 61e0 	and.w	r1, r2, #1792	; 0x700
 800a378:	f5b1 6fe0 	cmp.w	r1, #1792	; 0x700
 800a37c:	f47f af39 	bne.w	800a1f2 <_scanf_float+0x6e>
 800a380:	f422 62f0 	bic.w	r2, r2, #1920	; 0x780
 800a384:	6022      	str	r2, [r4, #0]
 800a386:	2501      	movs	r5, #1
 800a388:	e7c0      	b.n	800a30c <_scanf_float+0x188>
 800a38a:	2d03      	cmp	r5, #3
 800a38c:	d0e2      	beq.n	800a354 <_scanf_float+0x1d0>
 800a38e:	2d05      	cmp	r5, #5
 800a390:	e7de      	b.n	800a350 <_scanf_float+0x1cc>
 800a392:	2d02      	cmp	r5, #2
 800a394:	f47f af26 	bne.w	800a1e4 <_scanf_float+0x60>
 800a398:	2503      	movs	r5, #3
 800a39a:	e7b7      	b.n	800a30c <_scanf_float+0x188>
 800a39c:	2d06      	cmp	r5, #6
 800a39e:	f47f af21 	bne.w	800a1e4 <_scanf_float+0x60>
 800a3a2:	2507      	movs	r5, #7
 800a3a4:	e7b2      	b.n	800a30c <_scanf_float+0x188>
 800a3a6:	6822      	ldr	r2, [r4, #0]
 800a3a8:	0591      	lsls	r1, r2, #22
 800a3aa:	f57f af1b 	bpl.w	800a1e4 <_scanf_float+0x60>
 800a3ae:	f422 7220 	bic.w	r2, r2, #640	; 0x280
 800a3b2:	6022      	str	r2, [r4, #0]
 800a3b4:	f8cd 9004 	str.w	r9, [sp, #4]
 800a3b8:	e7a8      	b.n	800a30c <_scanf_float+0x188>
 800a3ba:	6822      	ldr	r2, [r4, #0]
 800a3bc:	f402 61a0 	and.w	r1, r2, #1280	; 0x500
 800a3c0:	f5b1 6f80 	cmp.w	r1, #1024	; 0x400
 800a3c4:	d006      	beq.n	800a3d4 <_scanf_float+0x250>
 800a3c6:	0550      	lsls	r0, r2, #21
 800a3c8:	f57f af0c 	bpl.w	800a1e4 <_scanf_float+0x60>
 800a3cc:	f1b9 0f00 	cmp.w	r9, #0
 800a3d0:	f43f af0f 	beq.w	800a1f2 <_scanf_float+0x6e>
 800a3d4:	0591      	lsls	r1, r2, #22
 800a3d6:	bf58      	it	pl
 800a3d8:	9901      	ldrpl	r1, [sp, #4]
 800a3da:	f422 62f0 	bic.w	r2, r2, #1920	; 0x780
 800a3de:	bf58      	it	pl
 800a3e0:	eba9 0101 	subpl.w	r1, r9, r1
 800a3e4:	f442 72c0 	orr.w	r2, r2, #384	; 0x180
 800a3e8:	bf58      	it	pl
 800a3ea:	e9cd 1604 	strdpl	r1, r6, [sp, #16]
 800a3ee:	6022      	str	r2, [r4, #0]
 800a3f0:	f04f 0900 	mov.w	r9, #0
 800a3f4:	e78a      	b.n	800a30c <_scanf_float+0x188>
 800a3f6:	f04f 0a03 	mov.w	sl, #3
 800a3fa:	e787      	b.n	800a30c <_scanf_float+0x188>
 800a3fc:	f8d4 3180 	ldr.w	r3, [r4, #384]	; 0x180
 800a400:	4639      	mov	r1, r7
 800a402:	4640      	mov	r0, r8
 800a404:	4798      	blx	r3
 800a406:	2800      	cmp	r0, #0
 800a408:	f43f aedf 	beq.w	800a1ca <_scanf_float+0x46>
 800a40c:	e6ea      	b.n	800a1e4 <_scanf_float+0x60>
 800a40e:	f8d4 317c 	ldr.w	r3, [r4, #380]	; 0x17c
 800a412:	f816 1d01 	ldrb.w	r1, [r6, #-1]!
 800a416:	463a      	mov	r2, r7
 800a418:	4640      	mov	r0, r8
 800a41a:	4798      	blx	r3
 800a41c:	6923      	ldr	r3, [r4, #16]
 800a41e:	3b01      	subs	r3, #1
 800a420:	6123      	str	r3, [r4, #16]
 800a422:	e6ec      	b.n	800a1fe <_scanf_float+0x7a>
 800a424:	1e6b      	subs	r3, r5, #1
 800a426:	2b06      	cmp	r3, #6
 800a428:	d825      	bhi.n	800a476 <_scanf_float+0x2f2>
 800a42a:	2d02      	cmp	r5, #2
 800a42c:	d836      	bhi.n	800a49c <_scanf_float+0x318>
 800a42e:	455e      	cmp	r6, fp
 800a430:	f67f aee8 	bls.w	800a204 <_scanf_float+0x80>
 800a434:	f8d4 317c 	ldr.w	r3, [r4, #380]	; 0x17c
 800a438:	f816 1d01 	ldrb.w	r1, [r6, #-1]!
 800a43c:	463a      	mov	r2, r7
 800a43e:	4640      	mov	r0, r8
 800a440:	4798      	blx	r3
 800a442:	6923      	ldr	r3, [r4, #16]
 800a444:	3b01      	subs	r3, #1
 800a446:	6123      	str	r3, [r4, #16]
 800a448:	e7f1      	b.n	800a42e <_scanf_float+0x2aa>
 800a44a:	9802      	ldr	r0, [sp, #8]
 800a44c:	f8d4 317c 	ldr.w	r3, [r4, #380]	; 0x17c
 800a450:	f810 1d01 	ldrb.w	r1, [r0, #-1]!
 800a454:	9002      	str	r0, [sp, #8]
 800a456:	463a      	mov	r2, r7
 800a458:	4640      	mov	r0, r8
 800a45a:	4798      	blx	r3
 800a45c:	6923      	ldr	r3, [r4, #16]
 800a45e:	3b01      	subs	r3, #1
 800a460:	6123      	str	r3, [r4, #16]
 800a462:	f10a 3aff 	add.w	sl, sl, #4294967295
 800a466:	fa5f fa8a 	uxtb.w	sl, sl
 800a46a:	f1ba 0f02 	cmp.w	sl, #2
 800a46e:	d1ec      	bne.n	800a44a <_scanf_float+0x2c6>
 800a470:	3d03      	subs	r5, #3
 800a472:	b2ed      	uxtb	r5, r5
 800a474:	1b76      	subs	r6, r6, r5
 800a476:	6823      	ldr	r3, [r4, #0]
 800a478:	05da      	lsls	r2, r3, #23
 800a47a:	d52f      	bpl.n	800a4dc <_scanf_float+0x358>
 800a47c:	055b      	lsls	r3, r3, #21
 800a47e:	d510      	bpl.n	800a4a2 <_scanf_float+0x31e>
 800a480:	455e      	cmp	r6, fp
 800a482:	f67f aebf 	bls.w	800a204 <_scanf_float+0x80>
 800a486:	f8d4 317c 	ldr.w	r3, [r4, #380]	; 0x17c
 800a48a:	f816 1d01 	ldrb.w	r1, [r6, #-1]!
 800a48e:	463a      	mov	r2, r7
 800a490:	4640      	mov	r0, r8
 800a492:	4798      	blx	r3
 800a494:	6923      	ldr	r3, [r4, #16]
 800a496:	3b01      	subs	r3, #1
 800a498:	6123      	str	r3, [r4, #16]
 800a49a:	e7f1      	b.n	800a480 <_scanf_float+0x2fc>
 800a49c:	46aa      	mov	sl, r5
 800a49e:	9602      	str	r6, [sp, #8]
 800a4a0:	e7df      	b.n	800a462 <_scanf_float+0x2de>
 800a4a2:	f816 1c01 	ldrb.w	r1, [r6, #-1]
 800a4a6:	6923      	ldr	r3, [r4, #16]
 800a4a8:	2965      	cmp	r1, #101	; 0x65
 800a4aa:	f103 33ff 	add.w	r3, r3, #4294967295
 800a4ae:	f106 35ff 	add.w	r5, r6, #4294967295
 800a4b2:	6123      	str	r3, [r4, #16]
 800a4b4:	d00c      	beq.n	800a4d0 <_scanf_float+0x34c>
 800a4b6:	2945      	cmp	r1, #69	; 0x45
 800a4b8:	d00a      	beq.n	800a4d0 <_scanf_float+0x34c>
 800a4ba:	f8d4 317c 	ldr.w	r3, [r4, #380]	; 0x17c
 800a4be:	463a      	mov	r2, r7
 800a4c0:	4640      	mov	r0, r8
 800a4c2:	4798      	blx	r3
 800a4c4:	6923      	ldr	r3, [r4, #16]
 800a4c6:	f816 1c02 	ldrb.w	r1, [r6, #-2]
 800a4ca:	3b01      	subs	r3, #1
 800a4cc:	1eb5      	subs	r5, r6, #2
 800a4ce:	6123      	str	r3, [r4, #16]
 800a4d0:	f8d4 317c 	ldr.w	r3, [r4, #380]	; 0x17c
 800a4d4:	463a      	mov	r2, r7
 800a4d6:	4640      	mov	r0, r8
 800a4d8:	4798      	blx	r3
 800a4da:	462e      	mov	r6, r5
 800a4dc:	6825      	ldr	r5, [r4, #0]
 800a4de:	f015 0510 	ands.w	r5, r5, #16
 800a4e2:	d159      	bne.n	800a598 <_scanf_float+0x414>
 800a4e4:	7035      	strb	r5, [r6, #0]
 800a4e6:	6823      	ldr	r3, [r4, #0]
 800a4e8:	f403 63c0 	and.w	r3, r3, #1536	; 0x600
 800a4ec:	f5b3 6f80 	cmp.w	r3, #1024	; 0x400
 800a4f0:	d11b      	bne.n	800a52a <_scanf_float+0x3a6>
 800a4f2:	9b01      	ldr	r3, [sp, #4]
 800a4f4:	454b      	cmp	r3, r9
 800a4f6:	eba3 0209 	sub.w	r2, r3, r9
 800a4fa:	d123      	bne.n	800a544 <_scanf_float+0x3c0>
 800a4fc:	2200      	movs	r2, #0
 800a4fe:	4659      	mov	r1, fp
 800a500:	4640      	mov	r0, r8
 800a502:	f000 fe97 	bl	800b234 <_strtod_r>
 800a506:	6822      	ldr	r2, [r4, #0]
 800a508:	9b03      	ldr	r3, [sp, #12]
 800a50a:	f012 0f02 	tst.w	r2, #2
 800a50e:	ec57 6b10 	vmov	r6, r7, d0
 800a512:	681b      	ldr	r3, [r3, #0]
 800a514:	d021      	beq.n	800a55a <_scanf_float+0x3d6>
 800a516:	9903      	ldr	r1, [sp, #12]
 800a518:	1d1a      	adds	r2, r3, #4
 800a51a:	600a      	str	r2, [r1, #0]
 800a51c:	681b      	ldr	r3, [r3, #0]
 800a51e:	e9c3 6700 	strd	r6, r7, [r3]
 800a522:	68e3      	ldr	r3, [r4, #12]
 800a524:	3301      	adds	r3, #1
 800a526:	60e3      	str	r3, [r4, #12]
 800a528:	e66d      	b.n	800a206 <_scanf_float+0x82>
 800a52a:	9b04      	ldr	r3, [sp, #16]
 800a52c:	2b00      	cmp	r3, #0
 800a52e:	d0e5      	beq.n	800a4fc <_scanf_float+0x378>
 800a530:	9905      	ldr	r1, [sp, #20]
 800a532:	230a      	movs	r3, #10
 800a534:	462a      	mov	r2, r5
 800a536:	3101      	adds	r1, #1
 800a538:	4640      	mov	r0, r8
 800a53a:	f000 ff03 	bl	800b344 <_strtol_r>
 800a53e:	9b04      	ldr	r3, [sp, #16]
 800a540:	9e05      	ldr	r6, [sp, #20]
 800a542:	1ac2      	subs	r2, r0, r3
 800a544:	f204 136f 	addw	r3, r4, #367	; 0x16f
 800a548:	429e      	cmp	r6, r3
 800a54a:	bf28      	it	cs
 800a54c:	f504 76b7 	addcs.w	r6, r4, #366	; 0x16e
 800a550:	4912      	ldr	r1, [pc, #72]	; (800a59c <_scanf_float+0x418>)
 800a552:	4630      	mov	r0, r6
 800a554:	f000 f82c 	bl	800a5b0 <siprintf>
 800a558:	e7d0      	b.n	800a4fc <_scanf_float+0x378>
 800a55a:	9903      	ldr	r1, [sp, #12]
 800a55c:	f012 0f04 	tst.w	r2, #4
 800a560:	f103 0204 	add.w	r2, r3, #4
 800a564:	600a      	str	r2, [r1, #0]
 800a566:	d1d9      	bne.n	800a51c <_scanf_float+0x398>
 800a568:	f8d3 8000 	ldr.w	r8, [r3]
 800a56c:	ee10 2a10 	vmov	r2, s0
 800a570:	ee10 0a10 	vmov	r0, s0
 800a574:	463b      	mov	r3, r7
 800a576:	4639      	mov	r1, r7
 800a578:	f7f6 fad8 	bl	8000b2c <__aeabi_dcmpun>
 800a57c:	b128      	cbz	r0, 800a58a <_scanf_float+0x406>
 800a57e:	4808      	ldr	r0, [pc, #32]	; (800a5a0 <_scanf_float+0x41c>)
 800a580:	f000 f810 	bl	800a5a4 <nanf>
 800a584:	ed88 0a00 	vstr	s0, [r8]
 800a588:	e7cb      	b.n	800a522 <_scanf_float+0x39e>
 800a58a:	4630      	mov	r0, r6
 800a58c:	4639      	mov	r1, r7
 800a58e:	f7f6 fb2b 	bl	8000be8 <__aeabi_d2f>
 800a592:	f8c8 0000 	str.w	r0, [r8]
 800a596:	e7c4      	b.n	800a522 <_scanf_float+0x39e>
 800a598:	2500      	movs	r5, #0
 800a59a:	e634      	b.n	800a206 <_scanf_float+0x82>
 800a59c:	0800ed48 	.word	0x0800ed48
 800a5a0:	0800f150 	.word	0x0800f150

0800a5a4 <nanf>:
 800a5a4:	ed9f 0a01 	vldr	s0, [pc, #4]	; 800a5ac <nanf+0x8>
 800a5a8:	4770      	bx	lr
 800a5aa:	bf00      	nop
 800a5ac:	7fc00000 	.word	0x7fc00000

0800a5b0 <siprintf>:
 800a5b0:	b40e      	push	{r1, r2, r3}
 800a5b2:	b500      	push	{lr}
 800a5b4:	b09c      	sub	sp, #112	; 0x70
 800a5b6:	ab1d      	add	r3, sp, #116	; 0x74
 800a5b8:	9002      	str	r0, [sp, #8]
 800a5ba:	9006      	str	r0, [sp, #24]
 800a5bc:	f06f 4100 	mvn.w	r1, #2147483648	; 0x80000000
 800a5c0:	4809      	ldr	r0, [pc, #36]	; (800a5e8 <siprintf+0x38>)
 800a5c2:	9107      	str	r1, [sp, #28]
 800a5c4:	9104      	str	r1, [sp, #16]
 800a5c6:	4909      	ldr	r1, [pc, #36]	; (800a5ec <siprintf+0x3c>)
 800a5c8:	f853 2b04 	ldr.w	r2, [r3], #4
 800a5cc:	9105      	str	r1, [sp, #20]
 800a5ce:	6800      	ldr	r0, [r0, #0]
 800a5d0:	9301      	str	r3, [sp, #4]
 800a5d2:	a902      	add	r1, sp, #8
 800a5d4:	f002 fed4 	bl	800d380 <_svfiprintf_r>
 800a5d8:	9b02      	ldr	r3, [sp, #8]
 800a5da:	2200      	movs	r2, #0
 800a5dc:	701a      	strb	r2, [r3, #0]
 800a5de:	b01c      	add	sp, #112	; 0x70
 800a5e0:	f85d eb04 	ldr.w	lr, [sp], #4
 800a5e4:	b003      	add	sp, #12
 800a5e6:	4770      	bx	lr
 800a5e8:	20000014 	.word	0x20000014
 800a5ec:	ffff0208 	.word	0xffff0208

0800a5f0 <sulp>:
 800a5f0:	b570      	push	{r4, r5, r6, lr}
 800a5f2:	4604      	mov	r4, r0
 800a5f4:	460d      	mov	r5, r1
 800a5f6:	ec45 4b10 	vmov	d0, r4, r5
 800a5fa:	4616      	mov	r6, r2
 800a5fc:	f002 fc1e 	bl	800ce3c <__ulp>
 800a600:	ec51 0b10 	vmov	r0, r1, d0
 800a604:	b17e      	cbz	r6, 800a626 <sulp+0x36>
 800a606:	f3c5 530a 	ubfx	r3, r5, #20, #11
 800a60a:	f1c3 036b 	rsb	r3, r3, #107	; 0x6b
 800a60e:	2b00      	cmp	r3, #0
 800a610:	dd09      	ble.n	800a626 <sulp+0x36>
 800a612:	051b      	lsls	r3, r3, #20
 800a614:	f103 557f 	add.w	r5, r3, #1069547520	; 0x3fc00000
 800a618:	2400      	movs	r4, #0
 800a61a:	f505 1540 	add.w	r5, r5, #3145728	; 0x300000
 800a61e:	4622      	mov	r2, r4
 800a620:	462b      	mov	r3, r5
 800a622:	f7f5 ffe9 	bl	80005f8 <__aeabi_dmul>
 800a626:	bd70      	pop	{r4, r5, r6, pc}

0800a628 <_strtod_l>:
 800a628:	e92d 4ff0 	stmdb	sp!, {r4, r5, r6, r7, r8, r9, sl, fp, lr}
 800a62c:	ed2d 8b02 	vpush	{d8}
 800a630:	b09d      	sub	sp, #116	; 0x74
 800a632:	461f      	mov	r7, r3
 800a634:	2300      	movs	r3, #0
 800a636:	9318      	str	r3, [sp, #96]	; 0x60
 800a638:	4ba2      	ldr	r3, [pc, #648]	; (800a8c4 <_strtod_l+0x29c>)
 800a63a:	9213      	str	r2, [sp, #76]	; 0x4c
 800a63c:	681b      	ldr	r3, [r3, #0]
 800a63e:	9305      	str	r3, [sp, #20]
 800a640:	4604      	mov	r4, r0
 800a642:	4618      	mov	r0, r3
 800a644:	4688      	mov	r8, r1
 800a646:	f7f5 fdc3 	bl	80001d0 <strlen>
 800a64a:	f04f 0a00 	mov.w	sl, #0
 800a64e:	4605      	mov	r5, r0
 800a650:	f04f 0b00 	mov.w	fp, #0
 800a654:	f8cd 805c 	str.w	r8, [sp, #92]	; 0x5c
 800a658:	9b17      	ldr	r3, [sp, #92]	; 0x5c
 800a65a:	781a      	ldrb	r2, [r3, #0]
 800a65c:	2a2b      	cmp	r2, #43	; 0x2b
 800a65e:	d04e      	beq.n	800a6fe <_strtod_l+0xd6>
 800a660:	d83b      	bhi.n	800a6da <_strtod_l+0xb2>
 800a662:	2a0d      	cmp	r2, #13
 800a664:	d834      	bhi.n	800a6d0 <_strtod_l+0xa8>
 800a666:	2a08      	cmp	r2, #8
 800a668:	d834      	bhi.n	800a6d4 <_strtod_l+0xac>
 800a66a:	2a00      	cmp	r2, #0
 800a66c:	d03e      	beq.n	800a6ec <_strtod_l+0xc4>
 800a66e:	2300      	movs	r3, #0
 800a670:	930a      	str	r3, [sp, #40]	; 0x28
 800a672:	9e17      	ldr	r6, [sp, #92]	; 0x5c
 800a674:	7833      	ldrb	r3, [r6, #0]
 800a676:	2b30      	cmp	r3, #48	; 0x30
 800a678:	f040 80b0 	bne.w	800a7dc <_strtod_l+0x1b4>
 800a67c:	7873      	ldrb	r3, [r6, #1]
 800a67e:	f003 03df 	and.w	r3, r3, #223	; 0xdf
 800a682:	2b58      	cmp	r3, #88	; 0x58
 800a684:	d168      	bne.n	800a758 <_strtod_l+0x130>
 800a686:	9b0a      	ldr	r3, [sp, #40]	; 0x28
 800a688:	9301      	str	r3, [sp, #4]
 800a68a:	ab18      	add	r3, sp, #96	; 0x60
 800a68c:	9702      	str	r7, [sp, #8]
 800a68e:	9300      	str	r3, [sp, #0]
 800a690:	4a8d      	ldr	r2, [pc, #564]	; (800a8c8 <_strtod_l+0x2a0>)
 800a692:	ab19      	add	r3, sp, #100	; 0x64
 800a694:	a917      	add	r1, sp, #92	; 0x5c
 800a696:	4620      	mov	r0, r4
 800a698:	f001 fd38 	bl	800c10c <__gethex>
 800a69c:	f010 0707 	ands.w	r7, r0, #7
 800a6a0:	4605      	mov	r5, r0
 800a6a2:	d005      	beq.n	800a6b0 <_strtod_l+0x88>
 800a6a4:	2f06      	cmp	r7, #6
 800a6a6:	d12c      	bne.n	800a702 <_strtod_l+0xda>
 800a6a8:	3601      	adds	r6, #1
 800a6aa:	2300      	movs	r3, #0
 800a6ac:	9617      	str	r6, [sp, #92]	; 0x5c
 800a6ae:	930a      	str	r3, [sp, #40]	; 0x28
 800a6b0:	9b13      	ldr	r3, [sp, #76]	; 0x4c
 800a6b2:	2b00      	cmp	r3, #0
 800a6b4:	f040 8590 	bne.w	800b1d8 <_strtod_l+0xbb0>
 800a6b8:	9b0a      	ldr	r3, [sp, #40]	; 0x28
 800a6ba:	b1eb      	cbz	r3, 800a6f8 <_strtod_l+0xd0>
 800a6bc:	4652      	mov	r2, sl
 800a6be:	f10b 4300 	add.w	r3, fp, #2147483648	; 0x80000000
 800a6c2:	ec43 2b10 	vmov	d0, r2, r3
 800a6c6:	b01d      	add	sp, #116	; 0x74
 800a6c8:	ecbd 8b02 	vpop	{d8}
 800a6cc:	e8bd 8ff0 	ldmia.w	sp!, {r4, r5, r6, r7, r8, r9, sl, fp, pc}
 800a6d0:	2a20      	cmp	r2, #32
 800a6d2:	d1cc      	bne.n	800a66e <_strtod_l+0x46>
 800a6d4:	3301      	adds	r3, #1
 800a6d6:	9317      	str	r3, [sp, #92]	; 0x5c
 800a6d8:	e7be      	b.n	800a658 <_strtod_l+0x30>
 800a6da:	2a2d      	cmp	r2, #45	; 0x2d
 800a6dc:	d1c7      	bne.n	800a66e <_strtod_l+0x46>
 800a6de:	2201      	movs	r2, #1
 800a6e0:	920a      	str	r2, [sp, #40]	; 0x28
 800a6e2:	1c5a      	adds	r2, r3, #1
 800a6e4:	9217      	str	r2, [sp, #92]	; 0x5c
 800a6e6:	785b      	ldrb	r3, [r3, #1]
 800a6e8:	2b00      	cmp	r3, #0
 800a6ea:	d1c2      	bne.n	800a672 <_strtod_l+0x4a>
 800a6ec:	9b13      	ldr	r3, [sp, #76]	; 0x4c
 800a6ee:	f8cd 805c 	str.w	r8, [sp, #92]	; 0x5c
 800a6f2:	2b00      	cmp	r3, #0
 800a6f4:	f040 856e 	bne.w	800b1d4 <_strtod_l+0xbac>
 800a6f8:	4652      	mov	r2, sl
 800a6fa:	465b      	mov	r3, fp
 800a6fc:	e7e1      	b.n	800a6c2 <_strtod_l+0x9a>
 800a6fe:	2200      	movs	r2, #0
 800a700:	e7ee      	b.n	800a6e0 <_strtod_l+0xb8>
 800a702:	9a18      	ldr	r2, [sp, #96]	; 0x60
 800a704:	b13a      	cbz	r2, 800a716 <_strtod_l+0xee>
 800a706:	2135      	movs	r1, #53	; 0x35
 800a708:	a81a      	add	r0, sp, #104	; 0x68
 800a70a:	f002 fca2 	bl	800d052 <__copybits>
 800a70e:	9918      	ldr	r1, [sp, #96]	; 0x60
 800a710:	4620      	mov	r0, r4
 800a712:	f002 f861 	bl	800c7d8 <_Bfree>
 800a716:	3f01      	subs	r7, #1
 800a718:	2f04      	cmp	r7, #4
 800a71a:	d806      	bhi.n	800a72a <_strtod_l+0x102>
 800a71c:	e8df f007 	tbb	[pc, r7]
 800a720:	1714030a 	.word	0x1714030a
 800a724:	0a          	.byte	0x0a
 800a725:	00          	.byte	0x00
 800a726:	e9dd ab1a 	ldrd	sl, fp, [sp, #104]	; 0x68
 800a72a:	0728      	lsls	r0, r5, #28
 800a72c:	d5c0      	bpl.n	800a6b0 <_strtod_l+0x88>
 800a72e:	f04b 4b00 	orr.w	fp, fp, #2147483648	; 0x80000000
 800a732:	e7bd      	b.n	800a6b0 <_strtod_l+0x88>
 800a734:	e9dd a31a 	ldrd	sl, r3, [sp, #104]	; 0x68
 800a738:	9a19      	ldr	r2, [sp, #100]	; 0x64
 800a73a:	f423 1380 	bic.w	r3, r3, #1048576	; 0x100000
 800a73e:	f202 4233 	addw	r2, r2, #1075	; 0x433
 800a742:	ea43 5b02 	orr.w	fp, r3, r2, lsl #20
 800a746:	e7f0      	b.n	800a72a <_strtod_l+0x102>
 800a748:	f8df b180 	ldr.w	fp, [pc, #384]	; 800a8cc <_strtod_l+0x2a4>
 800a74c:	e7ed      	b.n	800a72a <_strtod_l+0x102>
 800a74e:	f06f 4b00 	mvn.w	fp, #2147483648	; 0x80000000
 800a752:	f04f 3aff 	mov.w	sl, #4294967295
 800a756:	e7e8      	b.n	800a72a <_strtod_l+0x102>
 800a758:	9b17      	ldr	r3, [sp, #92]	; 0x5c
 800a75a:	1c5a      	adds	r2, r3, #1
 800a75c:	9217      	str	r2, [sp, #92]	; 0x5c
 800a75e:	785b      	ldrb	r3, [r3, #1]
 800a760:	2b30      	cmp	r3, #48	; 0x30
 800a762:	d0f9      	beq.n	800a758 <_strtod_l+0x130>
 800a764:	2b00      	cmp	r3, #0
 800a766:	d0a3      	beq.n	800a6b0 <_strtod_l+0x88>
 800a768:	2301      	movs	r3, #1
 800a76a:	f04f 0900 	mov.w	r9, #0
 800a76e:	9304      	str	r3, [sp, #16]
 800a770:	9b17      	ldr	r3, [sp, #92]	; 0x5c
 800a772:	9308      	str	r3, [sp, #32]
 800a774:	f8cd 901c 	str.w	r9, [sp, #28]
 800a778:	464f      	mov	r7, r9
 800a77a:	220a      	movs	r2, #10
 800a77c:	9817      	ldr	r0, [sp, #92]	; 0x5c
 800a77e:	7806      	ldrb	r6, [r0, #0]
 800a780:	f1a6 0330 	sub.w	r3, r6, #48	; 0x30
 800a784:	b2d9      	uxtb	r1, r3
 800a786:	2909      	cmp	r1, #9
 800a788:	d92a      	bls.n	800a7e0 <_strtod_l+0x1b8>
 800a78a:	9905      	ldr	r1, [sp, #20]
 800a78c:	462a      	mov	r2, r5
 800a78e:	f002 ff0f 	bl	800d5b0 <strncmp>
 800a792:	b398      	cbz	r0, 800a7fc <_strtod_l+0x1d4>
 800a794:	2000      	movs	r0, #0
 800a796:	4632      	mov	r2, r6
 800a798:	463d      	mov	r5, r7
 800a79a:	9005      	str	r0, [sp, #20]
 800a79c:	4603      	mov	r3, r0
 800a79e:	2a65      	cmp	r2, #101	; 0x65
 800a7a0:	d001      	beq.n	800a7a6 <_strtod_l+0x17e>
 800a7a2:	2a45      	cmp	r2, #69	; 0x45
 800a7a4:	d118      	bne.n	800a7d8 <_strtod_l+0x1b0>
 800a7a6:	b91d      	cbnz	r5, 800a7b0 <_strtod_l+0x188>
 800a7a8:	9a04      	ldr	r2, [sp, #16]
 800a7aa:	4302      	orrs	r2, r0
 800a7ac:	d09e      	beq.n	800a6ec <_strtod_l+0xc4>
 800a7ae:	2500      	movs	r5, #0
 800a7b0:	f8dd 805c 	ldr.w	r8, [sp, #92]	; 0x5c
 800a7b4:	f108 0201 	add.w	r2, r8, #1
 800a7b8:	9217      	str	r2, [sp, #92]	; 0x5c
 800a7ba:	f898 2001 	ldrb.w	r2, [r8, #1]
 800a7be:	2a2b      	cmp	r2, #43	; 0x2b
 800a7c0:	d075      	beq.n	800a8ae <_strtod_l+0x286>
 800a7c2:	2a2d      	cmp	r2, #45	; 0x2d
 800a7c4:	d07b      	beq.n	800a8be <_strtod_l+0x296>
 800a7c6:	f04f 0c00 	mov.w	ip, #0
 800a7ca:	f1a2 0130 	sub.w	r1, r2, #48	; 0x30
 800a7ce:	2909      	cmp	r1, #9
 800a7d0:	f240 8082 	bls.w	800a8d8 <_strtod_l+0x2b0>
 800a7d4:	f8cd 805c 	str.w	r8, [sp, #92]	; 0x5c
 800a7d8:	2600      	movs	r6, #0
 800a7da:	e09d      	b.n	800a918 <_strtod_l+0x2f0>
 800a7dc:	2300      	movs	r3, #0
 800a7de:	e7c4      	b.n	800a76a <_strtod_l+0x142>
 800a7e0:	2f08      	cmp	r7, #8
 800a7e2:	bfd8      	it	le
 800a7e4:	9907      	ldrle	r1, [sp, #28]
 800a7e6:	f100 0001 	add.w	r0, r0, #1
 800a7ea:	bfda      	itte	le
 800a7ec:	fb02 3301 	mlale	r3, r2, r1, r3
 800a7f0:	9307      	strle	r3, [sp, #28]
 800a7f2:	fb02 3909 	mlagt	r9, r2, r9, r3
 800a7f6:	3701      	adds	r7, #1
 800a7f8:	9017      	str	r0, [sp, #92]	; 0x5c
 800a7fa:	e7bf      	b.n	800a77c <_strtod_l+0x154>
 800a7fc:	9b17      	ldr	r3, [sp, #92]	; 0x5c
 800a7fe:	195a      	adds	r2, r3, r5
 800a800:	9217      	str	r2, [sp, #92]	; 0x5c
 800a802:	5d5a      	ldrb	r2, [r3, r5]
 800a804:	2f00      	cmp	r7, #0
 800a806:	d037      	beq.n	800a878 <_strtod_l+0x250>
 800a808:	9005      	str	r0, [sp, #20]
 800a80a:	463d      	mov	r5, r7
 800a80c:	f1a2 0330 	sub.w	r3, r2, #48	; 0x30
 800a810:	2b09      	cmp	r3, #9
 800a812:	d912      	bls.n	800a83a <_strtod_l+0x212>
 800a814:	2301      	movs	r3, #1
 800a816:	e7c2      	b.n	800a79e <_strtod_l+0x176>
 800a818:	9b17      	ldr	r3, [sp, #92]	; 0x5c
 800a81a:	1c5a      	adds	r2, r3, #1
 800a81c:	9217      	str	r2, [sp, #92]	; 0x5c
 800a81e:	785a      	ldrb	r2, [r3, #1]
 800a820:	3001      	adds	r0, #1
 800a822:	2a30      	cmp	r2, #48	; 0x30
 800a824:	d0f8      	beq.n	800a818 <_strtod_l+0x1f0>
 800a826:	f1a2 0331 	sub.w	r3, r2, #49	; 0x31
 800a82a:	2b08      	cmp	r3, #8
 800a82c:	f200 84d9 	bhi.w	800b1e2 <_strtod_l+0xbba>
 800a830:	9b17      	ldr	r3, [sp, #92]	; 0x5c
 800a832:	9005      	str	r0, [sp, #20]
 800a834:	2000      	movs	r0, #0
 800a836:	9308      	str	r3, [sp, #32]
 800a838:	4605      	mov	r5, r0
 800a83a:	3a30      	subs	r2, #48	; 0x30
 800a83c:	f100 0301 	add.w	r3, r0, #1
 800a840:	d014      	beq.n	800a86c <_strtod_l+0x244>
 800a842:	9905      	ldr	r1, [sp, #20]
 800a844:	4419      	add	r1, r3
 800a846:	9105      	str	r1, [sp, #20]
 800a848:	462b      	mov	r3, r5
 800a84a:	eb00 0e05 	add.w	lr, r0, r5
 800a84e:	210a      	movs	r1, #10
 800a850:	4573      	cmp	r3, lr
 800a852:	d113      	bne.n	800a87c <_strtod_l+0x254>
 800a854:	182b      	adds	r3, r5, r0
 800a856:	2b08      	cmp	r3, #8
 800a858:	f105 0501 	add.w	r5, r5, #1
 800a85c:	4405      	add	r5, r0
 800a85e:	dc1c      	bgt.n	800a89a <_strtod_l+0x272>
 800a860:	9907      	ldr	r1, [sp, #28]
 800a862:	230a      	movs	r3, #10
 800a864:	fb03 2301 	mla	r3, r3, r1, r2
 800a868:	9307      	str	r3, [sp, #28]
 800a86a:	2300      	movs	r3, #0
 800a86c:	9a17      	ldr	r2, [sp, #92]	; 0x5c
 800a86e:	1c51      	adds	r1, r2, #1
 800a870:	9117      	str	r1, [sp, #92]	; 0x5c
 800a872:	7852      	ldrb	r2, [r2, #1]
 800a874:	4618      	mov	r0, r3
 800a876:	e7c9      	b.n	800a80c <_strtod_l+0x1e4>
 800a878:	4638      	mov	r0, r7
 800a87a:	e7d2      	b.n	800a822 <_strtod_l+0x1fa>
 800a87c:	2b08      	cmp	r3, #8
 800a87e:	dc04      	bgt.n	800a88a <_strtod_l+0x262>
 800a880:	9e07      	ldr	r6, [sp, #28]
 800a882:	434e      	muls	r6, r1
 800a884:	9607      	str	r6, [sp, #28]
 800a886:	3301      	adds	r3, #1
 800a888:	e7e2      	b.n	800a850 <_strtod_l+0x228>
 800a88a:	f103 0c01 	add.w	ip, r3, #1
 800a88e:	f1bc 0f10 	cmp.w	ip, #16
 800a892:	bfd8      	it	le
 800a894:	fb01 f909 	mulle.w	r9, r1, r9
 800a898:	e7f5      	b.n	800a886 <_strtod_l+0x25e>
 800a89a:	2d10      	cmp	r5, #16
 800a89c:	bfdc      	itt	le
 800a89e:	230a      	movle	r3, #10
 800a8a0:	fb03 2909 	mlale	r9, r3, r9, r2
 800a8a4:	e7e1      	b.n	800a86a <_strtod_l+0x242>
 800a8a6:	2300      	movs	r3, #0
 800a8a8:	9305      	str	r3, [sp, #20]
 800a8aa:	2301      	movs	r3, #1
 800a8ac:	e77c      	b.n	800a7a8 <_strtod_l+0x180>
 800a8ae:	f04f 0c00 	mov.w	ip, #0
 800a8b2:	f108 0202 	add.w	r2, r8, #2
 800a8b6:	9217      	str	r2, [sp, #92]	; 0x5c
 800a8b8:	f898 2002 	ldrb.w	r2, [r8, #2]
 800a8bc:	e785      	b.n	800a7ca <_strtod_l+0x1a2>
 800a8be:	f04f 0c01 	mov.w	ip, #1
 800a8c2:	e7f6      	b.n	800a8b2 <_strtod_l+0x28a>
 800a8c4:	0800ef98 	.word	0x0800ef98
 800a8c8:	0800ed50 	.word	0x0800ed50
 800a8cc:	7ff00000 	.word	0x7ff00000
 800a8d0:	9a17      	ldr	r2, [sp, #92]	; 0x5c
 800a8d2:	1c51      	adds	r1, r2, #1
 800a8d4:	9117      	str	r1, [sp, #92]	; 0x5c
 800a8d6:	7852      	ldrb	r2, [r2, #1]
 800a8d8:	2a30      	cmp	r2, #48	; 0x30
 800a8da:	d0f9      	beq.n	800a8d0 <_strtod_l+0x2a8>
 800a8dc:	f1a2 0131 	sub.w	r1, r2, #49	; 0x31
 800a8e0:	2908      	cmp	r1, #8
 800a8e2:	f63f af79 	bhi.w	800a7d8 <_strtod_l+0x1b0>
 800a8e6:	f1a2 0e30 	sub.w	lr, r2, #48	; 0x30
 800a8ea:	9a17      	ldr	r2, [sp, #92]	; 0x5c
 800a8ec:	9206      	str	r2, [sp, #24]
 800a8ee:	9a17      	ldr	r2, [sp, #92]	; 0x5c
 800a8f0:	1c51      	adds	r1, r2, #1
 800a8f2:	9117      	str	r1, [sp, #92]	; 0x5c
 800a8f4:	7852      	ldrb	r2, [r2, #1]
 800a8f6:	f1a2 0630 	sub.w	r6, r2, #48	; 0x30
 800a8fa:	2e09      	cmp	r6, #9
 800a8fc:	d937      	bls.n	800a96e <_strtod_l+0x346>
 800a8fe:	9e06      	ldr	r6, [sp, #24]
 800a900:	1b89      	subs	r1, r1, r6
 800a902:	2908      	cmp	r1, #8
 800a904:	f644 661f 	movw	r6, #19999	; 0x4e1f
 800a908:	dc02      	bgt.n	800a910 <_strtod_l+0x2e8>
 800a90a:	4576      	cmp	r6, lr
 800a90c:	bfa8      	it	ge
 800a90e:	4676      	movge	r6, lr
 800a910:	f1bc 0f00 	cmp.w	ip, #0
 800a914:	d000      	beq.n	800a918 <_strtod_l+0x2f0>
 800a916:	4276      	negs	r6, r6
 800a918:	2d00      	cmp	r5, #0
 800a91a:	d14d      	bne.n	800a9b8 <_strtod_l+0x390>
 800a91c:	9904      	ldr	r1, [sp, #16]
 800a91e:	4301      	orrs	r1, r0
 800a920:	f47f aec6 	bne.w	800a6b0 <_strtod_l+0x88>
 800a924:	2b00      	cmp	r3, #0
 800a926:	f47f aee1 	bne.w	800a6ec <_strtod_l+0xc4>
 800a92a:	2a69      	cmp	r2, #105	; 0x69
 800a92c:	d027      	beq.n	800a97e <_strtod_l+0x356>
 800a92e:	dc24      	bgt.n	800a97a <_strtod_l+0x352>
 800a930:	2a49      	cmp	r2, #73	; 0x49
 800a932:	d024      	beq.n	800a97e <_strtod_l+0x356>
 800a934:	2a4e      	cmp	r2, #78	; 0x4e
 800a936:	f47f aed9 	bne.w	800a6ec <_strtod_l+0xc4>
 800a93a:	499f      	ldr	r1, [pc, #636]	; (800abb8 <_strtod_l+0x590>)
 800a93c:	a817      	add	r0, sp, #92	; 0x5c
 800a93e:	f001 fe3d 	bl	800c5bc <__match>
 800a942:	2800      	cmp	r0, #0
 800a944:	f43f aed2 	beq.w	800a6ec <_strtod_l+0xc4>
 800a948:	9b17      	ldr	r3, [sp, #92]	; 0x5c
 800a94a:	781b      	ldrb	r3, [r3, #0]
 800a94c:	2b28      	cmp	r3, #40	; 0x28
 800a94e:	d12d      	bne.n	800a9ac <_strtod_l+0x384>
 800a950:	499a      	ldr	r1, [pc, #616]	; (800abbc <_strtod_l+0x594>)
 800a952:	aa1a      	add	r2, sp, #104	; 0x68
 800a954:	a817      	add	r0, sp, #92	; 0x5c
 800a956:	f001 fe45 	bl	800c5e4 <__hexnan>
 800a95a:	2805      	cmp	r0, #5
 800a95c:	d126      	bne.n	800a9ac <_strtod_l+0x384>
 800a95e:	9b1b      	ldr	r3, [sp, #108]	; 0x6c
 800a960:	f8dd a068 	ldr.w	sl, [sp, #104]	; 0x68
 800a964:	f043 4bff 	orr.w	fp, r3, #2139095040	; 0x7f800000
 800a968:	f44b 0be0 	orr.w	fp, fp, #7340032	; 0x700000
 800a96c:	e6a0      	b.n	800a6b0 <_strtod_l+0x88>
 800a96e:	210a      	movs	r1, #10
 800a970:	fb01 2e0e 	mla	lr, r1, lr, r2
 800a974:	f1ae 0e30 	sub.w	lr, lr, #48	; 0x30
 800a978:	e7b9      	b.n	800a8ee <_strtod_l+0x2c6>
 800a97a:	2a6e      	cmp	r2, #110	; 0x6e
 800a97c:	e7db      	b.n	800a936 <_strtod_l+0x30e>
 800a97e:	4990      	ldr	r1, [pc, #576]	; (800abc0 <_strtod_l+0x598>)
 800a980:	a817      	add	r0, sp, #92	; 0x5c
 800a982:	f001 fe1b 	bl	800c5bc <__match>
 800a986:	2800      	cmp	r0, #0
 800a988:	f43f aeb0 	beq.w	800a6ec <_strtod_l+0xc4>
 800a98c:	9b17      	ldr	r3, [sp, #92]	; 0x5c
 800a98e:	498d      	ldr	r1, [pc, #564]	; (800abc4 <_strtod_l+0x59c>)
 800a990:	3b01      	subs	r3, #1
 800a992:	a817      	add	r0, sp, #92	; 0x5c
 800a994:	9317      	str	r3, [sp, #92]	; 0x5c
 800a996:	f001 fe11 	bl	800c5bc <__match>
 800a99a:	b910      	cbnz	r0, 800a9a2 <_strtod_l+0x37a>
 800a99c:	9b17      	ldr	r3, [sp, #92]	; 0x5c
 800a99e:	3301      	adds	r3, #1
 800a9a0:	9317      	str	r3, [sp, #92]	; 0x5c
 800a9a2:	f8df b230 	ldr.w	fp, [pc, #560]	; 800abd4 <_strtod_l+0x5ac>
 800a9a6:	f04f 0a00 	mov.w	sl, #0
 800a9aa:	e681      	b.n	800a6b0 <_strtod_l+0x88>
 800a9ac:	4886      	ldr	r0, [pc, #536]	; (800abc8 <_strtod_l+0x5a0>)
 800a9ae:	f002 fde7 	bl	800d580 <nan>
 800a9b2:	ec5b ab10 	vmov	sl, fp, d0
 800a9b6:	e67b      	b.n	800a6b0 <_strtod_l+0x88>
 800a9b8:	9b05      	ldr	r3, [sp, #20]
 800a9ba:	9807      	ldr	r0, [sp, #28]
 800a9bc:	1af3      	subs	r3, r6, r3
 800a9be:	2f00      	cmp	r7, #0
 800a9c0:	bf08      	it	eq
 800a9c2:	462f      	moveq	r7, r5
 800a9c4:	2d10      	cmp	r5, #16
 800a9c6:	9306      	str	r3, [sp, #24]
 800a9c8:	46a8      	mov	r8, r5
 800a9ca:	bfa8      	it	ge
 800a9cc:	f04f 0810 	movge.w	r8, #16
 800a9d0:	f7f5 fd98 	bl	8000504 <__aeabi_ui2d>
 800a9d4:	2d09      	cmp	r5, #9
 800a9d6:	4682      	mov	sl, r0
 800a9d8:	468b      	mov	fp, r1
 800a9da:	dd13      	ble.n	800aa04 <_strtod_l+0x3dc>
 800a9dc:	4b7b      	ldr	r3, [pc, #492]	; (800abcc <_strtod_l+0x5a4>)
 800a9de:	eb03 03c8 	add.w	r3, r3, r8, lsl #3
 800a9e2:	e953 2312 	ldrd	r2, r3, [r3, #-72]	; 0x48
 800a9e6:	f7f5 fe07 	bl	80005f8 <__aeabi_dmul>
 800a9ea:	4682      	mov	sl, r0
 800a9ec:	4648      	mov	r0, r9
 800a9ee:	468b      	mov	fp, r1
 800a9f0:	f7f5 fd88 	bl	8000504 <__aeabi_ui2d>
 800a9f4:	4602      	mov	r2, r0
 800a9f6:	460b      	mov	r3, r1
 800a9f8:	4650      	mov	r0, sl
 800a9fa:	4659      	mov	r1, fp
 800a9fc:	f7f5 fc46 	bl	800028c <__adddf3>
 800aa00:	4682      	mov	sl, r0
 800aa02:	468b      	mov	fp, r1
 800aa04:	2d0f      	cmp	r5, #15
 800aa06:	dc38      	bgt.n	800aa7a <_strtod_l+0x452>
 800aa08:	9b06      	ldr	r3, [sp, #24]
 800aa0a:	2b00      	cmp	r3, #0
 800aa0c:	f43f ae50 	beq.w	800a6b0 <_strtod_l+0x88>
 800aa10:	dd24      	ble.n	800aa5c <_strtod_l+0x434>
 800aa12:	2b16      	cmp	r3, #22
 800aa14:	dc0b      	bgt.n	800aa2e <_strtod_l+0x406>
 800aa16:	496d      	ldr	r1, [pc, #436]	; (800abcc <_strtod_l+0x5a4>)
 800aa18:	eb01 01c3 	add.w	r1, r1, r3, lsl #3
 800aa1c:	e9d1 0100 	ldrd	r0, r1, [r1]
 800aa20:	4652      	mov	r2, sl
 800aa22:	465b      	mov	r3, fp
 800aa24:	f7f5 fde8 	bl	80005f8 <__aeabi_dmul>
 800aa28:	4682      	mov	sl, r0
 800aa2a:	468b      	mov	fp, r1
 800aa2c:	e640      	b.n	800a6b0 <_strtod_l+0x88>
 800aa2e:	9a06      	ldr	r2, [sp, #24]
 800aa30:	f1c5 0325 	rsb	r3, r5, #37	; 0x25
 800aa34:	4293      	cmp	r3, r2
 800aa36:	db20      	blt.n	800aa7a <_strtod_l+0x452>
 800aa38:	4c64      	ldr	r4, [pc, #400]	; (800abcc <_strtod_l+0x5a4>)
 800aa3a:	f1c5 050f 	rsb	r5, r5, #15
 800aa3e:	eb04 01c5 	add.w	r1, r4, r5, lsl #3
 800aa42:	4652      	mov	r2, sl
 800aa44:	465b      	mov	r3, fp
 800aa46:	e9d1 0100 	ldrd	r0, r1, [r1]
 800aa4a:	f7f5 fdd5 	bl	80005f8 <__aeabi_dmul>
 800aa4e:	9b06      	ldr	r3, [sp, #24]
 800aa50:	1b5d      	subs	r5, r3, r5
 800aa52:	eb04 04c5 	add.w	r4, r4, r5, lsl #3
 800aa56:	e9d4 2300 	ldrd	r2, r3, [r4]
 800aa5a:	e7e3      	b.n	800aa24 <_strtod_l+0x3fc>
 800aa5c:	9b06      	ldr	r3, [sp, #24]
 800aa5e:	3316      	adds	r3, #22
 800aa60:	db0b      	blt.n	800aa7a <_strtod_l+0x452>
 800aa62:	9b05      	ldr	r3, [sp, #20]
 800aa64:	1b9e      	subs	r6, r3, r6
 800aa66:	4b59      	ldr	r3, [pc, #356]	; (800abcc <_strtod_l+0x5a4>)
 800aa68:	eb03 06c6 	add.w	r6, r3, r6, lsl #3
 800aa6c:	e9d6 2300 	ldrd	r2, r3, [r6]
 800aa70:	4650      	mov	r0, sl
 800aa72:	4659      	mov	r1, fp
 800aa74:	f7f5 feea 	bl	800084c <__aeabi_ddiv>
 800aa78:	e7d6      	b.n	800aa28 <_strtod_l+0x400>
 800aa7a:	9b06      	ldr	r3, [sp, #24]
 800aa7c:	eba5 0808 	sub.w	r8, r5, r8
 800aa80:	4498      	add	r8, r3
 800aa82:	f1b8 0f00 	cmp.w	r8, #0
 800aa86:	dd74      	ble.n	800ab72 <_strtod_l+0x54a>
 800aa88:	f018 030f 	ands.w	r3, r8, #15
 800aa8c:	d00a      	beq.n	800aaa4 <_strtod_l+0x47c>
 800aa8e:	494f      	ldr	r1, [pc, #316]	; (800abcc <_strtod_l+0x5a4>)
 800aa90:	eb01 01c3 	add.w	r1, r1, r3, lsl #3
 800aa94:	4652      	mov	r2, sl
 800aa96:	465b      	mov	r3, fp
 800aa98:	e9d1 0100 	ldrd	r0, r1, [r1]
 800aa9c:	f7f5 fdac 	bl	80005f8 <__aeabi_dmul>
 800aaa0:	4682      	mov	sl, r0
 800aaa2:	468b      	mov	fp, r1
 800aaa4:	f038 080f 	bics.w	r8, r8, #15
 800aaa8:	d04f      	beq.n	800ab4a <_strtod_l+0x522>
 800aaaa:	f5b8 7f9a 	cmp.w	r8, #308	; 0x134
 800aaae:	dd22      	ble.n	800aaf6 <_strtod_l+0x4ce>
 800aab0:	2500      	movs	r5, #0
 800aab2:	462e      	mov	r6, r5
 800aab4:	9507      	str	r5, [sp, #28]
 800aab6:	9505      	str	r5, [sp, #20]
 800aab8:	2322      	movs	r3, #34	; 0x22
 800aaba:	f8df b118 	ldr.w	fp, [pc, #280]	; 800abd4 <_strtod_l+0x5ac>
 800aabe:	6023      	str	r3, [r4, #0]
 800aac0:	f04f 0a00 	mov.w	sl, #0
 800aac4:	9b07      	ldr	r3, [sp, #28]
 800aac6:	2b00      	cmp	r3, #0
 800aac8:	f43f adf2 	beq.w	800a6b0 <_strtod_l+0x88>
 800aacc:	9918      	ldr	r1, [sp, #96]	; 0x60
 800aace:	4620      	mov	r0, r4
 800aad0:	f001 fe82 	bl	800c7d8 <_Bfree>
 800aad4:	9905      	ldr	r1, [sp, #20]
 800aad6:	4620      	mov	r0, r4
 800aad8:	f001 fe7e 	bl	800c7d8 <_Bfree>
 800aadc:	4631      	mov	r1, r6
 800aade:	4620      	mov	r0, r4
 800aae0:	f001 fe7a 	bl	800c7d8 <_Bfree>
 800aae4:	9907      	ldr	r1, [sp, #28]
 800aae6:	4620      	mov	r0, r4
 800aae8:	f001 fe76 	bl	800c7d8 <_Bfree>
 800aaec:	4629      	mov	r1, r5
 800aaee:	4620      	mov	r0, r4
 800aaf0:	f001 fe72 	bl	800c7d8 <_Bfree>
 800aaf4:	e5dc      	b.n	800a6b0 <_strtod_l+0x88>
 800aaf6:	4b36      	ldr	r3, [pc, #216]	; (800abd0 <_strtod_l+0x5a8>)
 800aaf8:	9304      	str	r3, [sp, #16]
 800aafa:	2300      	movs	r3, #0
 800aafc:	ea4f 1828 	mov.w	r8, r8, asr #4
 800ab00:	4650      	mov	r0, sl
 800ab02:	4659      	mov	r1, fp
 800ab04:	4699      	mov	r9, r3
 800ab06:	f1b8 0f01 	cmp.w	r8, #1
 800ab0a:	dc21      	bgt.n	800ab50 <_strtod_l+0x528>
 800ab0c:	b10b      	cbz	r3, 800ab12 <_strtod_l+0x4ea>
 800ab0e:	4682      	mov	sl, r0
 800ab10:	468b      	mov	fp, r1
 800ab12:	4b2f      	ldr	r3, [pc, #188]	; (800abd0 <_strtod_l+0x5a8>)
 800ab14:	f1ab 7b54 	sub.w	fp, fp, #55574528	; 0x3500000
 800ab18:	eb03 09c9 	add.w	r9, r3, r9, lsl #3
 800ab1c:	4652      	mov	r2, sl
 800ab1e:	465b      	mov	r3, fp
 800ab20:	e9d9 0100 	ldrd	r0, r1, [r9]
 800ab24:	f7f5 fd68 	bl	80005f8 <__aeabi_dmul>
 800ab28:	4b2a      	ldr	r3, [pc, #168]	; (800abd4 <_strtod_l+0x5ac>)
 800ab2a:	460a      	mov	r2, r1
 800ab2c:	400b      	ands	r3, r1
 800ab2e:	492a      	ldr	r1, [pc, #168]	; (800abd8 <_strtod_l+0x5b0>)
 800ab30:	428b      	cmp	r3, r1
 800ab32:	4682      	mov	sl, r0
 800ab34:	d8bc      	bhi.n	800aab0 <_strtod_l+0x488>
 800ab36:	f5a1 1180 	sub.w	r1, r1, #1048576	; 0x100000
 800ab3a:	428b      	cmp	r3, r1
 800ab3c:	bf86      	itte	hi
 800ab3e:	f8df b09c 	ldrhi.w	fp, [pc, #156]	; 800abdc <_strtod_l+0x5b4>
 800ab42:	f04f 3aff 	movhi.w	sl, #4294967295
 800ab46:	f102 7b54 	addls.w	fp, r2, #55574528	; 0x3500000
 800ab4a:	2300      	movs	r3, #0
 800ab4c:	9304      	str	r3, [sp, #16]
 800ab4e:	e084      	b.n	800ac5a <_strtod_l+0x632>
 800ab50:	f018 0f01 	tst.w	r8, #1
 800ab54:	d005      	beq.n	800ab62 <_strtod_l+0x53a>
 800ab56:	9b04      	ldr	r3, [sp, #16]
 800ab58:	e9d3 2300 	ldrd	r2, r3, [r3]
 800ab5c:	f7f5 fd4c 	bl	80005f8 <__aeabi_dmul>
 800ab60:	2301      	movs	r3, #1
 800ab62:	9a04      	ldr	r2, [sp, #16]
 800ab64:	3208      	adds	r2, #8
 800ab66:	f109 0901 	add.w	r9, r9, #1
 800ab6a:	ea4f 0868 	mov.w	r8, r8, asr #1
 800ab6e:	9204      	str	r2, [sp, #16]
 800ab70:	e7c9      	b.n	800ab06 <_strtod_l+0x4de>
 800ab72:	d0ea      	beq.n	800ab4a <_strtod_l+0x522>
 800ab74:	f1c8 0800 	rsb	r8, r8, #0
 800ab78:	f018 020f 	ands.w	r2, r8, #15
 800ab7c:	d00a      	beq.n	800ab94 <_strtod_l+0x56c>
 800ab7e:	4b13      	ldr	r3, [pc, #76]	; (800abcc <_strtod_l+0x5a4>)
 800ab80:	eb03 03c2 	add.w	r3, r3, r2, lsl #3
 800ab84:	4650      	mov	r0, sl
 800ab86:	4659      	mov	r1, fp
 800ab88:	e9d3 2300 	ldrd	r2, r3, [r3]
 800ab8c:	f7f5 fe5e 	bl	800084c <__aeabi_ddiv>
 800ab90:	4682      	mov	sl, r0
 800ab92:	468b      	mov	fp, r1
 800ab94:	ea5f 1828 	movs.w	r8, r8, asr #4
 800ab98:	d0d7      	beq.n	800ab4a <_strtod_l+0x522>
 800ab9a:	f1b8 0f1f 	cmp.w	r8, #31
 800ab9e:	dd1f      	ble.n	800abe0 <_strtod_l+0x5b8>
 800aba0:	2500      	movs	r5, #0
 800aba2:	462e      	mov	r6, r5
 800aba4:	9507      	str	r5, [sp, #28]
 800aba6:	9505      	str	r5, [sp, #20]
 800aba8:	2322      	movs	r3, #34	; 0x22
 800abaa:	f04f 0a00 	mov.w	sl, #0
 800abae:	f04f 0b00 	mov.w	fp, #0
 800abb2:	6023      	str	r3, [r4, #0]
 800abb4:	e786      	b.n	800aac4 <_strtod_l+0x49c>
 800abb6:	bf00      	nop
 800abb8:	0800ed21 	.word	0x0800ed21
 800abbc:	0800ed64 	.word	0x0800ed64
 800abc0:	0800ed19 	.word	0x0800ed19
 800abc4:	0800eea4 	.word	0x0800eea4
 800abc8:	0800f150 	.word	0x0800f150
 800abcc:	0800f030 	.word	0x0800f030
 800abd0:	0800f008 	.word	0x0800f008
 800abd4:	7ff00000 	.word	0x7ff00000
 800abd8:	7ca00000 	.word	0x7ca00000
 800abdc:	7fefffff 	.word	0x7fefffff
 800abe0:	f018 0310 	ands.w	r3, r8, #16
 800abe4:	bf18      	it	ne
 800abe6:	236a      	movne	r3, #106	; 0x6a
 800abe8:	f8df 93ac 	ldr.w	r9, [pc, #940]	; 800af98 <_strtod_l+0x970>
 800abec:	9304      	str	r3, [sp, #16]
 800abee:	4650      	mov	r0, sl
 800abf0:	4659      	mov	r1, fp
 800abf2:	2300      	movs	r3, #0
 800abf4:	f018 0f01 	tst.w	r8, #1
 800abf8:	d004      	beq.n	800ac04 <_strtod_l+0x5dc>
 800abfa:	e9d9 2300 	ldrd	r2, r3, [r9]
 800abfe:	f7f5 fcfb 	bl	80005f8 <__aeabi_dmul>
 800ac02:	2301      	movs	r3, #1
 800ac04:	ea5f 0868 	movs.w	r8, r8, asr #1
 800ac08:	f109 0908 	add.w	r9, r9, #8
 800ac0c:	d1f2      	bne.n	800abf4 <_strtod_l+0x5cc>
 800ac0e:	b10b      	cbz	r3, 800ac14 <_strtod_l+0x5ec>
 800ac10:	4682      	mov	sl, r0
 800ac12:	468b      	mov	fp, r1
 800ac14:	9b04      	ldr	r3, [sp, #16]
 800ac16:	b1c3      	cbz	r3, 800ac4a <_strtod_l+0x622>
 800ac18:	f3cb 520a 	ubfx	r2, fp, #20, #11
 800ac1c:	f1c2 036b 	rsb	r3, r2, #107	; 0x6b
 800ac20:	2b00      	cmp	r3, #0
 800ac22:	4659      	mov	r1, fp
 800ac24:	dd11      	ble.n	800ac4a <_strtod_l+0x622>
 800ac26:	2b1f      	cmp	r3, #31
 800ac28:	f340 8124 	ble.w	800ae74 <_strtod_l+0x84c>
 800ac2c:	2b34      	cmp	r3, #52	; 0x34
 800ac2e:	bfde      	ittt	le
 800ac30:	f1c2 024b 	rsble	r2, r2, #75	; 0x4b
 800ac34:	f04f 33ff 	movle.w	r3, #4294967295
 800ac38:	fa03 f202 	lslle.w	r2, r3, r2
 800ac3c:	f04f 0a00 	mov.w	sl, #0
 800ac40:	bfcc      	ite	gt
 800ac42:	f04f 7b5c 	movgt.w	fp, #57671680	; 0x3700000
 800ac46:	ea02 0b01 	andle.w	fp, r2, r1
 800ac4a:	2200      	movs	r2, #0
 800ac4c:	2300      	movs	r3, #0
 800ac4e:	4650      	mov	r0, sl
 800ac50:	4659      	mov	r1, fp
 800ac52:	f7f5 ff39 	bl	8000ac8 <__aeabi_dcmpeq>
 800ac56:	2800      	cmp	r0, #0
 800ac58:	d1a2      	bne.n	800aba0 <_strtod_l+0x578>
 800ac5a:	9b07      	ldr	r3, [sp, #28]
 800ac5c:	9300      	str	r3, [sp, #0]
 800ac5e:	9908      	ldr	r1, [sp, #32]
 800ac60:	462b      	mov	r3, r5
 800ac62:	463a      	mov	r2, r7
 800ac64:	4620      	mov	r0, r4
 800ac66:	f001 fe1f 	bl	800c8a8 <__s2b>
 800ac6a:	9007      	str	r0, [sp, #28]
 800ac6c:	2800      	cmp	r0, #0
 800ac6e:	f43f af1f 	beq.w	800aab0 <_strtod_l+0x488>
 800ac72:	9b05      	ldr	r3, [sp, #20]
 800ac74:	1b9e      	subs	r6, r3, r6
 800ac76:	9b06      	ldr	r3, [sp, #24]
 800ac78:	2b00      	cmp	r3, #0
 800ac7a:	bfb4      	ite	lt
 800ac7c:	4633      	movlt	r3, r6
 800ac7e:	2300      	movge	r3, #0
 800ac80:	930c      	str	r3, [sp, #48]	; 0x30
 800ac82:	9b06      	ldr	r3, [sp, #24]
 800ac84:	2500      	movs	r5, #0
 800ac86:	ea23 73e3 	bic.w	r3, r3, r3, asr #31
 800ac8a:	9312      	str	r3, [sp, #72]	; 0x48
 800ac8c:	462e      	mov	r6, r5
 800ac8e:	9b07      	ldr	r3, [sp, #28]
 800ac90:	4620      	mov	r0, r4
 800ac92:	6859      	ldr	r1, [r3, #4]
 800ac94:	f001 fd60 	bl	800c758 <_Balloc>
 800ac98:	9005      	str	r0, [sp, #20]
 800ac9a:	2800      	cmp	r0, #0
 800ac9c:	f43f af0c 	beq.w	800aab8 <_strtod_l+0x490>
 800aca0:	9b07      	ldr	r3, [sp, #28]
 800aca2:	691a      	ldr	r2, [r3, #16]
 800aca4:	3202      	adds	r2, #2
 800aca6:	f103 010c 	add.w	r1, r3, #12
 800acaa:	0092      	lsls	r2, r2, #2
 800acac:	300c      	adds	r0, #12
 800acae:	f7fe fde9 	bl	8009884 <memcpy>
 800acb2:	ec4b ab10 	vmov	d0, sl, fp
 800acb6:	aa1a      	add	r2, sp, #104	; 0x68
 800acb8:	a919      	add	r1, sp, #100	; 0x64
 800acba:	4620      	mov	r0, r4
 800acbc:	f002 f93a 	bl	800cf34 <__d2b>
 800acc0:	ec4b ab18 	vmov	d8, sl, fp
 800acc4:	9018      	str	r0, [sp, #96]	; 0x60
 800acc6:	2800      	cmp	r0, #0
 800acc8:	f43f aef6 	beq.w	800aab8 <_strtod_l+0x490>
 800accc:	2101      	movs	r1, #1
 800acce:	4620      	mov	r0, r4
 800acd0:	f001 fe84 	bl	800c9dc <__i2b>
 800acd4:	4606      	mov	r6, r0
 800acd6:	2800      	cmp	r0, #0
 800acd8:	f43f aeee 	beq.w	800aab8 <_strtod_l+0x490>
 800acdc:	9b19      	ldr	r3, [sp, #100]	; 0x64
 800acde:	9904      	ldr	r1, [sp, #16]
 800ace0:	2b00      	cmp	r3, #0
 800ace2:	bfab      	itete	ge
 800ace4:	9a0c      	ldrge	r2, [sp, #48]	; 0x30
 800ace6:	9a12      	ldrlt	r2, [sp, #72]	; 0x48
 800ace8:	9f12      	ldrge	r7, [sp, #72]	; 0x48
 800acea:	f8dd 9030 	ldrlt.w	r9, [sp, #48]	; 0x30
 800acee:	bfac      	ite	ge
 800acf0:	eb03 0902 	addge.w	r9, r3, r2
 800acf4:	1ad7      	sublt	r7, r2, r3
 800acf6:	9a1a      	ldr	r2, [sp, #104]	; 0x68
 800acf8:	eba3 0801 	sub.w	r8, r3, r1
 800acfc:	4490      	add	r8, r2
 800acfe:	4ba1      	ldr	r3, [pc, #644]	; (800af84 <_strtod_l+0x95c>)
 800ad00:	f108 38ff 	add.w	r8, r8, #4294967295
 800ad04:	4598      	cmp	r8, r3
 800ad06:	f1c2 0236 	rsb	r2, r2, #54	; 0x36
 800ad0a:	f280 80c7 	bge.w	800ae9c <_strtod_l+0x874>
 800ad0e:	eba3 0308 	sub.w	r3, r3, r8
 800ad12:	2b1f      	cmp	r3, #31
 800ad14:	eba2 0203 	sub.w	r2, r2, r3
 800ad18:	f04f 0101 	mov.w	r1, #1
 800ad1c:	f300 80b1 	bgt.w	800ae82 <_strtod_l+0x85a>
 800ad20:	fa01 f303 	lsl.w	r3, r1, r3
 800ad24:	930d      	str	r3, [sp, #52]	; 0x34
 800ad26:	2300      	movs	r3, #0
 800ad28:	9308      	str	r3, [sp, #32]
 800ad2a:	eb09 0802 	add.w	r8, r9, r2
 800ad2e:	9b04      	ldr	r3, [sp, #16]
 800ad30:	45c1      	cmp	r9, r8
 800ad32:	4417      	add	r7, r2
 800ad34:	441f      	add	r7, r3
 800ad36:	464b      	mov	r3, r9
 800ad38:	bfa8      	it	ge
 800ad3a:	4643      	movge	r3, r8
 800ad3c:	42bb      	cmp	r3, r7
 800ad3e:	bfa8      	it	ge
 800ad40:	463b      	movge	r3, r7
 800ad42:	2b00      	cmp	r3, #0
 800ad44:	bfc2      	ittt	gt
 800ad46:	eba8 0803 	subgt.w	r8, r8, r3
 800ad4a:	1aff      	subgt	r7, r7, r3
 800ad4c:	eba9 0903 	subgt.w	r9, r9, r3
 800ad50:	9b0c      	ldr	r3, [sp, #48]	; 0x30
 800ad52:	2b00      	cmp	r3, #0
 800ad54:	dd17      	ble.n	800ad86 <_strtod_l+0x75e>
 800ad56:	4631      	mov	r1, r6
 800ad58:	461a      	mov	r2, r3
 800ad5a:	4620      	mov	r0, r4
 800ad5c:	f001 fefe 	bl	800cb5c <__pow5mult>
 800ad60:	4606      	mov	r6, r0
 800ad62:	2800      	cmp	r0, #0
 800ad64:	f43f aea8 	beq.w	800aab8 <_strtod_l+0x490>
 800ad68:	4601      	mov	r1, r0
 800ad6a:	9a18      	ldr	r2, [sp, #96]	; 0x60
 800ad6c:	4620      	mov	r0, r4
 800ad6e:	f001 fe4b 	bl	800ca08 <__multiply>
 800ad72:	900b      	str	r0, [sp, #44]	; 0x2c
 800ad74:	2800      	cmp	r0, #0
 800ad76:	f43f ae9f 	beq.w	800aab8 <_strtod_l+0x490>
 800ad7a:	9918      	ldr	r1, [sp, #96]	; 0x60
 800ad7c:	4620      	mov	r0, r4
 800ad7e:	f001 fd2b 	bl	800c7d8 <_Bfree>
 800ad82:	9b0b      	ldr	r3, [sp, #44]	; 0x2c
 800ad84:	9318      	str	r3, [sp, #96]	; 0x60
 800ad86:	f1b8 0f00 	cmp.w	r8, #0
 800ad8a:	f300 808c 	bgt.w	800aea6 <_strtod_l+0x87e>
 800ad8e:	9b06      	ldr	r3, [sp, #24]
 800ad90:	2b00      	cmp	r3, #0
 800ad92:	dd08      	ble.n	800ada6 <_strtod_l+0x77e>
 800ad94:	9a12      	ldr	r2, [sp, #72]	; 0x48
 800ad96:	9905      	ldr	r1, [sp, #20]
 800ad98:	4620      	mov	r0, r4
 800ad9a:	f001 fedf 	bl	800cb5c <__pow5mult>
 800ad9e:	9005      	str	r0, [sp, #20]
 800ada0:	2800      	cmp	r0, #0
 800ada2:	f43f ae89 	beq.w	800aab8 <_strtod_l+0x490>
 800ada6:	2f00      	cmp	r7, #0
 800ada8:	dd08      	ble.n	800adbc <_strtod_l+0x794>
 800adaa:	9905      	ldr	r1, [sp, #20]
 800adac:	463a      	mov	r2, r7
 800adae:	4620      	mov	r0, r4
 800adb0:	f001 ff2e 	bl	800cc10 <__lshift>
 800adb4:	9005      	str	r0, [sp, #20]
 800adb6:	2800      	cmp	r0, #0
 800adb8:	f43f ae7e 	beq.w	800aab8 <_strtod_l+0x490>
 800adbc:	f1b9 0f00 	cmp.w	r9, #0
 800adc0:	dd08      	ble.n	800add4 <_strtod_l+0x7ac>
 800adc2:	4631      	mov	r1, r6
 800adc4:	464a      	mov	r2, r9
 800adc6:	4620      	mov	r0, r4
 800adc8:	f001 ff22 	bl	800cc10 <__lshift>
 800adcc:	4606      	mov	r6, r0
 800adce:	2800      	cmp	r0, #0
 800add0:	f43f ae72 	beq.w	800aab8 <_strtod_l+0x490>
 800add4:	9a05      	ldr	r2, [sp, #20]
 800add6:	9918      	ldr	r1, [sp, #96]	; 0x60
 800add8:	4620      	mov	r0, r4
 800adda:	f001 ffa5 	bl	800cd28 <__mdiff>
 800adde:	4605      	mov	r5, r0
 800ade0:	2800      	cmp	r0, #0
 800ade2:	f43f ae69 	beq.w	800aab8 <_strtod_l+0x490>
 800ade6:	68c3      	ldr	r3, [r0, #12]
 800ade8:	930b      	str	r3, [sp, #44]	; 0x2c
 800adea:	2300      	movs	r3, #0
 800adec:	60c3      	str	r3, [r0, #12]
 800adee:	4631      	mov	r1, r6
 800adf0:	f001 ff7e 	bl	800ccf0 <__mcmp>
 800adf4:	2800      	cmp	r0, #0
 800adf6:	da60      	bge.n	800aeba <_strtod_l+0x892>
 800adf8:	9b0b      	ldr	r3, [sp, #44]	; 0x2c
 800adfa:	ea53 030a 	orrs.w	r3, r3, sl
 800adfe:	f040 8082 	bne.w	800af06 <_strtod_l+0x8de>
 800ae02:	f3cb 0313 	ubfx	r3, fp, #0, #20
 800ae06:	2b00      	cmp	r3, #0
 800ae08:	d17d      	bne.n	800af06 <_strtod_l+0x8de>
 800ae0a:	f02b 4300 	bic.w	r3, fp, #2147483648	; 0x80000000
 800ae0e:	0d1b      	lsrs	r3, r3, #20
 800ae10:	051b      	lsls	r3, r3, #20
 800ae12:	f1b3 6fd6 	cmp.w	r3, #112197632	; 0x6b00000
 800ae16:	d976      	bls.n	800af06 <_strtod_l+0x8de>
 800ae18:	696b      	ldr	r3, [r5, #20]
 800ae1a:	b913      	cbnz	r3, 800ae22 <_strtod_l+0x7fa>
 800ae1c:	692b      	ldr	r3, [r5, #16]
 800ae1e:	2b01      	cmp	r3, #1
 800ae20:	dd71      	ble.n	800af06 <_strtod_l+0x8de>
 800ae22:	4629      	mov	r1, r5
 800ae24:	2201      	movs	r2, #1
 800ae26:	4620      	mov	r0, r4
 800ae28:	f001 fef2 	bl	800cc10 <__lshift>
 800ae2c:	4631      	mov	r1, r6
 800ae2e:	4605      	mov	r5, r0
 800ae30:	f001 ff5e 	bl	800ccf0 <__mcmp>
 800ae34:	2800      	cmp	r0, #0
 800ae36:	dd66      	ble.n	800af06 <_strtod_l+0x8de>
 800ae38:	9904      	ldr	r1, [sp, #16]
 800ae3a:	4a53      	ldr	r2, [pc, #332]	; (800af88 <_strtod_l+0x960>)
 800ae3c:	465b      	mov	r3, fp
 800ae3e:	2900      	cmp	r1, #0
 800ae40:	f000 8081 	beq.w	800af46 <_strtod_l+0x91e>
 800ae44:	ea02 010b 	and.w	r1, r2, fp
 800ae48:	f1b1 6fd6 	cmp.w	r1, #112197632	; 0x6b00000
 800ae4c:	dc7b      	bgt.n	800af46 <_strtod_l+0x91e>
 800ae4e:	f1b1 7f5c 	cmp.w	r1, #57671680	; 0x3700000
 800ae52:	f77f aea9 	ble.w	800aba8 <_strtod_l+0x580>
 800ae56:	4b4d      	ldr	r3, [pc, #308]	; (800af8c <_strtod_l+0x964>)
 800ae58:	4650      	mov	r0, sl
 800ae5a:	4659      	mov	r1, fp
 800ae5c:	2200      	movs	r2, #0
 800ae5e:	f7f5 fbcb 	bl	80005f8 <__aeabi_dmul>
 800ae62:	460b      	mov	r3, r1
 800ae64:	4303      	orrs	r3, r0
 800ae66:	bf08      	it	eq
 800ae68:	2322      	moveq	r3, #34	; 0x22
 800ae6a:	4682      	mov	sl, r0
 800ae6c:	468b      	mov	fp, r1
 800ae6e:	bf08      	it	eq
 800ae70:	6023      	streq	r3, [r4, #0]
 800ae72:	e62b      	b.n	800aacc <_strtod_l+0x4a4>
 800ae74:	f04f 32ff 	mov.w	r2, #4294967295
 800ae78:	fa02 f303 	lsl.w	r3, r2, r3
 800ae7c:	ea03 0a0a 	and.w	sl, r3, sl
 800ae80:	e6e3      	b.n	800ac4a <_strtod_l+0x622>
 800ae82:	f1c8 487f 	rsb	r8, r8, #4278190080	; 0xff000000
 800ae86:	f508 087f 	add.w	r8, r8, #16711680	; 0xff0000
 800ae8a:	f508 487b 	add.w	r8, r8, #64256	; 0xfb00
 800ae8e:	f108 08e2 	add.w	r8, r8, #226	; 0xe2
 800ae92:	fa01 f308 	lsl.w	r3, r1, r8
 800ae96:	9308      	str	r3, [sp, #32]
 800ae98:	910d      	str	r1, [sp, #52]	; 0x34
 800ae9a:	e746      	b.n	800ad2a <_strtod_l+0x702>
 800ae9c:	2300      	movs	r3, #0
 800ae9e:	9308      	str	r3, [sp, #32]
 800aea0:	2301      	movs	r3, #1
 800aea2:	930d      	str	r3, [sp, #52]	; 0x34
 800aea4:	e741      	b.n	800ad2a <_strtod_l+0x702>
 800aea6:	9918      	ldr	r1, [sp, #96]	; 0x60
 800aea8:	4642      	mov	r2, r8
 800aeaa:	4620      	mov	r0, r4
 800aeac:	f001 feb0 	bl	800cc10 <__lshift>
 800aeb0:	9018      	str	r0, [sp, #96]	; 0x60
 800aeb2:	2800      	cmp	r0, #0
 800aeb4:	f47f af6b 	bne.w	800ad8e <_strtod_l+0x766>
 800aeb8:	e5fe      	b.n	800aab8 <_strtod_l+0x490>
 800aeba:	465f      	mov	r7, fp
 800aebc:	d16e      	bne.n	800af9c <_strtod_l+0x974>
 800aebe:	9a0b      	ldr	r2, [sp, #44]	; 0x2c
 800aec0:	f3cb 0313 	ubfx	r3, fp, #0, #20
 800aec4:	b342      	cbz	r2, 800af18 <_strtod_l+0x8f0>
 800aec6:	4a32      	ldr	r2, [pc, #200]	; (800af90 <_strtod_l+0x968>)
 800aec8:	4293      	cmp	r3, r2
 800aeca:	d128      	bne.n	800af1e <_strtod_l+0x8f6>
 800aecc:	9b04      	ldr	r3, [sp, #16]
 800aece:	4651      	mov	r1, sl
 800aed0:	b1eb      	cbz	r3, 800af0e <_strtod_l+0x8e6>
 800aed2:	4b2d      	ldr	r3, [pc, #180]	; (800af88 <_strtod_l+0x960>)
 800aed4:	403b      	ands	r3, r7
 800aed6:	f1b3 6fd4 	cmp.w	r3, #111149056	; 0x6a00000
 800aeda:	f04f 32ff 	mov.w	r2, #4294967295
 800aede:	d819      	bhi.n	800af14 <_strtod_l+0x8ec>
 800aee0:	0d1b      	lsrs	r3, r3, #20
 800aee2:	f1c3 036b 	rsb	r3, r3, #107	; 0x6b
 800aee6:	fa02 f303 	lsl.w	r3, r2, r3
 800aeea:	4299      	cmp	r1, r3
 800aeec:	d117      	bne.n	800af1e <_strtod_l+0x8f6>
 800aeee:	4b29      	ldr	r3, [pc, #164]	; (800af94 <_strtod_l+0x96c>)
 800aef0:	429f      	cmp	r7, r3
 800aef2:	d102      	bne.n	800aefa <_strtod_l+0x8d2>
 800aef4:	3101      	adds	r1, #1
 800aef6:	f43f addf 	beq.w	800aab8 <_strtod_l+0x490>
 800aefa:	4b23      	ldr	r3, [pc, #140]	; (800af88 <_strtod_l+0x960>)
 800aefc:	403b      	ands	r3, r7
 800aefe:	f503 1b80 	add.w	fp, r3, #1048576	; 0x100000
 800af02:	f04f 0a00 	mov.w	sl, #0
 800af06:	9b04      	ldr	r3, [sp, #16]
 800af08:	2b00      	cmp	r3, #0
 800af0a:	d1a4      	bne.n	800ae56 <_strtod_l+0x82e>
 800af0c:	e5de      	b.n	800aacc <_strtod_l+0x4a4>
 800af0e:	f04f 33ff 	mov.w	r3, #4294967295
 800af12:	e7ea      	b.n	800aeea <_strtod_l+0x8c2>
 800af14:	4613      	mov	r3, r2
 800af16:	e7e8      	b.n	800aeea <_strtod_l+0x8c2>
 800af18:	ea53 030a 	orrs.w	r3, r3, sl
 800af1c:	d08c      	beq.n	800ae38 <_strtod_l+0x810>
 800af1e:	9b08      	ldr	r3, [sp, #32]
 800af20:	b1db      	cbz	r3, 800af5a <_strtod_l+0x932>
 800af22:	423b      	tst	r3, r7
 800af24:	d0ef      	beq.n	800af06 <_strtod_l+0x8de>
 800af26:	9b0b      	ldr	r3, [sp, #44]	; 0x2c
 800af28:	9a04      	ldr	r2, [sp, #16]
 800af2a:	4650      	mov	r0, sl
 800af2c:	4659      	mov	r1, fp
 800af2e:	b1c3      	cbz	r3, 800af62 <_strtod_l+0x93a>
 800af30:	f7ff fb5e 	bl	800a5f0 <sulp>
 800af34:	4602      	mov	r2, r0
 800af36:	460b      	mov	r3, r1
 800af38:	ec51 0b18 	vmov	r0, r1, d8
 800af3c:	f7f5 f9a6 	bl	800028c <__adddf3>
 800af40:	4682      	mov	sl, r0
 800af42:	468b      	mov	fp, r1
 800af44:	e7df      	b.n	800af06 <_strtod_l+0x8de>
 800af46:	4013      	ands	r3, r2
 800af48:	f5a3 1380 	sub.w	r3, r3, #1048576	; 0x100000
 800af4c:	ea6f 5b13 	mvn.w	fp, r3, lsr #20
 800af50:	ea6f 5b0b 	mvn.w	fp, fp, lsl #20
 800af54:	f04f 3aff 	mov.w	sl, #4294967295
 800af58:	e7d5      	b.n	800af06 <_strtod_l+0x8de>
 800af5a:	9b0d      	ldr	r3, [sp, #52]	; 0x34
 800af5c:	ea13 0f0a 	tst.w	r3, sl
 800af60:	e7e0      	b.n	800af24 <_strtod_l+0x8fc>
 800af62:	f7ff fb45 	bl	800a5f0 <sulp>
 800af66:	4602      	mov	r2, r0
 800af68:	460b      	mov	r3, r1
 800af6a:	ec51 0b18 	vmov	r0, r1, d8
 800af6e:	f7f5 f98b 	bl	8000288 <__aeabi_dsub>
 800af72:	2200      	movs	r2, #0
 800af74:	2300      	movs	r3, #0
 800af76:	4682      	mov	sl, r0
 800af78:	468b      	mov	fp, r1
 800af7a:	f7f5 fda5 	bl	8000ac8 <__aeabi_dcmpeq>
 800af7e:	2800      	cmp	r0, #0
 800af80:	d0c1      	beq.n	800af06 <_strtod_l+0x8de>
 800af82:	e611      	b.n	800aba8 <_strtod_l+0x580>
 800af84:	fffffc02 	.word	0xfffffc02
 800af88:	7ff00000 	.word	0x7ff00000
 800af8c:	39500000 	.word	0x39500000
 800af90:	000fffff 	.word	0x000fffff
 800af94:	7fefffff 	.word	0x7fefffff
 800af98:	0800ed78 	.word	0x0800ed78
 800af9c:	4631      	mov	r1, r6
 800af9e:	4628      	mov	r0, r5
 800afa0:	f002 f824 	bl	800cfec <__ratio>
 800afa4:	ec59 8b10 	vmov	r8, r9, d0
 800afa8:	ee10 0a10 	vmov	r0, s0
 800afac:	2200      	movs	r2, #0
 800afae:	f04f 4380 	mov.w	r3, #1073741824	; 0x40000000
 800afb2:	4649      	mov	r1, r9
 800afb4:	f7f5 fd9c 	bl	8000af0 <__aeabi_dcmple>
 800afb8:	2800      	cmp	r0, #0
 800afba:	d07a      	beq.n	800b0b2 <_strtod_l+0xa8a>
 800afbc:	9b0b      	ldr	r3, [sp, #44]	; 0x2c
 800afbe:	2b00      	cmp	r3, #0
 800afc0:	d04a      	beq.n	800b058 <_strtod_l+0xa30>
 800afc2:	4b95      	ldr	r3, [pc, #596]	; (800b218 <_strtod_l+0xbf0>)
 800afc4:	2200      	movs	r2, #0
 800afc6:	e9cd 2308 	strd	r2, r3, [sp, #32]
 800afca:	f8df 924c 	ldr.w	r9, [pc, #588]	; 800b218 <_strtod_l+0xbf0>
 800afce:	f04f 0800 	mov.w	r8, #0
 800afd2:	4b92      	ldr	r3, [pc, #584]	; (800b21c <_strtod_l+0xbf4>)
 800afd4:	403b      	ands	r3, r7
 800afd6:	930d      	str	r3, [sp, #52]	; 0x34
 800afd8:	9a0d      	ldr	r2, [sp, #52]	; 0x34
 800afda:	4b91      	ldr	r3, [pc, #580]	; (800b220 <_strtod_l+0xbf8>)
 800afdc:	429a      	cmp	r2, r3
 800afde:	f040 80b0 	bne.w	800b142 <_strtod_l+0xb1a>
 800afe2:	e9dd 0108 	ldrd	r0, r1, [sp, #32]
 800afe6:	f1a7 7b54 	sub.w	fp, r7, #55574528	; 0x3500000
 800afea:	ec4b ab10 	vmov	d0, sl, fp
 800afee:	e9cd 0108 	strd	r0, r1, [sp, #32]
 800aff2:	f001 ff23 	bl	800ce3c <__ulp>
 800aff6:	e9dd 0108 	ldrd	r0, r1, [sp, #32]
 800affa:	ec53 2b10 	vmov	r2, r3, d0
 800affe:	f7f5 fafb 	bl	80005f8 <__aeabi_dmul>
 800b002:	4652      	mov	r2, sl
 800b004:	465b      	mov	r3, fp
 800b006:	f7f5 f941 	bl	800028c <__adddf3>
 800b00a:	460b      	mov	r3, r1
 800b00c:	4983      	ldr	r1, [pc, #524]	; (800b21c <_strtod_l+0xbf4>)
 800b00e:	4a85      	ldr	r2, [pc, #532]	; (800b224 <_strtod_l+0xbfc>)
 800b010:	4019      	ands	r1, r3
 800b012:	4291      	cmp	r1, r2
 800b014:	4682      	mov	sl, r0
 800b016:	d960      	bls.n	800b0da <_strtod_l+0xab2>
 800b018:	ee18 3a90 	vmov	r3, s17
 800b01c:	f102 7254 	add.w	r2, r2, #55574528	; 0x3500000
 800b020:	4293      	cmp	r3, r2
 800b022:	d104      	bne.n	800b02e <_strtod_l+0xa06>
 800b024:	ee18 3a10 	vmov	r3, s16
 800b028:	3301      	adds	r3, #1
 800b02a:	f43f ad45 	beq.w	800aab8 <_strtod_l+0x490>
 800b02e:	f8df b200 	ldr.w	fp, [pc, #512]	; 800b230 <_strtod_l+0xc08>
 800b032:	f04f 3aff 	mov.w	sl, #4294967295
 800b036:	9918      	ldr	r1, [sp, #96]	; 0x60
 800b038:	4620      	mov	r0, r4
 800b03a:	f001 fbcd 	bl	800c7d8 <_Bfree>
 800b03e:	9905      	ldr	r1, [sp, #20]
 800b040:	4620      	mov	r0, r4
 800b042:	f001 fbc9 	bl	800c7d8 <_Bfree>
 800b046:	4631      	mov	r1, r6
 800b048:	4620      	mov	r0, r4
 800b04a:	f001 fbc5 	bl	800c7d8 <_Bfree>
 800b04e:	4629      	mov	r1, r5
 800b050:	4620      	mov	r0, r4
 800b052:	f001 fbc1 	bl	800c7d8 <_Bfree>
 800b056:	e61a      	b.n	800ac8e <_strtod_l+0x666>
 800b058:	f1ba 0f00 	cmp.w	sl, #0
 800b05c:	d11b      	bne.n	800b096 <_strtod_l+0xa6e>
 800b05e:	f3cb 0313 	ubfx	r3, fp, #0, #20
 800b062:	b9f3      	cbnz	r3, 800b0a2 <_strtod_l+0xa7a>
 800b064:	4b6c      	ldr	r3, [pc, #432]	; (800b218 <_strtod_l+0xbf0>)
 800b066:	2200      	movs	r2, #0
 800b068:	4640      	mov	r0, r8
 800b06a:	4649      	mov	r1, r9
 800b06c:	f7f5 fd36 	bl	8000adc <__aeabi_dcmplt>
 800b070:	b9d0      	cbnz	r0, 800b0a8 <_strtod_l+0xa80>
 800b072:	4640      	mov	r0, r8
 800b074:	4649      	mov	r1, r9
 800b076:	4b6c      	ldr	r3, [pc, #432]	; (800b228 <_strtod_l+0xc00>)
 800b078:	2200      	movs	r2, #0
 800b07a:	f7f5 fabd 	bl	80005f8 <__aeabi_dmul>
 800b07e:	4680      	mov	r8, r0
 800b080:	4689      	mov	r9, r1
 800b082:	f109 4300 	add.w	r3, r9, #2147483648	; 0x80000000
 800b086:	f8cd 8050 	str.w	r8, [sp, #80]	; 0x50
 800b08a:	9315      	str	r3, [sp, #84]	; 0x54
 800b08c:	e9dd 2314 	ldrd	r2, r3, [sp, #80]	; 0x50
 800b090:	e9cd 2308 	strd	r2, r3, [sp, #32]
 800b094:	e79d      	b.n	800afd2 <_strtod_l+0x9aa>
 800b096:	f1ba 0f01 	cmp.w	sl, #1
 800b09a:	d102      	bne.n	800b0a2 <_strtod_l+0xa7a>
 800b09c:	2f00      	cmp	r7, #0
 800b09e:	f43f ad83 	beq.w	800aba8 <_strtod_l+0x580>
 800b0a2:	4b62      	ldr	r3, [pc, #392]	; (800b22c <_strtod_l+0xc04>)
 800b0a4:	2200      	movs	r2, #0
 800b0a6:	e78e      	b.n	800afc6 <_strtod_l+0x99e>
 800b0a8:	f8df 917c 	ldr.w	r9, [pc, #380]	; 800b228 <_strtod_l+0xc00>
 800b0ac:	f04f 0800 	mov.w	r8, #0
 800b0b0:	e7e7      	b.n	800b082 <_strtod_l+0xa5a>
 800b0b2:	4b5d      	ldr	r3, [pc, #372]	; (800b228 <_strtod_l+0xc00>)
 800b0b4:	4640      	mov	r0, r8
 800b0b6:	4649      	mov	r1, r9
 800b0b8:	2200      	movs	r2, #0
 800b0ba:	f7f5 fa9d 	bl	80005f8 <__aeabi_dmul>
 800b0be:	9b0b      	ldr	r3, [sp, #44]	; 0x2c
 800b0c0:	4680      	mov	r8, r0
 800b0c2:	4689      	mov	r9, r1
 800b0c4:	b933      	cbnz	r3, 800b0d4 <_strtod_l+0xaac>
 800b0c6:	f101 4300 	add.w	r3, r1, #2147483648	; 0x80000000
 800b0ca:	900e      	str	r0, [sp, #56]	; 0x38
 800b0cc:	930f      	str	r3, [sp, #60]	; 0x3c
 800b0ce:	e9dd 230e 	ldrd	r2, r3, [sp, #56]	; 0x38
 800b0d2:	e7dd      	b.n	800b090 <_strtod_l+0xa68>
 800b0d4:	e9cd 890e 	strd	r8, r9, [sp, #56]	; 0x38
 800b0d8:	e7f9      	b.n	800b0ce <_strtod_l+0xaa6>
 800b0da:	f103 7b54 	add.w	fp, r3, #55574528	; 0x3500000
 800b0de:	9b04      	ldr	r3, [sp, #16]
 800b0e0:	2b00      	cmp	r3, #0
 800b0e2:	d1a8      	bne.n	800b036 <_strtod_l+0xa0e>
 800b0e4:	f02b 4300 	bic.w	r3, fp, #2147483648	; 0x80000000
 800b0e8:	9a0d      	ldr	r2, [sp, #52]	; 0x34
 800b0ea:	0d1b      	lsrs	r3, r3, #20
 800b0ec:	051b      	lsls	r3, r3, #20
 800b0ee:	429a      	cmp	r2, r3
 800b0f0:	d1a1      	bne.n	800b036 <_strtod_l+0xa0e>
 800b0f2:	4640      	mov	r0, r8
 800b0f4:	4649      	mov	r1, r9
 800b0f6:	f7f5 fddf 	bl	8000cb8 <__aeabi_d2lz>
 800b0fa:	f7f5 fa4f 	bl	800059c <__aeabi_l2d>
 800b0fe:	4602      	mov	r2, r0
 800b100:	460b      	mov	r3, r1
 800b102:	4640      	mov	r0, r8
 800b104:	4649      	mov	r1, r9
 800b106:	f7f5 f8bf 	bl	8000288 <__aeabi_dsub>
 800b10a:	9a0b      	ldr	r2, [sp, #44]	; 0x2c
 800b10c:	f3cb 0313 	ubfx	r3, fp, #0, #20
 800b110:	ea43 030a 	orr.w	r3, r3, sl
 800b114:	4313      	orrs	r3, r2
 800b116:	4680      	mov	r8, r0
 800b118:	4689      	mov	r9, r1
 800b11a:	d055      	beq.n	800b1c8 <_strtod_l+0xba0>
 800b11c:	a336      	add	r3, pc, #216	; (adr r3, 800b1f8 <_strtod_l+0xbd0>)
 800b11e:	e9d3 2300 	ldrd	r2, r3, [r3]
 800b122:	f7f5 fcdb 	bl	8000adc <__aeabi_dcmplt>
 800b126:	2800      	cmp	r0, #0
 800b128:	f47f acd0 	bne.w	800aacc <_strtod_l+0x4a4>
 800b12c:	a334      	add	r3, pc, #208	; (adr r3, 800b200 <_strtod_l+0xbd8>)
 800b12e:	e9d3 2300 	ldrd	r2, r3, [r3]
 800b132:	4640      	mov	r0, r8
 800b134:	4649      	mov	r1, r9
 800b136:	f7f5 fcef 	bl	8000b18 <__aeabi_dcmpgt>
 800b13a:	2800      	cmp	r0, #0
 800b13c:	f43f af7b 	beq.w	800b036 <_strtod_l+0xa0e>
 800b140:	e4c4      	b.n	800aacc <_strtod_l+0x4a4>
 800b142:	9b04      	ldr	r3, [sp, #16]
 800b144:	b333      	cbz	r3, 800b194 <_strtod_l+0xb6c>
 800b146:	9b0d      	ldr	r3, [sp, #52]	; 0x34
 800b148:	f1b3 6fd4 	cmp.w	r3, #111149056	; 0x6a00000
 800b14c:	d822      	bhi.n	800b194 <_strtod_l+0xb6c>
 800b14e:	a32e      	add	r3, pc, #184	; (adr r3, 800b208 <_strtod_l+0xbe0>)
 800b150:	e9d3 2300 	ldrd	r2, r3, [r3]
 800b154:	4640      	mov	r0, r8
 800b156:	4649      	mov	r1, r9
 800b158:	f7f5 fcca 	bl	8000af0 <__aeabi_dcmple>
 800b15c:	b1a0      	cbz	r0, 800b188 <_strtod_l+0xb60>
 800b15e:	4649      	mov	r1, r9
 800b160:	4640      	mov	r0, r8
 800b162:	f7f5 fd21 	bl	8000ba8 <__aeabi_d2uiz>
 800b166:	2801      	cmp	r0, #1
 800b168:	bf38      	it	cc
 800b16a:	2001      	movcc	r0, #1
 800b16c:	f7f5 f9ca 	bl	8000504 <__aeabi_ui2d>
 800b170:	9b0b      	ldr	r3, [sp, #44]	; 0x2c
 800b172:	4680      	mov	r8, r0
 800b174:	4689      	mov	r9, r1
 800b176:	bb23      	cbnz	r3, 800b1c2 <_strtod_l+0xb9a>
 800b178:	f101 4300 	add.w	r3, r1, #2147483648	; 0x80000000
 800b17c:	9010      	str	r0, [sp, #64]	; 0x40
 800b17e:	9311      	str	r3, [sp, #68]	; 0x44
 800b180:	e9dd 2310 	ldrd	r2, r3, [sp, #64]	; 0x40
 800b184:	e9cd 2308 	strd	r2, r3, [sp, #32]
 800b188:	9b09      	ldr	r3, [sp, #36]	; 0x24
 800b18a:	9a0d      	ldr	r2, [sp, #52]	; 0x34
 800b18c:	f103 63d6 	add.w	r3, r3, #112197632	; 0x6b00000
 800b190:	1a9b      	subs	r3, r3, r2
 800b192:	9309      	str	r3, [sp, #36]	; 0x24
 800b194:	e9dd 0108 	ldrd	r0, r1, [sp, #32]
 800b198:	eeb0 0a48 	vmov.f32	s0, s16
 800b19c:	eef0 0a68 	vmov.f32	s1, s17
 800b1a0:	e9cd 0108 	strd	r0, r1, [sp, #32]
 800b1a4:	f001 fe4a 	bl	800ce3c <__ulp>
 800b1a8:	e9dd 0108 	ldrd	r0, r1, [sp, #32]
 800b1ac:	ec53 2b10 	vmov	r2, r3, d0
 800b1b0:	f7f5 fa22 	bl	80005f8 <__aeabi_dmul>
 800b1b4:	ec53 2b18 	vmov	r2, r3, d8
 800b1b8:	f7f5 f868 	bl	800028c <__adddf3>
 800b1bc:	4682      	mov	sl, r0
 800b1be:	468b      	mov	fp, r1
 800b1c0:	e78d      	b.n	800b0de <_strtod_l+0xab6>
 800b1c2:	e9cd 8910 	strd	r8, r9, [sp, #64]	; 0x40
 800b1c6:	e7db      	b.n	800b180 <_strtod_l+0xb58>
 800b1c8:	a311      	add	r3, pc, #68	; (adr r3, 800b210 <_strtod_l+0xbe8>)
 800b1ca:	e9d3 2300 	ldrd	r2, r3, [r3]
 800b1ce:	f7f5 fc85 	bl	8000adc <__aeabi_dcmplt>
 800b1d2:	e7b2      	b.n	800b13a <_strtod_l+0xb12>
 800b1d4:	2300      	movs	r3, #0
 800b1d6:	930a      	str	r3, [sp, #40]	; 0x28
 800b1d8:	9a13      	ldr	r2, [sp, #76]	; 0x4c
 800b1da:	9b17      	ldr	r3, [sp, #92]	; 0x5c
 800b1dc:	6013      	str	r3, [r2, #0]
 800b1de:	f7ff ba6b 	b.w	800a6b8 <_strtod_l+0x90>
 800b1e2:	2a65      	cmp	r2, #101	; 0x65
 800b1e4:	f43f ab5f 	beq.w	800a8a6 <_strtod_l+0x27e>
 800b1e8:	2a45      	cmp	r2, #69	; 0x45
 800b1ea:	f43f ab5c 	beq.w	800a8a6 <_strtod_l+0x27e>
 800b1ee:	2301      	movs	r3, #1
 800b1f0:	f7ff bb94 	b.w	800a91c <_strtod_l+0x2f4>
 800b1f4:	f3af 8000 	nop.w
 800b1f8:	94a03595 	.word	0x94a03595
 800b1fc:	3fdfffff 	.word	0x3fdfffff
 800b200:	35afe535 	.word	0x35afe535
 800b204:	3fe00000 	.word	0x3fe00000
 800b208:	ffc00000 	.word	0xffc00000
 800b20c:	41dfffff 	.word	0x41dfffff
 800b210:	94a03595 	.word	0x94a03595
 800b214:	3fcfffff 	.word	0x3fcfffff
 800b218:	3ff00000 	.word	0x3ff00000
 800b21c:	7ff00000 	.word	0x7ff00000
 800b220:	7fe00000 	.word	0x7fe00000
 800b224:	7c9fffff 	.word	0x7c9fffff
 800b228:	3fe00000 	.word	0x3fe00000
 800b22c:	bff00000 	.word	0xbff00000
 800b230:	7fefffff 	.word	0x7fefffff

0800b234 <_strtod_r>:
 800b234:	4b01      	ldr	r3, [pc, #4]	; (800b23c <_strtod_r+0x8>)
 800b236:	f7ff b9f7 	b.w	800a628 <_strtod_l>
 800b23a:	bf00      	nop
 800b23c:	2000007c 	.word	0x2000007c

0800b240 <_strtol_l.constprop.0>:
 800b240:	2b01      	cmp	r3, #1
 800b242:	e92d 47f0 	stmdb	sp!, {r4, r5, r6, r7, r8, r9, sl, lr}
 800b246:	d001      	beq.n	800b24c <_strtol_l.constprop.0+0xc>
 800b248:	2b24      	cmp	r3, #36	; 0x24
 800b24a:	d906      	bls.n	800b25a <_strtol_l.constprop.0+0x1a>
 800b24c:	f7fe faf0 	bl	8009830 <__errno>
 800b250:	2316      	movs	r3, #22
 800b252:	6003      	str	r3, [r0, #0]
 800b254:	2000      	movs	r0, #0
 800b256:	e8bd 87f0 	ldmia.w	sp!, {r4, r5, r6, r7, r8, r9, sl, pc}
 800b25a:	f8df c0e4 	ldr.w	ip, [pc, #228]	; 800b340 <_strtol_l.constprop.0+0x100>
 800b25e:	460d      	mov	r5, r1
 800b260:	462e      	mov	r6, r5
 800b262:	f815 4b01 	ldrb.w	r4, [r5], #1
 800b266:	f814 700c 	ldrb.w	r7, [r4, ip]
 800b26a:	f017 0708 	ands.w	r7, r7, #8
 800b26e:	d1f7      	bne.n	800b260 <_strtol_l.constprop.0+0x20>
 800b270:	2c2d      	cmp	r4, #45	; 0x2d
 800b272:	d132      	bne.n	800b2da <_strtol_l.constprop.0+0x9a>
 800b274:	782c      	ldrb	r4, [r5, #0]
 800b276:	2701      	movs	r7, #1
 800b278:	1cb5      	adds	r5, r6, #2
 800b27a:	2b00      	cmp	r3, #0
 800b27c:	d05b      	beq.n	800b336 <_strtol_l.constprop.0+0xf6>
 800b27e:	2b10      	cmp	r3, #16
 800b280:	d109      	bne.n	800b296 <_strtol_l.constprop.0+0x56>
 800b282:	2c30      	cmp	r4, #48	; 0x30
 800b284:	d107      	bne.n	800b296 <_strtol_l.constprop.0+0x56>
 800b286:	782c      	ldrb	r4, [r5, #0]
 800b288:	f004 04df 	and.w	r4, r4, #223	; 0xdf
 800b28c:	2c58      	cmp	r4, #88	; 0x58
 800b28e:	d14d      	bne.n	800b32c <_strtol_l.constprop.0+0xec>
 800b290:	786c      	ldrb	r4, [r5, #1]
 800b292:	2310      	movs	r3, #16
 800b294:	3502      	adds	r5, #2
 800b296:	f107 4800 	add.w	r8, r7, #2147483648	; 0x80000000
 800b29a:	f108 38ff 	add.w	r8, r8, #4294967295
 800b29e:	f04f 0c00 	mov.w	ip, #0
 800b2a2:	fbb8 f9f3 	udiv	r9, r8, r3
 800b2a6:	4666      	mov	r6, ip
 800b2a8:	fb03 8a19 	mls	sl, r3, r9, r8
 800b2ac:	f1a4 0e30 	sub.w	lr, r4, #48	; 0x30
 800b2b0:	f1be 0f09 	cmp.w	lr, #9
 800b2b4:	d816      	bhi.n	800b2e4 <_strtol_l.constprop.0+0xa4>
 800b2b6:	4674      	mov	r4, lr
 800b2b8:	42a3      	cmp	r3, r4
 800b2ba:	dd24      	ble.n	800b306 <_strtol_l.constprop.0+0xc6>
 800b2bc:	f1bc 0f00 	cmp.w	ip, #0
 800b2c0:	db1e      	blt.n	800b300 <_strtol_l.constprop.0+0xc0>
 800b2c2:	45b1      	cmp	r9, r6
 800b2c4:	d31c      	bcc.n	800b300 <_strtol_l.constprop.0+0xc0>
 800b2c6:	d101      	bne.n	800b2cc <_strtol_l.constprop.0+0x8c>
 800b2c8:	45a2      	cmp	sl, r4
 800b2ca:	db19      	blt.n	800b300 <_strtol_l.constprop.0+0xc0>
 800b2cc:	fb06 4603 	mla	r6, r6, r3, r4
 800b2d0:	f04f 0c01 	mov.w	ip, #1
 800b2d4:	f815 4b01 	ldrb.w	r4, [r5], #1
 800b2d8:	e7e8      	b.n	800b2ac <_strtol_l.constprop.0+0x6c>
 800b2da:	2c2b      	cmp	r4, #43	; 0x2b
 800b2dc:	bf04      	itt	eq
 800b2de:	782c      	ldrbeq	r4, [r5, #0]
 800b2e0:	1cb5      	addeq	r5, r6, #2
 800b2e2:	e7ca      	b.n	800b27a <_strtol_l.constprop.0+0x3a>
 800b2e4:	f1a4 0e41 	sub.w	lr, r4, #65	; 0x41
 800b2e8:	f1be 0f19 	cmp.w	lr, #25
 800b2ec:	d801      	bhi.n	800b2f2 <_strtol_l.constprop.0+0xb2>
 800b2ee:	3c37      	subs	r4, #55	; 0x37
 800b2f0:	e7e2      	b.n	800b2b8 <_strtol_l.constprop.0+0x78>
 800b2f2:	f1a4 0e61 	sub.w	lr, r4, #97	; 0x61
 800b2f6:	f1be 0f19 	cmp.w	lr, #25
 800b2fa:	d804      	bhi.n	800b306 <_strtol_l.constprop.0+0xc6>
 800b2fc:	3c57      	subs	r4, #87	; 0x57
 800b2fe:	e7db      	b.n	800b2b8 <_strtol_l.constprop.0+0x78>
 800b300:	f04f 3cff 	mov.w	ip, #4294967295
 800b304:	e7e6      	b.n	800b2d4 <_strtol_l.constprop.0+0x94>
 800b306:	f1bc 0f00 	cmp.w	ip, #0
 800b30a:	da05      	bge.n	800b318 <_strtol_l.constprop.0+0xd8>
 800b30c:	2322      	movs	r3, #34	; 0x22
 800b30e:	6003      	str	r3, [r0, #0]
 800b310:	4646      	mov	r6, r8
 800b312:	b942      	cbnz	r2, 800b326 <_strtol_l.constprop.0+0xe6>
 800b314:	4630      	mov	r0, r6
 800b316:	e79e      	b.n	800b256 <_strtol_l.constprop.0+0x16>
 800b318:	b107      	cbz	r7, 800b31c <_strtol_l.constprop.0+0xdc>
 800b31a:	4276      	negs	r6, r6
 800b31c:	2a00      	cmp	r2, #0
 800b31e:	d0f9      	beq.n	800b314 <_strtol_l.constprop.0+0xd4>
 800b320:	f1bc 0f00 	cmp.w	ip, #0
 800b324:	d000      	beq.n	800b328 <_strtol_l.constprop.0+0xe8>
 800b326:	1e69      	subs	r1, r5, #1
 800b328:	6011      	str	r1, [r2, #0]
 800b32a:	e7f3      	b.n	800b314 <_strtol_l.constprop.0+0xd4>
 800b32c:	2430      	movs	r4, #48	; 0x30
 800b32e:	2b00      	cmp	r3, #0
 800b330:	d1b1      	bne.n	800b296 <_strtol_l.constprop.0+0x56>
 800b332:	2308      	movs	r3, #8
 800b334:	e7af      	b.n	800b296 <_strtol_l.constprop.0+0x56>
 800b336:	2c30      	cmp	r4, #48	; 0x30
 800b338:	d0a5      	beq.n	800b286 <_strtol_l.constprop.0+0x46>
 800b33a:	230a      	movs	r3, #10
 800b33c:	e7ab      	b.n	800b296 <_strtol_l.constprop.0+0x56>
 800b33e:	bf00      	nop
 800b340:	0800eda1 	.word	0x0800eda1

0800b344 <_strtol_r>:
 800b344:	f7ff bf7c 	b.w	800b240 <_strtol_l.constprop.0>

0800b348 <quorem>:
 800b348:	e92d 4ff7 	stmdb	sp!, {r0, r1, r2, r4, r5, r6, r7, r8, r9, sl, fp, lr}
 800b34c:	6903      	ldr	r3, [r0, #16]
 800b34e:	690c      	ldr	r4, [r1, #16]
 800b350:	42a3      	cmp	r3, r4
 800b352:	4607      	mov	r7, r0
 800b354:	f2c0 8081 	blt.w	800b45a <quorem+0x112>
 800b358:	3c01      	subs	r4, #1
 800b35a:	f101 0814 	add.w	r8, r1, #20
 800b35e:	f100 0514 	add.w	r5, r0, #20
 800b362:	eb05 0384 	add.w	r3, r5, r4, lsl #2
 800b366:	9301      	str	r3, [sp, #4]
 800b368:	f858 3024 	ldr.w	r3, [r8, r4, lsl #2]
 800b36c:	f855 2024 	ldr.w	r2, [r5, r4, lsl #2]
 800b370:	3301      	adds	r3, #1
 800b372:	429a      	cmp	r2, r3
 800b374:	ea4f 0b84 	mov.w	fp, r4, lsl #2
 800b378:	eb08 0984 	add.w	r9, r8, r4, lsl #2
 800b37c:	fbb2 f6f3 	udiv	r6, r2, r3
 800b380:	d331      	bcc.n	800b3e6 <quorem+0x9e>
 800b382:	f04f 0e00 	mov.w	lr, #0
 800b386:	4640      	mov	r0, r8
 800b388:	46ac      	mov	ip, r5
 800b38a:	46f2      	mov	sl, lr
 800b38c:	f850 2b04 	ldr.w	r2, [r0], #4
 800b390:	b293      	uxth	r3, r2
 800b392:	fb06 e303 	mla	r3, r6, r3, lr
 800b396:	ea4f 4e13 	mov.w	lr, r3, lsr #16
 800b39a:	b29b      	uxth	r3, r3
 800b39c:	ebaa 0303 	sub.w	r3, sl, r3
 800b3a0:	f8dc a000 	ldr.w	sl, [ip]
 800b3a4:	0c12      	lsrs	r2, r2, #16
 800b3a6:	fa13 f38a 	uxtah	r3, r3, sl
 800b3aa:	fb06 e202 	mla	r2, r6, r2, lr
 800b3ae:	9300      	str	r3, [sp, #0]
 800b3b0:	9b00      	ldr	r3, [sp, #0]
 800b3b2:	ea4f 4e12 	mov.w	lr, r2, lsr #16
 800b3b6:	b292      	uxth	r2, r2
 800b3b8:	ebc2 421a 	rsb	r2, r2, sl, lsr #16
 800b3bc:	eb02 4223 	add.w	r2, r2, r3, asr #16
 800b3c0:	f8bd 3000 	ldrh.w	r3, [sp]
 800b3c4:	4581      	cmp	r9, r0
 800b3c6:	ea43 4302 	orr.w	r3, r3, r2, lsl #16
 800b3ca:	f84c 3b04 	str.w	r3, [ip], #4
 800b3ce:	ea4f 4a22 	mov.w	sl, r2, asr #16
 800b3d2:	d2db      	bcs.n	800b38c <quorem+0x44>
 800b3d4:	f855 300b 	ldr.w	r3, [r5, fp]
 800b3d8:	b92b      	cbnz	r3, 800b3e6 <quorem+0x9e>
 800b3da:	9b01      	ldr	r3, [sp, #4]
 800b3dc:	3b04      	subs	r3, #4
 800b3de:	429d      	cmp	r5, r3
 800b3e0:	461a      	mov	r2, r3
 800b3e2:	d32e      	bcc.n	800b442 <quorem+0xfa>
 800b3e4:	613c      	str	r4, [r7, #16]
 800b3e6:	4638      	mov	r0, r7
 800b3e8:	f001 fc82 	bl	800ccf0 <__mcmp>
 800b3ec:	2800      	cmp	r0, #0
 800b3ee:	db24      	blt.n	800b43a <quorem+0xf2>
 800b3f0:	3601      	adds	r6, #1
 800b3f2:	4628      	mov	r0, r5
 800b3f4:	f04f 0c00 	mov.w	ip, #0
 800b3f8:	f858 2b04 	ldr.w	r2, [r8], #4
 800b3fc:	f8d0 e000 	ldr.w	lr, [r0]
 800b400:	b293      	uxth	r3, r2
 800b402:	ebac 0303 	sub.w	r3, ip, r3
 800b406:	0c12      	lsrs	r2, r2, #16
 800b408:	fa13 f38e 	uxtah	r3, r3, lr
 800b40c:	ebc2 421e 	rsb	r2, r2, lr, lsr #16
 800b410:	eb02 4223 	add.w	r2, r2, r3, asr #16
 800b414:	b29b      	uxth	r3, r3
 800b416:	ea43 4302 	orr.w	r3, r3, r2, lsl #16
 800b41a:	45c1      	cmp	r9, r8
 800b41c:	f840 3b04 	str.w	r3, [r0], #4
 800b420:	ea4f 4c22 	mov.w	ip, r2, asr #16
 800b424:	d2e8      	bcs.n	800b3f8 <quorem+0xb0>
 800b426:	f855 2024 	ldr.w	r2, [r5, r4, lsl #2]
 800b42a:	eb05 0384 	add.w	r3, r5, r4, lsl #2
 800b42e:	b922      	cbnz	r2, 800b43a <quorem+0xf2>
 800b430:	3b04      	subs	r3, #4
 800b432:	429d      	cmp	r5, r3
 800b434:	461a      	mov	r2, r3
 800b436:	d30a      	bcc.n	800b44e <quorem+0x106>
 800b438:	613c      	str	r4, [r7, #16]
 800b43a:	4630      	mov	r0, r6
 800b43c:	b003      	add	sp, #12
 800b43e:	e8bd 8ff0 	ldmia.w	sp!, {r4, r5, r6, r7, r8, r9, sl, fp, pc}
 800b442:	6812      	ldr	r2, [r2, #0]
 800b444:	3b04      	subs	r3, #4
 800b446:	2a00      	cmp	r2, #0
 800b448:	d1cc      	bne.n	800b3e4 <quorem+0x9c>
 800b44a:	3c01      	subs	r4, #1
 800b44c:	e7c7      	b.n	800b3de <quorem+0x96>
 800b44e:	6812      	ldr	r2, [r2, #0]
 800b450:	3b04      	subs	r3, #4
 800b452:	2a00      	cmp	r2, #0
 800b454:	d1f0      	bne.n	800b438 <quorem+0xf0>
 800b456:	3c01      	subs	r4, #1
 800b458:	e7eb      	b.n	800b432 <quorem+0xea>
 800b45a:	2000      	movs	r0, #0
 800b45c:	e7ee      	b.n	800b43c <quorem+0xf4>
	...

0800b460 <_dtoa_r>:
 800b460:	e92d 4ff0 	stmdb	sp!, {r4, r5, r6, r7, r8, r9, sl, fp, lr}
 800b464:	ed2d 8b04 	vpush	{d8-d9}
 800b468:	ec57 6b10 	vmov	r6, r7, d0
 800b46c:	b093      	sub	sp, #76	; 0x4c
 800b46e:	6a45      	ldr	r5, [r0, #36]	; 0x24
 800b470:	f8dd 8080 	ldr.w	r8, [sp, #128]	; 0x80
 800b474:	9106      	str	r1, [sp, #24]
 800b476:	ee10 aa10 	vmov	sl, s0
 800b47a:	4604      	mov	r4, r0
 800b47c:	9209      	str	r2, [sp, #36]	; 0x24
 800b47e:	930c      	str	r3, [sp, #48]	; 0x30
 800b480:	46bb      	mov	fp, r7
 800b482:	b975      	cbnz	r5, 800b4a2 <_dtoa_r+0x42>
 800b484:	2010      	movs	r0, #16
 800b486:	f001 f94d 	bl	800c724 <malloc>
 800b48a:	4602      	mov	r2, r0
 800b48c:	6260      	str	r0, [r4, #36]	; 0x24
 800b48e:	b920      	cbnz	r0, 800b49a <_dtoa_r+0x3a>
 800b490:	4ba7      	ldr	r3, [pc, #668]	; (800b730 <_dtoa_r+0x2d0>)
 800b492:	21ea      	movs	r1, #234	; 0xea
 800b494:	48a7      	ldr	r0, [pc, #668]	; (800b734 <_dtoa_r+0x2d4>)
 800b496:	f002 f8ad 	bl	800d5f4 <__assert_func>
 800b49a:	e9c0 5501 	strd	r5, r5, [r0, #4]
 800b49e:	6005      	str	r5, [r0, #0]
 800b4a0:	60c5      	str	r5, [r0, #12]
 800b4a2:	6a63      	ldr	r3, [r4, #36]	; 0x24
 800b4a4:	6819      	ldr	r1, [r3, #0]
 800b4a6:	b151      	cbz	r1, 800b4be <_dtoa_r+0x5e>
 800b4a8:	685a      	ldr	r2, [r3, #4]
 800b4aa:	604a      	str	r2, [r1, #4]
 800b4ac:	2301      	movs	r3, #1
 800b4ae:	4093      	lsls	r3, r2
 800b4b0:	608b      	str	r3, [r1, #8]
 800b4b2:	4620      	mov	r0, r4
 800b4b4:	f001 f990 	bl	800c7d8 <_Bfree>
 800b4b8:	6a63      	ldr	r3, [r4, #36]	; 0x24
 800b4ba:	2200      	movs	r2, #0
 800b4bc:	601a      	str	r2, [r3, #0]
 800b4be:	1e3b      	subs	r3, r7, #0
 800b4c0:	bfaa      	itet	ge
 800b4c2:	2300      	movge	r3, #0
 800b4c4:	f023 4b00 	biclt.w	fp, r3, #2147483648	; 0x80000000
 800b4c8:	f8c8 3000 	strge.w	r3, [r8]
 800b4cc:	4b9a      	ldr	r3, [pc, #616]	; (800b738 <_dtoa_r+0x2d8>)
 800b4ce:	bfbc      	itt	lt
 800b4d0:	2201      	movlt	r2, #1
 800b4d2:	f8c8 2000 	strlt.w	r2, [r8]
 800b4d6:	ea33 030b 	bics.w	r3, r3, fp
 800b4da:	d11b      	bne.n	800b514 <_dtoa_r+0xb4>
 800b4dc:	9a0c      	ldr	r2, [sp, #48]	; 0x30
 800b4de:	f242 730f 	movw	r3, #9999	; 0x270f
 800b4e2:	6013      	str	r3, [r2, #0]
 800b4e4:	f3cb 0313 	ubfx	r3, fp, #0, #20
 800b4e8:	4333      	orrs	r3, r6
 800b4ea:	f000 8592 	beq.w	800c012 <_dtoa_r+0xbb2>
 800b4ee:	9b21      	ldr	r3, [sp, #132]	; 0x84
 800b4f0:	b963      	cbnz	r3, 800b50c <_dtoa_r+0xac>
 800b4f2:	4b92      	ldr	r3, [pc, #584]	; (800b73c <_dtoa_r+0x2dc>)
 800b4f4:	e022      	b.n	800b53c <_dtoa_r+0xdc>
 800b4f6:	4b92      	ldr	r3, [pc, #584]	; (800b740 <_dtoa_r+0x2e0>)
 800b4f8:	9301      	str	r3, [sp, #4]
 800b4fa:	3308      	adds	r3, #8
 800b4fc:	9a21      	ldr	r2, [sp, #132]	; 0x84
 800b4fe:	6013      	str	r3, [r2, #0]
 800b500:	9801      	ldr	r0, [sp, #4]
 800b502:	b013      	add	sp, #76	; 0x4c
 800b504:	ecbd 8b04 	vpop	{d8-d9}
 800b508:	e8bd 8ff0 	ldmia.w	sp!, {r4, r5, r6, r7, r8, r9, sl, fp, pc}
 800b50c:	4b8b      	ldr	r3, [pc, #556]	; (800b73c <_dtoa_r+0x2dc>)
 800b50e:	9301      	str	r3, [sp, #4]
 800b510:	3303      	adds	r3, #3
 800b512:	e7f3      	b.n	800b4fc <_dtoa_r+0x9c>
 800b514:	2200      	movs	r2, #0
 800b516:	2300      	movs	r3, #0
 800b518:	4650      	mov	r0, sl
 800b51a:	4659      	mov	r1, fp
 800b51c:	f7f5 fad4 	bl	8000ac8 <__aeabi_dcmpeq>
 800b520:	ec4b ab19 	vmov	d9, sl, fp
 800b524:	4680      	mov	r8, r0
 800b526:	b158      	cbz	r0, 800b540 <_dtoa_r+0xe0>
 800b528:	9a0c      	ldr	r2, [sp, #48]	; 0x30
 800b52a:	2301      	movs	r3, #1
 800b52c:	6013      	str	r3, [r2, #0]
 800b52e:	9b21      	ldr	r3, [sp, #132]	; 0x84
 800b530:	2b00      	cmp	r3, #0
 800b532:	f000 856b 	beq.w	800c00c <_dtoa_r+0xbac>
 800b536:	4883      	ldr	r0, [pc, #524]	; (800b744 <_dtoa_r+0x2e4>)
 800b538:	6018      	str	r0, [r3, #0]
 800b53a:	1e43      	subs	r3, r0, #1
 800b53c:	9301      	str	r3, [sp, #4]
 800b53e:	e7df      	b.n	800b500 <_dtoa_r+0xa0>
 800b540:	ec4b ab10 	vmov	d0, sl, fp
 800b544:	aa10      	add	r2, sp, #64	; 0x40
 800b546:	a911      	add	r1, sp, #68	; 0x44
 800b548:	4620      	mov	r0, r4
 800b54a:	f001 fcf3 	bl	800cf34 <__d2b>
 800b54e:	f3cb 550a 	ubfx	r5, fp, #20, #11
 800b552:	ee08 0a10 	vmov	s16, r0
 800b556:	2d00      	cmp	r5, #0
 800b558:	f000 8084 	beq.w	800b664 <_dtoa_r+0x204>
 800b55c:	ee19 3a90 	vmov	r3, s19
 800b560:	f3c3 0313 	ubfx	r3, r3, #0, #20
 800b564:	f043 577f 	orr.w	r7, r3, #1069547520	; 0x3fc00000
 800b568:	4656      	mov	r6, sl
 800b56a:	f447 1740 	orr.w	r7, r7, #3145728	; 0x300000
 800b56e:	f2a5 35ff 	subw	r5, r5, #1023	; 0x3ff
 800b572:	f8cd 8038 	str.w	r8, [sp, #56]	; 0x38
 800b576:	4b74      	ldr	r3, [pc, #464]	; (800b748 <_dtoa_r+0x2e8>)
 800b578:	2200      	movs	r2, #0
 800b57a:	4630      	mov	r0, r6
 800b57c:	4639      	mov	r1, r7
 800b57e:	f7f4 fe83 	bl	8000288 <__aeabi_dsub>
 800b582:	a365      	add	r3, pc, #404	; (adr r3, 800b718 <_dtoa_r+0x2b8>)
 800b584:	e9d3 2300 	ldrd	r2, r3, [r3]
 800b588:	f7f5 f836 	bl	80005f8 <__aeabi_dmul>
 800b58c:	a364      	add	r3, pc, #400	; (adr r3, 800b720 <_dtoa_r+0x2c0>)
 800b58e:	e9d3 2300 	ldrd	r2, r3, [r3]
 800b592:	f7f4 fe7b 	bl	800028c <__adddf3>
 800b596:	4606      	mov	r6, r0
 800b598:	4628      	mov	r0, r5
 800b59a:	460f      	mov	r7, r1
 800b59c:	f7f4 ffc2 	bl	8000524 <__aeabi_i2d>
 800b5a0:	a361      	add	r3, pc, #388	; (adr r3, 800b728 <_dtoa_r+0x2c8>)
 800b5a2:	e9d3 2300 	ldrd	r2, r3, [r3]
 800b5a6:	f7f5 f827 	bl	80005f8 <__aeabi_dmul>
 800b5aa:	4602      	mov	r2, r0
 800b5ac:	460b      	mov	r3, r1
 800b5ae:	4630      	mov	r0, r6
 800b5b0:	4639      	mov	r1, r7
 800b5b2:	f7f4 fe6b 	bl	800028c <__adddf3>
 800b5b6:	4606      	mov	r6, r0
 800b5b8:	460f      	mov	r7, r1
 800b5ba:	f7f5 facd 	bl	8000b58 <__aeabi_d2iz>
 800b5be:	2200      	movs	r2, #0
 800b5c0:	9000      	str	r0, [sp, #0]
 800b5c2:	2300      	movs	r3, #0
 800b5c4:	4630      	mov	r0, r6
 800b5c6:	4639      	mov	r1, r7
 800b5c8:	f7f5 fa88 	bl	8000adc <__aeabi_dcmplt>
 800b5cc:	b150      	cbz	r0, 800b5e4 <_dtoa_r+0x184>
 800b5ce:	9800      	ldr	r0, [sp, #0]
 800b5d0:	f7f4 ffa8 	bl	8000524 <__aeabi_i2d>
 800b5d4:	4632      	mov	r2, r6
 800b5d6:	463b      	mov	r3, r7
 800b5d8:	f7f5 fa76 	bl	8000ac8 <__aeabi_dcmpeq>
 800b5dc:	b910      	cbnz	r0, 800b5e4 <_dtoa_r+0x184>
 800b5de:	9b00      	ldr	r3, [sp, #0]
 800b5e0:	3b01      	subs	r3, #1
 800b5e2:	9300      	str	r3, [sp, #0]
 800b5e4:	9b00      	ldr	r3, [sp, #0]
 800b5e6:	2b16      	cmp	r3, #22
 800b5e8:	d85a      	bhi.n	800b6a0 <_dtoa_r+0x240>
 800b5ea:	9a00      	ldr	r2, [sp, #0]
 800b5ec:	4b57      	ldr	r3, [pc, #348]	; (800b74c <_dtoa_r+0x2ec>)
 800b5ee:	eb03 03c2 	add.w	r3, r3, r2, lsl #3
 800b5f2:	e9d3 2300 	ldrd	r2, r3, [r3]
 800b5f6:	ec51 0b19 	vmov	r0, r1, d9
 800b5fa:	f7f5 fa6f 	bl	8000adc <__aeabi_dcmplt>
 800b5fe:	2800      	cmp	r0, #0
 800b600:	d050      	beq.n	800b6a4 <_dtoa_r+0x244>
 800b602:	9b00      	ldr	r3, [sp, #0]
 800b604:	3b01      	subs	r3, #1
 800b606:	9300      	str	r3, [sp, #0]
 800b608:	2300      	movs	r3, #0
 800b60a:	930b      	str	r3, [sp, #44]	; 0x2c
 800b60c:	9b10      	ldr	r3, [sp, #64]	; 0x40
 800b60e:	1b5d      	subs	r5, r3, r5
 800b610:	1e6b      	subs	r3, r5, #1
 800b612:	9305      	str	r3, [sp, #20]
 800b614:	bf45      	ittet	mi
 800b616:	f1c5 0301 	rsbmi	r3, r5, #1
 800b61a:	9304      	strmi	r3, [sp, #16]
 800b61c:	2300      	movpl	r3, #0
 800b61e:	2300      	movmi	r3, #0
 800b620:	bf4c      	ite	mi
 800b622:	9305      	strmi	r3, [sp, #20]
 800b624:	9304      	strpl	r3, [sp, #16]
 800b626:	9b00      	ldr	r3, [sp, #0]
 800b628:	2b00      	cmp	r3, #0
 800b62a:	db3d      	blt.n	800b6a8 <_dtoa_r+0x248>
 800b62c:	9b05      	ldr	r3, [sp, #20]
 800b62e:	9a00      	ldr	r2, [sp, #0]
 800b630:	920a      	str	r2, [sp, #40]	; 0x28
 800b632:	4413      	add	r3, r2
 800b634:	9305      	str	r3, [sp, #20]
 800b636:	2300      	movs	r3, #0
 800b638:	9307      	str	r3, [sp, #28]
 800b63a:	9b06      	ldr	r3, [sp, #24]
 800b63c:	2b09      	cmp	r3, #9
 800b63e:	f200 8089 	bhi.w	800b754 <_dtoa_r+0x2f4>
 800b642:	2b05      	cmp	r3, #5
 800b644:	bfc4      	itt	gt
 800b646:	3b04      	subgt	r3, #4
 800b648:	9306      	strgt	r3, [sp, #24]
 800b64a:	9b06      	ldr	r3, [sp, #24]
 800b64c:	f1a3 0302 	sub.w	r3, r3, #2
 800b650:	bfcc      	ite	gt
 800b652:	2500      	movgt	r5, #0
 800b654:	2501      	movle	r5, #1
 800b656:	2b03      	cmp	r3, #3
 800b658:	f200 8087 	bhi.w	800b76a <_dtoa_r+0x30a>
 800b65c:	e8df f003 	tbb	[pc, r3]
 800b660:	59383a2d 	.word	0x59383a2d
 800b664:	e9dd 5310 	ldrd	r5, r3, [sp, #64]	; 0x40
 800b668:	441d      	add	r5, r3
 800b66a:	f205 4332 	addw	r3, r5, #1074	; 0x432
 800b66e:	2b20      	cmp	r3, #32
 800b670:	bfc1      	itttt	gt
 800b672:	f1c3 0340 	rsbgt	r3, r3, #64	; 0x40
 800b676:	f205 4012 	addwgt	r0, r5, #1042	; 0x412
 800b67a:	fa0b f303 	lslgt.w	r3, fp, r3
 800b67e:	fa26 f000 	lsrgt.w	r0, r6, r0
 800b682:	bfda      	itte	le
 800b684:	f1c3 0320 	rsble	r3, r3, #32
 800b688:	fa06 f003 	lslle.w	r0, r6, r3
 800b68c:	4318      	orrgt	r0, r3
 800b68e:	f7f4 ff39 	bl	8000504 <__aeabi_ui2d>
 800b692:	2301      	movs	r3, #1
 800b694:	4606      	mov	r6, r0
 800b696:	f1a1 77f8 	sub.w	r7, r1, #32505856	; 0x1f00000
 800b69a:	3d01      	subs	r5, #1
 800b69c:	930e      	str	r3, [sp, #56]	; 0x38
 800b69e:	e76a      	b.n	800b576 <_dtoa_r+0x116>
 800b6a0:	2301      	movs	r3, #1
 800b6a2:	e7b2      	b.n	800b60a <_dtoa_r+0x1aa>
 800b6a4:	900b      	str	r0, [sp, #44]	; 0x2c
 800b6a6:	e7b1      	b.n	800b60c <_dtoa_r+0x1ac>
 800b6a8:	9b04      	ldr	r3, [sp, #16]
 800b6aa:	9a00      	ldr	r2, [sp, #0]
 800b6ac:	1a9b      	subs	r3, r3, r2
 800b6ae:	9304      	str	r3, [sp, #16]
 800b6b0:	4253      	negs	r3, r2
 800b6b2:	9307      	str	r3, [sp, #28]
 800b6b4:	2300      	movs	r3, #0
 800b6b6:	930a      	str	r3, [sp, #40]	; 0x28
 800b6b8:	e7bf      	b.n	800b63a <_dtoa_r+0x1da>
 800b6ba:	2300      	movs	r3, #0
 800b6bc:	9308      	str	r3, [sp, #32]
 800b6be:	9b09      	ldr	r3, [sp, #36]	; 0x24
 800b6c0:	2b00      	cmp	r3, #0
 800b6c2:	dc55      	bgt.n	800b770 <_dtoa_r+0x310>
 800b6c4:	2301      	movs	r3, #1
 800b6c6:	e9cd 3302 	strd	r3, r3, [sp, #8]
 800b6ca:	461a      	mov	r2, r3
 800b6cc:	9209      	str	r2, [sp, #36]	; 0x24
 800b6ce:	e00c      	b.n	800b6ea <_dtoa_r+0x28a>
 800b6d0:	2301      	movs	r3, #1
 800b6d2:	e7f3      	b.n	800b6bc <_dtoa_r+0x25c>
 800b6d4:	2300      	movs	r3, #0
 800b6d6:	9a09      	ldr	r2, [sp, #36]	; 0x24
 800b6d8:	9308      	str	r3, [sp, #32]
 800b6da:	9b00      	ldr	r3, [sp, #0]
 800b6dc:	4413      	add	r3, r2
 800b6de:	9302      	str	r3, [sp, #8]
 800b6e0:	3301      	adds	r3, #1
 800b6e2:	2b01      	cmp	r3, #1
 800b6e4:	9303      	str	r3, [sp, #12]
 800b6e6:	bfb8      	it	lt
 800b6e8:	2301      	movlt	r3, #1
 800b6ea:	6a60      	ldr	r0, [r4, #36]	; 0x24
 800b6ec:	2200      	movs	r2, #0
 800b6ee:	6042      	str	r2, [r0, #4]
 800b6f0:	2204      	movs	r2, #4
 800b6f2:	f102 0614 	add.w	r6, r2, #20
 800b6f6:	429e      	cmp	r6, r3
 800b6f8:	6841      	ldr	r1, [r0, #4]
 800b6fa:	d93d      	bls.n	800b778 <_dtoa_r+0x318>
 800b6fc:	4620      	mov	r0, r4
 800b6fe:	f001 f82b 	bl	800c758 <_Balloc>
 800b702:	9001      	str	r0, [sp, #4]
 800b704:	2800      	cmp	r0, #0
 800b706:	d13b      	bne.n	800b780 <_dtoa_r+0x320>
 800b708:	4b11      	ldr	r3, [pc, #68]	; (800b750 <_dtoa_r+0x2f0>)
 800b70a:	4602      	mov	r2, r0
 800b70c:	f44f 71d5 	mov.w	r1, #426	; 0x1aa
 800b710:	e6c0      	b.n	800b494 <_dtoa_r+0x34>
 800b712:	2301      	movs	r3, #1
 800b714:	e7df      	b.n	800b6d6 <_dtoa_r+0x276>
 800b716:	bf00      	nop
 800b718:	636f4361 	.word	0x636f4361
 800b71c:	3fd287a7 	.word	0x3fd287a7
 800b720:	8b60c8b3 	.word	0x8b60c8b3
 800b724:	3fc68a28 	.word	0x3fc68a28
 800b728:	509f79fb 	.word	0x509f79fb
 800b72c:	3fd34413 	.word	0x3fd34413
 800b730:	0800eeae 	.word	0x0800eeae
 800b734:	0800eec5 	.word	0x0800eec5
 800b738:	7ff00000 	.word	0x7ff00000
 800b73c:	0800eeaa 	.word	0x0800eeaa
 800b740:	0800eea1 	.word	0x0800eea1
 800b744:	0800ed25 	.word	0x0800ed25
 800b748:	3ff80000 	.word	0x3ff80000
 800b74c:	0800f030 	.word	0x0800f030
 800b750:	0800ef20 	.word	0x0800ef20
 800b754:	2501      	movs	r5, #1
 800b756:	2300      	movs	r3, #0
 800b758:	9306      	str	r3, [sp, #24]
 800b75a:	9508      	str	r5, [sp, #32]
 800b75c:	f04f 33ff 	mov.w	r3, #4294967295
 800b760:	e9cd 3302 	strd	r3, r3, [sp, #8]
 800b764:	2200      	movs	r2, #0
 800b766:	2312      	movs	r3, #18
 800b768:	e7b0      	b.n	800b6cc <_dtoa_r+0x26c>
 800b76a:	2301      	movs	r3, #1
 800b76c:	9308      	str	r3, [sp, #32]
 800b76e:	e7f5      	b.n	800b75c <_dtoa_r+0x2fc>
 800b770:	9b09      	ldr	r3, [sp, #36]	; 0x24
 800b772:	e9cd 3302 	strd	r3, r3, [sp, #8]
 800b776:	e7b8      	b.n	800b6ea <_dtoa_r+0x28a>
 800b778:	3101      	adds	r1, #1
 800b77a:	6041      	str	r1, [r0, #4]
 800b77c:	0052      	lsls	r2, r2, #1
 800b77e:	e7b8      	b.n	800b6f2 <_dtoa_r+0x292>
 800b780:	6a63      	ldr	r3, [r4, #36]	; 0x24
 800b782:	9a01      	ldr	r2, [sp, #4]
 800b784:	601a      	str	r2, [r3, #0]
 800b786:	9b03      	ldr	r3, [sp, #12]
 800b788:	2b0e      	cmp	r3, #14
 800b78a:	f200 809d 	bhi.w	800b8c8 <_dtoa_r+0x468>
 800b78e:	2d00      	cmp	r5, #0
 800b790:	f000 809a 	beq.w	800b8c8 <_dtoa_r+0x468>
 800b794:	9b00      	ldr	r3, [sp, #0]
 800b796:	2b00      	cmp	r3, #0
 800b798:	dd32      	ble.n	800b800 <_dtoa_r+0x3a0>
 800b79a:	4ab7      	ldr	r2, [pc, #732]	; (800ba78 <_dtoa_r+0x618>)
 800b79c:	f003 030f 	and.w	r3, r3, #15
 800b7a0:	eb02 03c3 	add.w	r3, r2, r3, lsl #3
 800b7a4:	e9d3 8900 	ldrd	r8, r9, [r3]
 800b7a8:	9b00      	ldr	r3, [sp, #0]
 800b7aa:	05d8      	lsls	r0, r3, #23
 800b7ac:	ea4f 1723 	mov.w	r7, r3, asr #4
 800b7b0:	d516      	bpl.n	800b7e0 <_dtoa_r+0x380>
 800b7b2:	4bb2      	ldr	r3, [pc, #712]	; (800ba7c <_dtoa_r+0x61c>)
 800b7b4:	ec51 0b19 	vmov	r0, r1, d9
 800b7b8:	e9d3 2308 	ldrd	r2, r3, [r3, #32]
 800b7bc:	f7f5 f846 	bl	800084c <__aeabi_ddiv>
 800b7c0:	f007 070f 	and.w	r7, r7, #15
 800b7c4:	4682      	mov	sl, r0
 800b7c6:	468b      	mov	fp, r1
 800b7c8:	2503      	movs	r5, #3
 800b7ca:	4eac      	ldr	r6, [pc, #688]	; (800ba7c <_dtoa_r+0x61c>)
 800b7cc:	b957      	cbnz	r7, 800b7e4 <_dtoa_r+0x384>
 800b7ce:	4642      	mov	r2, r8
 800b7d0:	464b      	mov	r3, r9
 800b7d2:	4650      	mov	r0, sl
 800b7d4:	4659      	mov	r1, fp
 800b7d6:	f7f5 f839 	bl	800084c <__aeabi_ddiv>
 800b7da:	4682      	mov	sl, r0
 800b7dc:	468b      	mov	fp, r1
 800b7de:	e028      	b.n	800b832 <_dtoa_r+0x3d2>
 800b7e0:	2502      	movs	r5, #2
 800b7e2:	e7f2      	b.n	800b7ca <_dtoa_r+0x36a>
 800b7e4:	07f9      	lsls	r1, r7, #31
 800b7e6:	d508      	bpl.n	800b7fa <_dtoa_r+0x39a>
 800b7e8:	4640      	mov	r0, r8
 800b7ea:	4649      	mov	r1, r9
 800b7ec:	e9d6 2300 	ldrd	r2, r3, [r6]
 800b7f0:	f7f4 ff02 	bl	80005f8 <__aeabi_dmul>
 800b7f4:	3501      	adds	r5, #1
 800b7f6:	4680      	mov	r8, r0
 800b7f8:	4689      	mov	r9, r1
 800b7fa:	107f      	asrs	r7, r7, #1
 800b7fc:	3608      	adds	r6, #8
 800b7fe:	e7e5      	b.n	800b7cc <_dtoa_r+0x36c>
 800b800:	f000 809b 	beq.w	800b93a <_dtoa_r+0x4da>
 800b804:	9b00      	ldr	r3, [sp, #0]
 800b806:	4f9d      	ldr	r7, [pc, #628]	; (800ba7c <_dtoa_r+0x61c>)
 800b808:	425e      	negs	r6, r3
 800b80a:	4b9b      	ldr	r3, [pc, #620]	; (800ba78 <_dtoa_r+0x618>)
 800b80c:	f006 020f 	and.w	r2, r6, #15
 800b810:	eb03 03c2 	add.w	r3, r3, r2, lsl #3
 800b814:	e9d3 2300 	ldrd	r2, r3, [r3]
 800b818:	ec51 0b19 	vmov	r0, r1, d9
 800b81c:	f7f4 feec 	bl	80005f8 <__aeabi_dmul>
 800b820:	1136      	asrs	r6, r6, #4
 800b822:	4682      	mov	sl, r0
 800b824:	468b      	mov	fp, r1
 800b826:	2300      	movs	r3, #0
 800b828:	2502      	movs	r5, #2
 800b82a:	2e00      	cmp	r6, #0
 800b82c:	d17a      	bne.n	800b924 <_dtoa_r+0x4c4>
 800b82e:	2b00      	cmp	r3, #0
 800b830:	d1d3      	bne.n	800b7da <_dtoa_r+0x37a>
 800b832:	9b0b      	ldr	r3, [sp, #44]	; 0x2c
 800b834:	2b00      	cmp	r3, #0
 800b836:	f000 8082 	beq.w	800b93e <_dtoa_r+0x4de>
 800b83a:	4b91      	ldr	r3, [pc, #580]	; (800ba80 <_dtoa_r+0x620>)
 800b83c:	2200      	movs	r2, #0
 800b83e:	4650      	mov	r0, sl
 800b840:	4659      	mov	r1, fp
 800b842:	f7f5 f94b 	bl	8000adc <__aeabi_dcmplt>
 800b846:	2800      	cmp	r0, #0
 800b848:	d079      	beq.n	800b93e <_dtoa_r+0x4de>
 800b84a:	9b03      	ldr	r3, [sp, #12]
 800b84c:	2b00      	cmp	r3, #0
 800b84e:	d076      	beq.n	800b93e <_dtoa_r+0x4de>
 800b850:	9b02      	ldr	r3, [sp, #8]
 800b852:	2b00      	cmp	r3, #0
 800b854:	dd36      	ble.n	800b8c4 <_dtoa_r+0x464>
 800b856:	9b00      	ldr	r3, [sp, #0]
 800b858:	4650      	mov	r0, sl
 800b85a:	4659      	mov	r1, fp
 800b85c:	1e5f      	subs	r7, r3, #1
 800b85e:	2200      	movs	r2, #0
 800b860:	4b88      	ldr	r3, [pc, #544]	; (800ba84 <_dtoa_r+0x624>)
 800b862:	f7f4 fec9 	bl	80005f8 <__aeabi_dmul>
 800b866:	9e02      	ldr	r6, [sp, #8]
 800b868:	4682      	mov	sl, r0
 800b86a:	468b      	mov	fp, r1
 800b86c:	3501      	adds	r5, #1
 800b86e:	4628      	mov	r0, r5
 800b870:	f7f4 fe58 	bl	8000524 <__aeabi_i2d>
 800b874:	4652      	mov	r2, sl
 800b876:	465b      	mov	r3, fp
 800b878:	f7f4 febe 	bl	80005f8 <__aeabi_dmul>
 800b87c:	4b82      	ldr	r3, [pc, #520]	; (800ba88 <_dtoa_r+0x628>)
 800b87e:	2200      	movs	r2, #0
 800b880:	f7f4 fd04 	bl	800028c <__adddf3>
 800b884:	46d0      	mov	r8, sl
 800b886:	46d9      	mov	r9, fp
 800b888:	4682      	mov	sl, r0
 800b88a:	f1a1 7b50 	sub.w	fp, r1, #54525952	; 0x3400000
 800b88e:	2e00      	cmp	r6, #0
 800b890:	d158      	bne.n	800b944 <_dtoa_r+0x4e4>
 800b892:	4b7e      	ldr	r3, [pc, #504]	; (800ba8c <_dtoa_r+0x62c>)
 800b894:	2200      	movs	r2, #0
 800b896:	4640      	mov	r0, r8
 800b898:	4649      	mov	r1, r9
 800b89a:	f7f4 fcf5 	bl	8000288 <__aeabi_dsub>
 800b89e:	4652      	mov	r2, sl
 800b8a0:	465b      	mov	r3, fp
 800b8a2:	4680      	mov	r8, r0
 800b8a4:	4689      	mov	r9, r1
 800b8a6:	f7f5 f937 	bl	8000b18 <__aeabi_dcmpgt>
 800b8aa:	2800      	cmp	r0, #0
 800b8ac:	f040 8295 	bne.w	800bdda <_dtoa_r+0x97a>
 800b8b0:	4652      	mov	r2, sl
 800b8b2:	f10b 4300 	add.w	r3, fp, #2147483648	; 0x80000000
 800b8b6:	4640      	mov	r0, r8
 800b8b8:	4649      	mov	r1, r9
 800b8ba:	f7f5 f90f 	bl	8000adc <__aeabi_dcmplt>
 800b8be:	2800      	cmp	r0, #0
 800b8c0:	f040 8289 	bne.w	800bdd6 <_dtoa_r+0x976>
 800b8c4:	ec5b ab19 	vmov	sl, fp, d9
 800b8c8:	9b11      	ldr	r3, [sp, #68]	; 0x44
 800b8ca:	2b00      	cmp	r3, #0
 800b8cc:	f2c0 8148 	blt.w	800bb60 <_dtoa_r+0x700>
 800b8d0:	9a00      	ldr	r2, [sp, #0]
 800b8d2:	2a0e      	cmp	r2, #14
 800b8d4:	f300 8144 	bgt.w	800bb60 <_dtoa_r+0x700>
 800b8d8:	4b67      	ldr	r3, [pc, #412]	; (800ba78 <_dtoa_r+0x618>)
 800b8da:	eb03 03c2 	add.w	r3, r3, r2, lsl #3
 800b8de:	e9d3 8900 	ldrd	r8, r9, [r3]
 800b8e2:	9b09      	ldr	r3, [sp, #36]	; 0x24
 800b8e4:	2b00      	cmp	r3, #0
 800b8e6:	f280 80d5 	bge.w	800ba94 <_dtoa_r+0x634>
 800b8ea:	9b03      	ldr	r3, [sp, #12]
 800b8ec:	2b00      	cmp	r3, #0
 800b8ee:	f300 80d1 	bgt.w	800ba94 <_dtoa_r+0x634>
 800b8f2:	f040 826f 	bne.w	800bdd4 <_dtoa_r+0x974>
 800b8f6:	4b65      	ldr	r3, [pc, #404]	; (800ba8c <_dtoa_r+0x62c>)
 800b8f8:	2200      	movs	r2, #0
 800b8fa:	4640      	mov	r0, r8
 800b8fc:	4649      	mov	r1, r9
 800b8fe:	f7f4 fe7b 	bl	80005f8 <__aeabi_dmul>
 800b902:	4652      	mov	r2, sl
 800b904:	465b      	mov	r3, fp
 800b906:	f7f5 f8fd 	bl	8000b04 <__aeabi_dcmpge>
 800b90a:	9e03      	ldr	r6, [sp, #12]
 800b90c:	4637      	mov	r7, r6
 800b90e:	2800      	cmp	r0, #0
 800b910:	f040 8245 	bne.w	800bd9e <_dtoa_r+0x93e>
 800b914:	9d01      	ldr	r5, [sp, #4]
 800b916:	2331      	movs	r3, #49	; 0x31
 800b918:	f805 3b01 	strb.w	r3, [r5], #1
 800b91c:	9b00      	ldr	r3, [sp, #0]
 800b91e:	3301      	adds	r3, #1
 800b920:	9300      	str	r3, [sp, #0]
 800b922:	e240      	b.n	800bda6 <_dtoa_r+0x946>
 800b924:	07f2      	lsls	r2, r6, #31
 800b926:	d505      	bpl.n	800b934 <_dtoa_r+0x4d4>
 800b928:	e9d7 2300 	ldrd	r2, r3, [r7]
 800b92c:	f7f4 fe64 	bl	80005f8 <__aeabi_dmul>
 800b930:	3501      	adds	r5, #1
 800b932:	2301      	movs	r3, #1
 800b934:	1076      	asrs	r6, r6, #1
 800b936:	3708      	adds	r7, #8
 800b938:	e777      	b.n	800b82a <_dtoa_r+0x3ca>
 800b93a:	2502      	movs	r5, #2
 800b93c:	e779      	b.n	800b832 <_dtoa_r+0x3d2>
 800b93e:	9f00      	ldr	r7, [sp, #0]
 800b940:	9e03      	ldr	r6, [sp, #12]
 800b942:	e794      	b.n	800b86e <_dtoa_r+0x40e>
 800b944:	9901      	ldr	r1, [sp, #4]
 800b946:	4b4c      	ldr	r3, [pc, #304]	; (800ba78 <_dtoa_r+0x618>)
 800b948:	4431      	add	r1, r6
 800b94a:	910d      	str	r1, [sp, #52]	; 0x34
 800b94c:	9908      	ldr	r1, [sp, #32]
 800b94e:	eb03 03c6 	add.w	r3, r3, r6, lsl #3
 800b952:	e953 2302 	ldrd	r2, r3, [r3, #-8]
 800b956:	2900      	cmp	r1, #0
 800b958:	d043      	beq.n	800b9e2 <_dtoa_r+0x582>
 800b95a:	494d      	ldr	r1, [pc, #308]	; (800ba90 <_dtoa_r+0x630>)
 800b95c:	2000      	movs	r0, #0
 800b95e:	f7f4 ff75 	bl	800084c <__aeabi_ddiv>
 800b962:	4652      	mov	r2, sl
 800b964:	465b      	mov	r3, fp
 800b966:	f7f4 fc8f 	bl	8000288 <__aeabi_dsub>
 800b96a:	9d01      	ldr	r5, [sp, #4]
 800b96c:	4682      	mov	sl, r0
 800b96e:	468b      	mov	fp, r1
 800b970:	4649      	mov	r1, r9
 800b972:	4640      	mov	r0, r8
 800b974:	f7f5 f8f0 	bl	8000b58 <__aeabi_d2iz>
 800b978:	4606      	mov	r6, r0
 800b97a:	f7f4 fdd3 	bl	8000524 <__aeabi_i2d>
 800b97e:	4602      	mov	r2, r0
 800b980:	460b      	mov	r3, r1
 800b982:	4640      	mov	r0, r8
 800b984:	4649      	mov	r1, r9
 800b986:	f7f4 fc7f 	bl	8000288 <__aeabi_dsub>
 800b98a:	3630      	adds	r6, #48	; 0x30
 800b98c:	f805 6b01 	strb.w	r6, [r5], #1
 800b990:	4652      	mov	r2, sl
 800b992:	465b      	mov	r3, fp
 800b994:	4680      	mov	r8, r0
 800b996:	4689      	mov	r9, r1
 800b998:	f7f5 f8a0 	bl	8000adc <__aeabi_dcmplt>
 800b99c:	2800      	cmp	r0, #0
 800b99e:	d163      	bne.n	800ba68 <_dtoa_r+0x608>
 800b9a0:	4642      	mov	r2, r8
 800b9a2:	464b      	mov	r3, r9
 800b9a4:	4936      	ldr	r1, [pc, #216]	; (800ba80 <_dtoa_r+0x620>)
 800b9a6:	2000      	movs	r0, #0
 800b9a8:	f7f4 fc6e 	bl	8000288 <__aeabi_dsub>
 800b9ac:	4652      	mov	r2, sl
 800b9ae:	465b      	mov	r3, fp
 800b9b0:	f7f5 f894 	bl	8000adc <__aeabi_dcmplt>
 800b9b4:	2800      	cmp	r0, #0
 800b9b6:	f040 80b5 	bne.w	800bb24 <_dtoa_r+0x6c4>
 800b9ba:	9b0d      	ldr	r3, [sp, #52]	; 0x34
 800b9bc:	429d      	cmp	r5, r3
 800b9be:	d081      	beq.n	800b8c4 <_dtoa_r+0x464>
 800b9c0:	4b30      	ldr	r3, [pc, #192]	; (800ba84 <_dtoa_r+0x624>)
 800b9c2:	2200      	movs	r2, #0
 800b9c4:	4650      	mov	r0, sl
 800b9c6:	4659      	mov	r1, fp
 800b9c8:	f7f4 fe16 	bl	80005f8 <__aeabi_dmul>
 800b9cc:	4b2d      	ldr	r3, [pc, #180]	; (800ba84 <_dtoa_r+0x624>)
 800b9ce:	4682      	mov	sl, r0
 800b9d0:	468b      	mov	fp, r1
 800b9d2:	4640      	mov	r0, r8
 800b9d4:	4649      	mov	r1, r9
 800b9d6:	2200      	movs	r2, #0
 800b9d8:	f7f4 fe0e 	bl	80005f8 <__aeabi_dmul>
 800b9dc:	4680      	mov	r8, r0
 800b9de:	4689      	mov	r9, r1
 800b9e0:	e7c6      	b.n	800b970 <_dtoa_r+0x510>
 800b9e2:	4650      	mov	r0, sl
 800b9e4:	4659      	mov	r1, fp
 800b9e6:	f7f4 fe07 	bl	80005f8 <__aeabi_dmul>
 800b9ea:	9b0d      	ldr	r3, [sp, #52]	; 0x34
 800b9ec:	9d01      	ldr	r5, [sp, #4]
 800b9ee:	930f      	str	r3, [sp, #60]	; 0x3c
 800b9f0:	4682      	mov	sl, r0
 800b9f2:	468b      	mov	fp, r1
 800b9f4:	4649      	mov	r1, r9
 800b9f6:	4640      	mov	r0, r8
 800b9f8:	f7f5 f8ae 	bl	8000b58 <__aeabi_d2iz>
 800b9fc:	4606      	mov	r6, r0
 800b9fe:	f7f4 fd91 	bl	8000524 <__aeabi_i2d>
 800ba02:	3630      	adds	r6, #48	; 0x30
 800ba04:	4602      	mov	r2, r0
 800ba06:	460b      	mov	r3, r1
 800ba08:	4640      	mov	r0, r8
 800ba0a:	4649      	mov	r1, r9
 800ba0c:	f7f4 fc3c 	bl	8000288 <__aeabi_dsub>
 800ba10:	f805 6b01 	strb.w	r6, [r5], #1
 800ba14:	9b0d      	ldr	r3, [sp, #52]	; 0x34
 800ba16:	429d      	cmp	r5, r3
 800ba18:	4680      	mov	r8, r0
 800ba1a:	4689      	mov	r9, r1
 800ba1c:	f04f 0200 	mov.w	r2, #0
 800ba20:	d124      	bne.n	800ba6c <_dtoa_r+0x60c>
 800ba22:	4b1b      	ldr	r3, [pc, #108]	; (800ba90 <_dtoa_r+0x630>)
 800ba24:	4650      	mov	r0, sl
 800ba26:	4659      	mov	r1, fp
 800ba28:	f7f4 fc30 	bl	800028c <__adddf3>
 800ba2c:	4602      	mov	r2, r0
 800ba2e:	460b      	mov	r3, r1
 800ba30:	4640      	mov	r0, r8
 800ba32:	4649      	mov	r1, r9
 800ba34:	f7f5 f870 	bl	8000b18 <__aeabi_dcmpgt>
 800ba38:	2800      	cmp	r0, #0
 800ba3a:	d173      	bne.n	800bb24 <_dtoa_r+0x6c4>
 800ba3c:	4652      	mov	r2, sl
 800ba3e:	465b      	mov	r3, fp
 800ba40:	4913      	ldr	r1, [pc, #76]	; (800ba90 <_dtoa_r+0x630>)
 800ba42:	2000      	movs	r0, #0
 800ba44:	f7f4 fc20 	bl	8000288 <__aeabi_dsub>
 800ba48:	4602      	mov	r2, r0
 800ba4a:	460b      	mov	r3, r1
 800ba4c:	4640      	mov	r0, r8
 800ba4e:	4649      	mov	r1, r9
 800ba50:	f7f5 f844 	bl	8000adc <__aeabi_dcmplt>
 800ba54:	2800      	cmp	r0, #0
 800ba56:	f43f af35 	beq.w	800b8c4 <_dtoa_r+0x464>
 800ba5a:	9d0f      	ldr	r5, [sp, #60]	; 0x3c
 800ba5c:	1e6b      	subs	r3, r5, #1
 800ba5e:	930f      	str	r3, [sp, #60]	; 0x3c
 800ba60:	f815 3c01 	ldrb.w	r3, [r5, #-1]
 800ba64:	2b30      	cmp	r3, #48	; 0x30
 800ba66:	d0f8      	beq.n	800ba5a <_dtoa_r+0x5fa>
 800ba68:	9700      	str	r7, [sp, #0]
 800ba6a:	e049      	b.n	800bb00 <_dtoa_r+0x6a0>
 800ba6c:	4b05      	ldr	r3, [pc, #20]	; (800ba84 <_dtoa_r+0x624>)
 800ba6e:	f7f4 fdc3 	bl	80005f8 <__aeabi_dmul>
 800ba72:	4680      	mov	r8, r0
 800ba74:	4689      	mov	r9, r1
 800ba76:	e7bd      	b.n	800b9f4 <_dtoa_r+0x594>
 800ba78:	0800f030 	.word	0x0800f030
 800ba7c:	0800f008 	.word	0x0800f008
 800ba80:	3ff00000 	.word	0x3ff00000
 800ba84:	40240000 	.word	0x40240000
 800ba88:	401c0000 	.word	0x401c0000
 800ba8c:	40140000 	.word	0x40140000
 800ba90:	3fe00000 	.word	0x3fe00000
 800ba94:	9d01      	ldr	r5, [sp, #4]
 800ba96:	4656      	mov	r6, sl
 800ba98:	465f      	mov	r7, fp
 800ba9a:	4642      	mov	r2, r8
 800ba9c:	464b      	mov	r3, r9
 800ba9e:	4630      	mov	r0, r6
 800baa0:	4639      	mov	r1, r7
 800baa2:	f7f4 fed3 	bl	800084c <__aeabi_ddiv>
 800baa6:	f7f5 f857 	bl	8000b58 <__aeabi_d2iz>
 800baaa:	4682      	mov	sl, r0
 800baac:	f7f4 fd3a 	bl	8000524 <__aeabi_i2d>
 800bab0:	4642      	mov	r2, r8
 800bab2:	464b      	mov	r3, r9
 800bab4:	f7f4 fda0 	bl	80005f8 <__aeabi_dmul>
 800bab8:	4602      	mov	r2, r0
 800baba:	460b      	mov	r3, r1
 800babc:	4630      	mov	r0, r6
 800babe:	4639      	mov	r1, r7
 800bac0:	f10a 0630 	add.w	r6, sl, #48	; 0x30
 800bac4:	f7f4 fbe0 	bl	8000288 <__aeabi_dsub>
 800bac8:	f805 6b01 	strb.w	r6, [r5], #1
 800bacc:	9e01      	ldr	r6, [sp, #4]
 800bace:	9f03      	ldr	r7, [sp, #12]
 800bad0:	1bae      	subs	r6, r5, r6
 800bad2:	42b7      	cmp	r7, r6
 800bad4:	4602      	mov	r2, r0
 800bad6:	460b      	mov	r3, r1
 800bad8:	d135      	bne.n	800bb46 <_dtoa_r+0x6e6>
 800bada:	f7f4 fbd7 	bl	800028c <__adddf3>
 800bade:	4642      	mov	r2, r8
 800bae0:	464b      	mov	r3, r9
 800bae2:	4606      	mov	r6, r0
 800bae4:	460f      	mov	r7, r1
 800bae6:	f7f5 f817 	bl	8000b18 <__aeabi_dcmpgt>
 800baea:	b9d0      	cbnz	r0, 800bb22 <_dtoa_r+0x6c2>
 800baec:	4642      	mov	r2, r8
 800baee:	464b      	mov	r3, r9
 800baf0:	4630      	mov	r0, r6
 800baf2:	4639      	mov	r1, r7
 800baf4:	f7f4 ffe8 	bl	8000ac8 <__aeabi_dcmpeq>
 800baf8:	b110      	cbz	r0, 800bb00 <_dtoa_r+0x6a0>
 800bafa:	f01a 0f01 	tst.w	sl, #1
 800bafe:	d110      	bne.n	800bb22 <_dtoa_r+0x6c2>
 800bb00:	4620      	mov	r0, r4
 800bb02:	ee18 1a10 	vmov	r1, s16
 800bb06:	f000 fe67 	bl	800c7d8 <_Bfree>
 800bb0a:	2300      	movs	r3, #0
 800bb0c:	9800      	ldr	r0, [sp, #0]
 800bb0e:	702b      	strb	r3, [r5, #0]
 800bb10:	9b0c      	ldr	r3, [sp, #48]	; 0x30
 800bb12:	3001      	adds	r0, #1
 800bb14:	6018      	str	r0, [r3, #0]
 800bb16:	9b21      	ldr	r3, [sp, #132]	; 0x84
 800bb18:	2b00      	cmp	r3, #0
 800bb1a:	f43f acf1 	beq.w	800b500 <_dtoa_r+0xa0>
 800bb1e:	601d      	str	r5, [r3, #0]
 800bb20:	e4ee      	b.n	800b500 <_dtoa_r+0xa0>
 800bb22:	9f00      	ldr	r7, [sp, #0]
 800bb24:	462b      	mov	r3, r5
 800bb26:	461d      	mov	r5, r3
 800bb28:	f813 2d01 	ldrb.w	r2, [r3, #-1]!
 800bb2c:	2a39      	cmp	r2, #57	; 0x39
 800bb2e:	d106      	bne.n	800bb3e <_dtoa_r+0x6de>
 800bb30:	9a01      	ldr	r2, [sp, #4]
 800bb32:	429a      	cmp	r2, r3
 800bb34:	d1f7      	bne.n	800bb26 <_dtoa_r+0x6c6>
 800bb36:	9901      	ldr	r1, [sp, #4]
 800bb38:	2230      	movs	r2, #48	; 0x30
 800bb3a:	3701      	adds	r7, #1
 800bb3c:	700a      	strb	r2, [r1, #0]
 800bb3e:	781a      	ldrb	r2, [r3, #0]
 800bb40:	3201      	adds	r2, #1
 800bb42:	701a      	strb	r2, [r3, #0]
 800bb44:	e790      	b.n	800ba68 <_dtoa_r+0x608>
 800bb46:	4ba6      	ldr	r3, [pc, #664]	; (800bde0 <_dtoa_r+0x980>)
 800bb48:	2200      	movs	r2, #0
 800bb4a:	f7f4 fd55 	bl	80005f8 <__aeabi_dmul>
 800bb4e:	2200      	movs	r2, #0
 800bb50:	2300      	movs	r3, #0
 800bb52:	4606      	mov	r6, r0
 800bb54:	460f      	mov	r7, r1
 800bb56:	f7f4 ffb7 	bl	8000ac8 <__aeabi_dcmpeq>
 800bb5a:	2800      	cmp	r0, #0
 800bb5c:	d09d      	beq.n	800ba9a <_dtoa_r+0x63a>
 800bb5e:	e7cf      	b.n	800bb00 <_dtoa_r+0x6a0>
 800bb60:	9a08      	ldr	r2, [sp, #32]
 800bb62:	2a00      	cmp	r2, #0
 800bb64:	f000 80d7 	beq.w	800bd16 <_dtoa_r+0x8b6>
 800bb68:	9a06      	ldr	r2, [sp, #24]
 800bb6a:	2a01      	cmp	r2, #1
 800bb6c:	f300 80ba 	bgt.w	800bce4 <_dtoa_r+0x884>
 800bb70:	9a0e      	ldr	r2, [sp, #56]	; 0x38
 800bb72:	2a00      	cmp	r2, #0
 800bb74:	f000 80b2 	beq.w	800bcdc <_dtoa_r+0x87c>
 800bb78:	f203 4333 	addw	r3, r3, #1075	; 0x433
 800bb7c:	9e07      	ldr	r6, [sp, #28]
 800bb7e:	9d04      	ldr	r5, [sp, #16]
 800bb80:	9a04      	ldr	r2, [sp, #16]
 800bb82:	441a      	add	r2, r3
 800bb84:	9204      	str	r2, [sp, #16]
 800bb86:	9a05      	ldr	r2, [sp, #20]
 800bb88:	2101      	movs	r1, #1
 800bb8a:	441a      	add	r2, r3
 800bb8c:	4620      	mov	r0, r4
 800bb8e:	9205      	str	r2, [sp, #20]
 800bb90:	f000 ff24 	bl	800c9dc <__i2b>
 800bb94:	4607      	mov	r7, r0
 800bb96:	2d00      	cmp	r5, #0
 800bb98:	dd0c      	ble.n	800bbb4 <_dtoa_r+0x754>
 800bb9a:	9b05      	ldr	r3, [sp, #20]
 800bb9c:	2b00      	cmp	r3, #0
 800bb9e:	dd09      	ble.n	800bbb4 <_dtoa_r+0x754>
 800bba0:	42ab      	cmp	r3, r5
 800bba2:	9a04      	ldr	r2, [sp, #16]
 800bba4:	bfa8      	it	ge
 800bba6:	462b      	movge	r3, r5
 800bba8:	1ad2      	subs	r2, r2, r3
 800bbaa:	9204      	str	r2, [sp, #16]
 800bbac:	9a05      	ldr	r2, [sp, #20]
 800bbae:	1aed      	subs	r5, r5, r3
 800bbb0:	1ad3      	subs	r3, r2, r3
 800bbb2:	9305      	str	r3, [sp, #20]
 800bbb4:	9b07      	ldr	r3, [sp, #28]
 800bbb6:	b31b      	cbz	r3, 800bc00 <_dtoa_r+0x7a0>
 800bbb8:	9b08      	ldr	r3, [sp, #32]
 800bbba:	2b00      	cmp	r3, #0
 800bbbc:	f000 80af 	beq.w	800bd1e <_dtoa_r+0x8be>
 800bbc0:	2e00      	cmp	r6, #0
 800bbc2:	dd13      	ble.n	800bbec <_dtoa_r+0x78c>
 800bbc4:	4639      	mov	r1, r7
 800bbc6:	4632      	mov	r2, r6
 800bbc8:	4620      	mov	r0, r4
 800bbca:	f000 ffc7 	bl	800cb5c <__pow5mult>
 800bbce:	ee18 2a10 	vmov	r2, s16
 800bbd2:	4601      	mov	r1, r0
 800bbd4:	4607      	mov	r7, r0
 800bbd6:	4620      	mov	r0, r4
 800bbd8:	f000 ff16 	bl	800ca08 <__multiply>
 800bbdc:	ee18 1a10 	vmov	r1, s16
 800bbe0:	4680      	mov	r8, r0
 800bbe2:	4620      	mov	r0, r4
 800bbe4:	f000 fdf8 	bl	800c7d8 <_Bfree>
 800bbe8:	ee08 8a10 	vmov	s16, r8
 800bbec:	9b07      	ldr	r3, [sp, #28]
 800bbee:	1b9a      	subs	r2, r3, r6
 800bbf0:	d006      	beq.n	800bc00 <_dtoa_r+0x7a0>
 800bbf2:	ee18 1a10 	vmov	r1, s16
 800bbf6:	4620      	mov	r0, r4
 800bbf8:	f000 ffb0 	bl	800cb5c <__pow5mult>
 800bbfc:	ee08 0a10 	vmov	s16, r0
 800bc00:	2101      	movs	r1, #1
 800bc02:	4620      	mov	r0, r4
 800bc04:	f000 feea 	bl	800c9dc <__i2b>
 800bc08:	9b0a      	ldr	r3, [sp, #40]	; 0x28
 800bc0a:	2b00      	cmp	r3, #0
 800bc0c:	4606      	mov	r6, r0
 800bc0e:	f340 8088 	ble.w	800bd22 <_dtoa_r+0x8c2>
 800bc12:	461a      	mov	r2, r3
 800bc14:	4601      	mov	r1, r0
 800bc16:	4620      	mov	r0, r4
 800bc18:	f000 ffa0 	bl	800cb5c <__pow5mult>
 800bc1c:	9b06      	ldr	r3, [sp, #24]
 800bc1e:	2b01      	cmp	r3, #1
 800bc20:	4606      	mov	r6, r0
 800bc22:	f340 8081 	ble.w	800bd28 <_dtoa_r+0x8c8>
 800bc26:	f04f 0800 	mov.w	r8, #0
 800bc2a:	6933      	ldr	r3, [r6, #16]
 800bc2c:	eb06 0383 	add.w	r3, r6, r3, lsl #2
 800bc30:	6918      	ldr	r0, [r3, #16]
 800bc32:	f000 fe83 	bl	800c93c <__hi0bits>
 800bc36:	f1c0 0020 	rsb	r0, r0, #32
 800bc3a:	9b05      	ldr	r3, [sp, #20]
 800bc3c:	4418      	add	r0, r3
 800bc3e:	f010 001f 	ands.w	r0, r0, #31
 800bc42:	f000 8092 	beq.w	800bd6a <_dtoa_r+0x90a>
 800bc46:	f1c0 0320 	rsb	r3, r0, #32
 800bc4a:	2b04      	cmp	r3, #4
 800bc4c:	f340 808a 	ble.w	800bd64 <_dtoa_r+0x904>
 800bc50:	f1c0 001c 	rsb	r0, r0, #28
 800bc54:	9b04      	ldr	r3, [sp, #16]
 800bc56:	4403      	add	r3, r0
 800bc58:	9304      	str	r3, [sp, #16]
 800bc5a:	9b05      	ldr	r3, [sp, #20]
 800bc5c:	4403      	add	r3, r0
 800bc5e:	4405      	add	r5, r0
 800bc60:	9305      	str	r3, [sp, #20]
 800bc62:	9b04      	ldr	r3, [sp, #16]
 800bc64:	2b00      	cmp	r3, #0
 800bc66:	dd07      	ble.n	800bc78 <_dtoa_r+0x818>
 800bc68:	ee18 1a10 	vmov	r1, s16
 800bc6c:	461a      	mov	r2, r3
 800bc6e:	4620      	mov	r0, r4
 800bc70:	f000 ffce 	bl	800cc10 <__lshift>
 800bc74:	ee08 0a10 	vmov	s16, r0
 800bc78:	9b05      	ldr	r3, [sp, #20]
 800bc7a:	2b00      	cmp	r3, #0
 800bc7c:	dd05      	ble.n	800bc8a <_dtoa_r+0x82a>
 800bc7e:	4631      	mov	r1, r6
 800bc80:	461a      	mov	r2, r3
 800bc82:	4620      	mov	r0, r4
 800bc84:	f000 ffc4 	bl	800cc10 <__lshift>
 800bc88:	4606      	mov	r6, r0
 800bc8a:	9b0b      	ldr	r3, [sp, #44]	; 0x2c
 800bc8c:	2b00      	cmp	r3, #0
 800bc8e:	d06e      	beq.n	800bd6e <_dtoa_r+0x90e>
 800bc90:	ee18 0a10 	vmov	r0, s16
 800bc94:	4631      	mov	r1, r6
 800bc96:	f001 f82b 	bl	800ccf0 <__mcmp>
 800bc9a:	2800      	cmp	r0, #0
 800bc9c:	da67      	bge.n	800bd6e <_dtoa_r+0x90e>
 800bc9e:	9b00      	ldr	r3, [sp, #0]
 800bca0:	3b01      	subs	r3, #1
 800bca2:	ee18 1a10 	vmov	r1, s16
 800bca6:	9300      	str	r3, [sp, #0]
 800bca8:	220a      	movs	r2, #10
 800bcaa:	2300      	movs	r3, #0
 800bcac:	4620      	mov	r0, r4
 800bcae:	f000 fdb5 	bl	800c81c <__multadd>
 800bcb2:	9b08      	ldr	r3, [sp, #32]
 800bcb4:	ee08 0a10 	vmov	s16, r0
 800bcb8:	2b00      	cmp	r3, #0
 800bcba:	f000 81b1 	beq.w	800c020 <_dtoa_r+0xbc0>
 800bcbe:	2300      	movs	r3, #0
 800bcc0:	4639      	mov	r1, r7
 800bcc2:	220a      	movs	r2, #10
 800bcc4:	4620      	mov	r0, r4
 800bcc6:	f000 fda9 	bl	800c81c <__multadd>
 800bcca:	9b02      	ldr	r3, [sp, #8]
 800bccc:	2b00      	cmp	r3, #0
 800bcce:	4607      	mov	r7, r0
 800bcd0:	f300 808e 	bgt.w	800bdf0 <_dtoa_r+0x990>
 800bcd4:	9b06      	ldr	r3, [sp, #24]
 800bcd6:	2b02      	cmp	r3, #2
 800bcd8:	dc51      	bgt.n	800bd7e <_dtoa_r+0x91e>
 800bcda:	e089      	b.n	800bdf0 <_dtoa_r+0x990>
 800bcdc:	9b10      	ldr	r3, [sp, #64]	; 0x40
 800bcde:	f1c3 0336 	rsb	r3, r3, #54	; 0x36
 800bce2:	e74b      	b.n	800bb7c <_dtoa_r+0x71c>
 800bce4:	9b03      	ldr	r3, [sp, #12]
 800bce6:	1e5e      	subs	r6, r3, #1
 800bce8:	9b07      	ldr	r3, [sp, #28]
 800bcea:	42b3      	cmp	r3, r6
 800bcec:	bfbf      	itttt	lt
 800bcee:	9b07      	ldrlt	r3, [sp, #28]
 800bcf0:	9607      	strlt	r6, [sp, #28]
 800bcf2:	1af2      	sublt	r2, r6, r3
 800bcf4:	9b0a      	ldrlt	r3, [sp, #40]	; 0x28
 800bcf6:	bfb6      	itet	lt
 800bcf8:	189b      	addlt	r3, r3, r2
 800bcfa:	1b9e      	subge	r6, r3, r6
 800bcfc:	930a      	strlt	r3, [sp, #40]	; 0x28
 800bcfe:	9b03      	ldr	r3, [sp, #12]
 800bd00:	bfb8      	it	lt
 800bd02:	2600      	movlt	r6, #0
 800bd04:	2b00      	cmp	r3, #0
 800bd06:	bfb7      	itett	lt
 800bd08:	e9dd 2303 	ldrdlt	r2, r3, [sp, #12]
 800bd0c:	e9dd 3503 	ldrdge	r3, r5, [sp, #12]
 800bd10:	1a9d      	sublt	r5, r3, r2
 800bd12:	2300      	movlt	r3, #0
 800bd14:	e734      	b.n	800bb80 <_dtoa_r+0x720>
 800bd16:	9e07      	ldr	r6, [sp, #28]
 800bd18:	9d04      	ldr	r5, [sp, #16]
 800bd1a:	9f08      	ldr	r7, [sp, #32]
 800bd1c:	e73b      	b.n	800bb96 <_dtoa_r+0x736>
 800bd1e:	9a07      	ldr	r2, [sp, #28]
 800bd20:	e767      	b.n	800bbf2 <_dtoa_r+0x792>
 800bd22:	9b06      	ldr	r3, [sp, #24]
 800bd24:	2b01      	cmp	r3, #1
 800bd26:	dc18      	bgt.n	800bd5a <_dtoa_r+0x8fa>
 800bd28:	f1ba 0f00 	cmp.w	sl, #0
 800bd2c:	d115      	bne.n	800bd5a <_dtoa_r+0x8fa>
 800bd2e:	f3cb 0313 	ubfx	r3, fp, #0, #20
 800bd32:	b993      	cbnz	r3, 800bd5a <_dtoa_r+0x8fa>
 800bd34:	f02b 4300 	bic.w	r3, fp, #2147483648	; 0x80000000
 800bd38:	0d1b      	lsrs	r3, r3, #20
 800bd3a:	051b      	lsls	r3, r3, #20
 800bd3c:	b183      	cbz	r3, 800bd60 <_dtoa_r+0x900>
 800bd3e:	9b04      	ldr	r3, [sp, #16]
 800bd40:	3301      	adds	r3, #1
 800bd42:	9304      	str	r3, [sp, #16]
 800bd44:	9b05      	ldr	r3, [sp, #20]
 800bd46:	3301      	adds	r3, #1
 800bd48:	9305      	str	r3, [sp, #20]
 800bd4a:	f04f 0801 	mov.w	r8, #1
 800bd4e:	9b0a      	ldr	r3, [sp, #40]	; 0x28
 800bd50:	2b00      	cmp	r3, #0
 800bd52:	f47f af6a 	bne.w	800bc2a <_dtoa_r+0x7ca>
 800bd56:	2001      	movs	r0, #1
 800bd58:	e76f      	b.n	800bc3a <_dtoa_r+0x7da>
 800bd5a:	f04f 0800 	mov.w	r8, #0
 800bd5e:	e7f6      	b.n	800bd4e <_dtoa_r+0x8ee>
 800bd60:	4698      	mov	r8, r3
 800bd62:	e7f4      	b.n	800bd4e <_dtoa_r+0x8ee>
 800bd64:	f43f af7d 	beq.w	800bc62 <_dtoa_r+0x802>
 800bd68:	4618      	mov	r0, r3
 800bd6a:	301c      	adds	r0, #28
 800bd6c:	e772      	b.n	800bc54 <_dtoa_r+0x7f4>
 800bd6e:	9b03      	ldr	r3, [sp, #12]
 800bd70:	2b00      	cmp	r3, #0
 800bd72:	dc37      	bgt.n	800bde4 <_dtoa_r+0x984>
 800bd74:	9b06      	ldr	r3, [sp, #24]
 800bd76:	2b02      	cmp	r3, #2
 800bd78:	dd34      	ble.n	800bde4 <_dtoa_r+0x984>
 800bd7a:	9b03      	ldr	r3, [sp, #12]
 800bd7c:	9302      	str	r3, [sp, #8]
 800bd7e:	9b02      	ldr	r3, [sp, #8]
 800bd80:	b96b      	cbnz	r3, 800bd9e <_dtoa_r+0x93e>
 800bd82:	4631      	mov	r1, r6
 800bd84:	2205      	movs	r2, #5
 800bd86:	4620      	mov	r0, r4
 800bd88:	f000 fd48 	bl	800c81c <__multadd>
 800bd8c:	4601      	mov	r1, r0
 800bd8e:	4606      	mov	r6, r0
 800bd90:	ee18 0a10 	vmov	r0, s16
 800bd94:	f000 ffac 	bl	800ccf0 <__mcmp>
 800bd98:	2800      	cmp	r0, #0
 800bd9a:	f73f adbb 	bgt.w	800b914 <_dtoa_r+0x4b4>
 800bd9e:	9b09      	ldr	r3, [sp, #36]	; 0x24
 800bda0:	9d01      	ldr	r5, [sp, #4]
 800bda2:	43db      	mvns	r3, r3
 800bda4:	9300      	str	r3, [sp, #0]
 800bda6:	f04f 0800 	mov.w	r8, #0
 800bdaa:	4631      	mov	r1, r6
 800bdac:	4620      	mov	r0, r4
 800bdae:	f000 fd13 	bl	800c7d8 <_Bfree>
 800bdb2:	2f00      	cmp	r7, #0
 800bdb4:	f43f aea4 	beq.w	800bb00 <_dtoa_r+0x6a0>
 800bdb8:	f1b8 0f00 	cmp.w	r8, #0
 800bdbc:	d005      	beq.n	800bdca <_dtoa_r+0x96a>
 800bdbe:	45b8      	cmp	r8, r7
 800bdc0:	d003      	beq.n	800bdca <_dtoa_r+0x96a>
 800bdc2:	4641      	mov	r1, r8
 800bdc4:	4620      	mov	r0, r4
 800bdc6:	f000 fd07 	bl	800c7d8 <_Bfree>
 800bdca:	4639      	mov	r1, r7
 800bdcc:	4620      	mov	r0, r4
 800bdce:	f000 fd03 	bl	800c7d8 <_Bfree>
 800bdd2:	e695      	b.n	800bb00 <_dtoa_r+0x6a0>
 800bdd4:	2600      	movs	r6, #0
 800bdd6:	4637      	mov	r7, r6
 800bdd8:	e7e1      	b.n	800bd9e <_dtoa_r+0x93e>
 800bdda:	9700      	str	r7, [sp, #0]
 800bddc:	4637      	mov	r7, r6
 800bdde:	e599      	b.n	800b914 <_dtoa_r+0x4b4>
 800bde0:	40240000 	.word	0x40240000
 800bde4:	9b08      	ldr	r3, [sp, #32]
 800bde6:	2b00      	cmp	r3, #0
 800bde8:	f000 80ca 	beq.w	800bf80 <_dtoa_r+0xb20>
 800bdec:	9b03      	ldr	r3, [sp, #12]
 800bdee:	9302      	str	r3, [sp, #8]
 800bdf0:	2d00      	cmp	r5, #0
 800bdf2:	dd05      	ble.n	800be00 <_dtoa_r+0x9a0>
 800bdf4:	4639      	mov	r1, r7
 800bdf6:	462a      	mov	r2, r5
 800bdf8:	4620      	mov	r0, r4
 800bdfa:	f000 ff09 	bl	800cc10 <__lshift>
 800bdfe:	4607      	mov	r7, r0
 800be00:	f1b8 0f00 	cmp.w	r8, #0
 800be04:	d05b      	beq.n	800bebe <_dtoa_r+0xa5e>
 800be06:	6879      	ldr	r1, [r7, #4]
 800be08:	4620      	mov	r0, r4
 800be0a:	f000 fca5 	bl	800c758 <_Balloc>
 800be0e:	4605      	mov	r5, r0
 800be10:	b928      	cbnz	r0, 800be1e <_dtoa_r+0x9be>
 800be12:	4b87      	ldr	r3, [pc, #540]	; (800c030 <_dtoa_r+0xbd0>)
 800be14:	4602      	mov	r2, r0
 800be16:	f240 21ea 	movw	r1, #746	; 0x2ea
 800be1a:	f7ff bb3b 	b.w	800b494 <_dtoa_r+0x34>
 800be1e:	693a      	ldr	r2, [r7, #16]
 800be20:	3202      	adds	r2, #2
 800be22:	0092      	lsls	r2, r2, #2
 800be24:	f107 010c 	add.w	r1, r7, #12
 800be28:	300c      	adds	r0, #12
 800be2a:	f7fd fd2b 	bl	8009884 <memcpy>
 800be2e:	2201      	movs	r2, #1
 800be30:	4629      	mov	r1, r5
 800be32:	4620      	mov	r0, r4
 800be34:	f000 feec 	bl	800cc10 <__lshift>
 800be38:	9b01      	ldr	r3, [sp, #4]
 800be3a:	f103 0901 	add.w	r9, r3, #1
 800be3e:	e9dd 2301 	ldrd	r2, r3, [sp, #4]
 800be42:	4413      	add	r3, r2
 800be44:	9305      	str	r3, [sp, #20]
 800be46:	f00a 0301 	and.w	r3, sl, #1
 800be4a:	46b8      	mov	r8, r7
 800be4c:	9304      	str	r3, [sp, #16]
 800be4e:	4607      	mov	r7, r0
 800be50:	4631      	mov	r1, r6
 800be52:	ee18 0a10 	vmov	r0, s16
 800be56:	f7ff fa77 	bl	800b348 <quorem>
 800be5a:	4641      	mov	r1, r8
 800be5c:	9002      	str	r0, [sp, #8]
 800be5e:	f100 0a30 	add.w	sl, r0, #48	; 0x30
 800be62:	ee18 0a10 	vmov	r0, s16
 800be66:	f000 ff43 	bl	800ccf0 <__mcmp>
 800be6a:	463a      	mov	r2, r7
 800be6c:	9003      	str	r0, [sp, #12]
 800be6e:	4631      	mov	r1, r6
 800be70:	4620      	mov	r0, r4
 800be72:	f000 ff59 	bl	800cd28 <__mdiff>
 800be76:	68c2      	ldr	r2, [r0, #12]
 800be78:	f109 3bff 	add.w	fp, r9, #4294967295
 800be7c:	4605      	mov	r5, r0
 800be7e:	bb02      	cbnz	r2, 800bec2 <_dtoa_r+0xa62>
 800be80:	4601      	mov	r1, r0
 800be82:	ee18 0a10 	vmov	r0, s16
 800be86:	f000 ff33 	bl	800ccf0 <__mcmp>
 800be8a:	4602      	mov	r2, r0
 800be8c:	4629      	mov	r1, r5
 800be8e:	4620      	mov	r0, r4
 800be90:	9207      	str	r2, [sp, #28]
 800be92:	f000 fca1 	bl	800c7d8 <_Bfree>
 800be96:	e9dd 3206 	ldrd	r3, r2, [sp, #24]
 800be9a:	ea43 0102 	orr.w	r1, r3, r2
 800be9e:	9b04      	ldr	r3, [sp, #16]
 800bea0:	430b      	orrs	r3, r1
 800bea2:	464d      	mov	r5, r9
 800bea4:	d10f      	bne.n	800bec6 <_dtoa_r+0xa66>
 800bea6:	f1ba 0f39 	cmp.w	sl, #57	; 0x39
 800beaa:	d02a      	beq.n	800bf02 <_dtoa_r+0xaa2>
 800beac:	9b03      	ldr	r3, [sp, #12]
 800beae:	2b00      	cmp	r3, #0
 800beb0:	dd02      	ble.n	800beb8 <_dtoa_r+0xa58>
 800beb2:	9b02      	ldr	r3, [sp, #8]
 800beb4:	f103 0a31 	add.w	sl, r3, #49	; 0x31
 800beb8:	f88b a000 	strb.w	sl, [fp]
 800bebc:	e775      	b.n	800bdaa <_dtoa_r+0x94a>
 800bebe:	4638      	mov	r0, r7
 800bec0:	e7ba      	b.n	800be38 <_dtoa_r+0x9d8>
 800bec2:	2201      	movs	r2, #1
 800bec4:	e7e2      	b.n	800be8c <_dtoa_r+0xa2c>
 800bec6:	9b03      	ldr	r3, [sp, #12]
 800bec8:	2b00      	cmp	r3, #0
 800beca:	db04      	blt.n	800bed6 <_dtoa_r+0xa76>
 800becc:	9906      	ldr	r1, [sp, #24]
 800bece:	430b      	orrs	r3, r1
 800bed0:	9904      	ldr	r1, [sp, #16]
 800bed2:	430b      	orrs	r3, r1
 800bed4:	d122      	bne.n	800bf1c <_dtoa_r+0xabc>
 800bed6:	2a00      	cmp	r2, #0
 800bed8:	ddee      	ble.n	800beb8 <_dtoa_r+0xa58>
 800beda:	ee18 1a10 	vmov	r1, s16
 800bede:	2201      	movs	r2, #1
 800bee0:	4620      	mov	r0, r4
 800bee2:	f000 fe95 	bl	800cc10 <__lshift>
 800bee6:	4631      	mov	r1, r6
 800bee8:	ee08 0a10 	vmov	s16, r0
 800beec:	f000 ff00 	bl	800ccf0 <__mcmp>
 800bef0:	2800      	cmp	r0, #0
 800bef2:	dc03      	bgt.n	800befc <_dtoa_r+0xa9c>
 800bef4:	d1e0      	bne.n	800beb8 <_dtoa_r+0xa58>
 800bef6:	f01a 0f01 	tst.w	sl, #1
 800befa:	d0dd      	beq.n	800beb8 <_dtoa_r+0xa58>
 800befc:	f1ba 0f39 	cmp.w	sl, #57	; 0x39
 800bf00:	d1d7      	bne.n	800beb2 <_dtoa_r+0xa52>
 800bf02:	2339      	movs	r3, #57	; 0x39
 800bf04:	f88b 3000 	strb.w	r3, [fp]
 800bf08:	462b      	mov	r3, r5
 800bf0a:	461d      	mov	r5, r3
 800bf0c:	3b01      	subs	r3, #1
 800bf0e:	f815 2c01 	ldrb.w	r2, [r5, #-1]
 800bf12:	2a39      	cmp	r2, #57	; 0x39
 800bf14:	d071      	beq.n	800bffa <_dtoa_r+0xb9a>
 800bf16:	3201      	adds	r2, #1
 800bf18:	701a      	strb	r2, [r3, #0]
 800bf1a:	e746      	b.n	800bdaa <_dtoa_r+0x94a>
 800bf1c:	2a00      	cmp	r2, #0
 800bf1e:	dd07      	ble.n	800bf30 <_dtoa_r+0xad0>
 800bf20:	f1ba 0f39 	cmp.w	sl, #57	; 0x39
 800bf24:	d0ed      	beq.n	800bf02 <_dtoa_r+0xaa2>
 800bf26:	f10a 0301 	add.w	r3, sl, #1
 800bf2a:	f88b 3000 	strb.w	r3, [fp]
 800bf2e:	e73c      	b.n	800bdaa <_dtoa_r+0x94a>
 800bf30:	9b05      	ldr	r3, [sp, #20]
 800bf32:	f809 ac01 	strb.w	sl, [r9, #-1]
 800bf36:	4599      	cmp	r9, r3
 800bf38:	d047      	beq.n	800bfca <_dtoa_r+0xb6a>
 800bf3a:	ee18 1a10 	vmov	r1, s16
 800bf3e:	2300      	movs	r3, #0
 800bf40:	220a      	movs	r2, #10
 800bf42:	4620      	mov	r0, r4
 800bf44:	f000 fc6a 	bl	800c81c <__multadd>
 800bf48:	45b8      	cmp	r8, r7
 800bf4a:	ee08 0a10 	vmov	s16, r0
 800bf4e:	f04f 0300 	mov.w	r3, #0
 800bf52:	f04f 020a 	mov.w	r2, #10
 800bf56:	4641      	mov	r1, r8
 800bf58:	4620      	mov	r0, r4
 800bf5a:	d106      	bne.n	800bf6a <_dtoa_r+0xb0a>
 800bf5c:	f000 fc5e 	bl	800c81c <__multadd>
 800bf60:	4680      	mov	r8, r0
 800bf62:	4607      	mov	r7, r0
 800bf64:	f109 0901 	add.w	r9, r9, #1
 800bf68:	e772      	b.n	800be50 <_dtoa_r+0x9f0>
 800bf6a:	f000 fc57 	bl	800c81c <__multadd>
 800bf6e:	4639      	mov	r1, r7
 800bf70:	4680      	mov	r8, r0
 800bf72:	2300      	movs	r3, #0
 800bf74:	220a      	movs	r2, #10
 800bf76:	4620      	mov	r0, r4
 800bf78:	f000 fc50 	bl	800c81c <__multadd>
 800bf7c:	4607      	mov	r7, r0
 800bf7e:	e7f1      	b.n	800bf64 <_dtoa_r+0xb04>
 800bf80:	9b03      	ldr	r3, [sp, #12]
 800bf82:	9302      	str	r3, [sp, #8]
 800bf84:	9d01      	ldr	r5, [sp, #4]
 800bf86:	ee18 0a10 	vmov	r0, s16
 800bf8a:	4631      	mov	r1, r6
 800bf8c:	f7ff f9dc 	bl	800b348 <quorem>
 800bf90:	f100 0a30 	add.w	sl, r0, #48	; 0x30
 800bf94:	9b01      	ldr	r3, [sp, #4]
 800bf96:	f805 ab01 	strb.w	sl, [r5], #1
 800bf9a:	1aea      	subs	r2, r5, r3
 800bf9c:	9b02      	ldr	r3, [sp, #8]
 800bf9e:	4293      	cmp	r3, r2
 800bfa0:	dd09      	ble.n	800bfb6 <_dtoa_r+0xb56>
 800bfa2:	ee18 1a10 	vmov	r1, s16
 800bfa6:	2300      	movs	r3, #0
 800bfa8:	220a      	movs	r2, #10
 800bfaa:	4620      	mov	r0, r4
 800bfac:	f000 fc36 	bl	800c81c <__multadd>
 800bfb0:	ee08 0a10 	vmov	s16, r0
 800bfb4:	e7e7      	b.n	800bf86 <_dtoa_r+0xb26>
 800bfb6:	9b02      	ldr	r3, [sp, #8]
 800bfb8:	2b00      	cmp	r3, #0
 800bfba:	bfc8      	it	gt
 800bfbc:	461d      	movgt	r5, r3
 800bfbe:	9b01      	ldr	r3, [sp, #4]
 800bfc0:	bfd8      	it	le
 800bfc2:	2501      	movle	r5, #1
 800bfc4:	441d      	add	r5, r3
 800bfc6:	f04f 0800 	mov.w	r8, #0
 800bfca:	ee18 1a10 	vmov	r1, s16
 800bfce:	2201      	movs	r2, #1
 800bfd0:	4620      	mov	r0, r4
 800bfd2:	f000 fe1d 	bl	800cc10 <__lshift>
 800bfd6:	4631      	mov	r1, r6
 800bfd8:	ee08 0a10 	vmov	s16, r0
 800bfdc:	f000 fe88 	bl	800ccf0 <__mcmp>
 800bfe0:	2800      	cmp	r0, #0
 800bfe2:	dc91      	bgt.n	800bf08 <_dtoa_r+0xaa8>
 800bfe4:	d102      	bne.n	800bfec <_dtoa_r+0xb8c>
 800bfe6:	f01a 0f01 	tst.w	sl, #1
 800bfea:	d18d      	bne.n	800bf08 <_dtoa_r+0xaa8>
 800bfec:	462b      	mov	r3, r5
 800bfee:	461d      	mov	r5, r3
 800bff0:	f813 2d01 	ldrb.w	r2, [r3, #-1]!
 800bff4:	2a30      	cmp	r2, #48	; 0x30
 800bff6:	d0fa      	beq.n	800bfee <_dtoa_r+0xb8e>
 800bff8:	e6d7      	b.n	800bdaa <_dtoa_r+0x94a>
 800bffa:	9a01      	ldr	r2, [sp, #4]
 800bffc:	429a      	cmp	r2, r3
 800bffe:	d184      	bne.n	800bf0a <_dtoa_r+0xaaa>
 800c000:	9b00      	ldr	r3, [sp, #0]
 800c002:	3301      	adds	r3, #1
 800c004:	9300      	str	r3, [sp, #0]
 800c006:	2331      	movs	r3, #49	; 0x31
 800c008:	7013      	strb	r3, [r2, #0]
 800c00a:	e6ce      	b.n	800bdaa <_dtoa_r+0x94a>
 800c00c:	4b09      	ldr	r3, [pc, #36]	; (800c034 <_dtoa_r+0xbd4>)
 800c00e:	f7ff ba95 	b.w	800b53c <_dtoa_r+0xdc>
 800c012:	9b21      	ldr	r3, [sp, #132]	; 0x84
 800c014:	2b00      	cmp	r3, #0
 800c016:	f47f aa6e 	bne.w	800b4f6 <_dtoa_r+0x96>
 800c01a:	4b07      	ldr	r3, [pc, #28]	; (800c038 <_dtoa_r+0xbd8>)
 800c01c:	f7ff ba8e 	b.w	800b53c <_dtoa_r+0xdc>
 800c020:	9b02      	ldr	r3, [sp, #8]
 800c022:	2b00      	cmp	r3, #0
 800c024:	dcae      	bgt.n	800bf84 <_dtoa_r+0xb24>
 800c026:	9b06      	ldr	r3, [sp, #24]
 800c028:	2b02      	cmp	r3, #2
 800c02a:	f73f aea8 	bgt.w	800bd7e <_dtoa_r+0x91e>
 800c02e:	e7a9      	b.n	800bf84 <_dtoa_r+0xb24>
 800c030:	0800ef20 	.word	0x0800ef20
 800c034:	0800ed24 	.word	0x0800ed24
 800c038:	0800eea1 	.word	0x0800eea1

0800c03c <rshift>:
 800c03c:	6903      	ldr	r3, [r0, #16]
 800c03e:	ebb3 1f61 	cmp.w	r3, r1, asr #5
 800c042:	e92d 43f0 	stmdb	sp!, {r4, r5, r6, r7, r8, r9, lr}
 800c046:	ea4f 1261 	mov.w	r2, r1, asr #5
 800c04a:	f100 0414 	add.w	r4, r0, #20
 800c04e:	dd45      	ble.n	800c0dc <rshift+0xa0>
 800c050:	f011 011f 	ands.w	r1, r1, #31
 800c054:	eb04 0683 	add.w	r6, r4, r3, lsl #2
 800c058:	eb04 0582 	add.w	r5, r4, r2, lsl #2
 800c05c:	d10c      	bne.n	800c078 <rshift+0x3c>
 800c05e:	f100 0710 	add.w	r7, r0, #16
 800c062:	4629      	mov	r1, r5
 800c064:	42b1      	cmp	r1, r6
 800c066:	d334      	bcc.n	800c0d2 <rshift+0x96>
 800c068:	1a9b      	subs	r3, r3, r2
 800c06a:	009b      	lsls	r3, r3, #2
 800c06c:	1eea      	subs	r2, r5, #3
 800c06e:	4296      	cmp	r6, r2
 800c070:	bf38      	it	cc
 800c072:	2300      	movcc	r3, #0
 800c074:	4423      	add	r3, r4
 800c076:	e015      	b.n	800c0a4 <rshift+0x68>
 800c078:	f854 7022 	ldr.w	r7, [r4, r2, lsl #2]
 800c07c:	f1c1 0820 	rsb	r8, r1, #32
 800c080:	40cf      	lsrs	r7, r1
 800c082:	f105 0e04 	add.w	lr, r5, #4
 800c086:	46a1      	mov	r9, r4
 800c088:	4576      	cmp	r6, lr
 800c08a:	46f4      	mov	ip, lr
 800c08c:	d815      	bhi.n	800c0ba <rshift+0x7e>
 800c08e:	1a9a      	subs	r2, r3, r2
 800c090:	0092      	lsls	r2, r2, #2
 800c092:	3a04      	subs	r2, #4
 800c094:	3501      	adds	r5, #1
 800c096:	42ae      	cmp	r6, r5
 800c098:	bf38      	it	cc
 800c09a:	2200      	movcc	r2, #0
 800c09c:	18a3      	adds	r3, r4, r2
 800c09e:	50a7      	str	r7, [r4, r2]
 800c0a0:	b107      	cbz	r7, 800c0a4 <rshift+0x68>
 800c0a2:	3304      	adds	r3, #4
 800c0a4:	1b1a      	subs	r2, r3, r4
 800c0a6:	42a3      	cmp	r3, r4
 800c0a8:	ea4f 02a2 	mov.w	r2, r2, asr #2
 800c0ac:	bf08      	it	eq
 800c0ae:	2300      	moveq	r3, #0
 800c0b0:	6102      	str	r2, [r0, #16]
 800c0b2:	bf08      	it	eq
 800c0b4:	6143      	streq	r3, [r0, #20]
 800c0b6:	e8bd 83f0 	ldmia.w	sp!, {r4, r5, r6, r7, r8, r9, pc}
 800c0ba:	f8dc c000 	ldr.w	ip, [ip]
 800c0be:	fa0c fc08 	lsl.w	ip, ip, r8
 800c0c2:	ea4c 0707 	orr.w	r7, ip, r7
 800c0c6:	f849 7b04 	str.w	r7, [r9], #4
 800c0ca:	f85e 7b04 	ldr.w	r7, [lr], #4
 800c0ce:	40cf      	lsrs	r7, r1
 800c0d0:	e7da      	b.n	800c088 <rshift+0x4c>
 800c0d2:	f851 cb04 	ldr.w	ip, [r1], #4
 800c0d6:	f847 cf04 	str.w	ip, [r7, #4]!
 800c0da:	e7c3      	b.n	800c064 <rshift+0x28>
 800c0dc:	4623      	mov	r3, r4
 800c0de:	e7e1      	b.n	800c0a4 <rshift+0x68>

0800c0e0 <__hexdig_fun>:
 800c0e0:	f1a0 0330 	sub.w	r3, r0, #48	; 0x30
 800c0e4:	2b09      	cmp	r3, #9
 800c0e6:	d802      	bhi.n	800c0ee <__hexdig_fun+0xe>
 800c0e8:	3820      	subs	r0, #32
 800c0ea:	b2c0      	uxtb	r0, r0
 800c0ec:	4770      	bx	lr
 800c0ee:	f1a0 0361 	sub.w	r3, r0, #97	; 0x61
 800c0f2:	2b05      	cmp	r3, #5
 800c0f4:	d801      	bhi.n	800c0fa <__hexdig_fun+0x1a>
 800c0f6:	3847      	subs	r0, #71	; 0x47
 800c0f8:	e7f7      	b.n	800c0ea <__hexdig_fun+0xa>
 800c0fa:	f1a0 0341 	sub.w	r3, r0, #65	; 0x41
 800c0fe:	2b05      	cmp	r3, #5
 800c100:	d801      	bhi.n	800c106 <__hexdig_fun+0x26>
 800c102:	3827      	subs	r0, #39	; 0x27
 800c104:	e7f1      	b.n	800c0ea <__hexdig_fun+0xa>
 800c106:	2000      	movs	r0, #0
 800c108:	4770      	bx	lr
	...

0800c10c <__gethex>:
 800c10c:	e92d 4ff0 	stmdb	sp!, {r4, r5, r6, r7, r8, r9, sl, fp, lr}
 800c110:	ed2d 8b02 	vpush	{d8}
 800c114:	b089      	sub	sp, #36	; 0x24
 800c116:	ee08 0a10 	vmov	s16, r0
 800c11a:	9304      	str	r3, [sp, #16]
 800c11c:	4bb4      	ldr	r3, [pc, #720]	; (800c3f0 <__gethex+0x2e4>)
 800c11e:	681b      	ldr	r3, [r3, #0]
 800c120:	9301      	str	r3, [sp, #4]
 800c122:	4618      	mov	r0, r3
 800c124:	468b      	mov	fp, r1
 800c126:	4690      	mov	r8, r2
 800c128:	f7f4 f852 	bl	80001d0 <strlen>
 800c12c:	9b01      	ldr	r3, [sp, #4]
 800c12e:	f8db 2000 	ldr.w	r2, [fp]
 800c132:	4403      	add	r3, r0
 800c134:	4682      	mov	sl, r0
 800c136:	f813 3c01 	ldrb.w	r3, [r3, #-1]
 800c13a:	9305      	str	r3, [sp, #20]
 800c13c:	1c93      	adds	r3, r2, #2
 800c13e:	f1c2 22ff 	rsb	r2, r2, #4278255360	; 0xff00ff00
 800c142:	f502 027f 	add.w	r2, r2, #16711680	; 0xff0000
 800c146:	32fe      	adds	r2, #254	; 0xfe
 800c148:	18d1      	adds	r1, r2, r3
 800c14a:	461f      	mov	r7, r3
 800c14c:	f813 0b01 	ldrb.w	r0, [r3], #1
 800c150:	9100      	str	r1, [sp, #0]
 800c152:	2830      	cmp	r0, #48	; 0x30
 800c154:	d0f8      	beq.n	800c148 <__gethex+0x3c>
 800c156:	f7ff ffc3 	bl	800c0e0 <__hexdig_fun>
 800c15a:	4604      	mov	r4, r0
 800c15c:	2800      	cmp	r0, #0
 800c15e:	d13a      	bne.n	800c1d6 <__gethex+0xca>
 800c160:	9901      	ldr	r1, [sp, #4]
 800c162:	4652      	mov	r2, sl
 800c164:	4638      	mov	r0, r7
 800c166:	f001 fa23 	bl	800d5b0 <strncmp>
 800c16a:	4605      	mov	r5, r0
 800c16c:	2800      	cmp	r0, #0
 800c16e:	d168      	bne.n	800c242 <__gethex+0x136>
 800c170:	f817 000a 	ldrb.w	r0, [r7, sl]
 800c174:	eb07 060a 	add.w	r6, r7, sl
 800c178:	f7ff ffb2 	bl	800c0e0 <__hexdig_fun>
 800c17c:	2800      	cmp	r0, #0
 800c17e:	d062      	beq.n	800c246 <__gethex+0x13a>
 800c180:	4633      	mov	r3, r6
 800c182:	7818      	ldrb	r0, [r3, #0]
 800c184:	2830      	cmp	r0, #48	; 0x30
 800c186:	461f      	mov	r7, r3
 800c188:	f103 0301 	add.w	r3, r3, #1
 800c18c:	d0f9      	beq.n	800c182 <__gethex+0x76>
 800c18e:	f7ff ffa7 	bl	800c0e0 <__hexdig_fun>
 800c192:	2301      	movs	r3, #1
 800c194:	fab0 f480 	clz	r4, r0
 800c198:	0964      	lsrs	r4, r4, #5
 800c19a:	4635      	mov	r5, r6
 800c19c:	9300      	str	r3, [sp, #0]
 800c19e:	463a      	mov	r2, r7
 800c1a0:	4616      	mov	r6, r2
 800c1a2:	3201      	adds	r2, #1
 800c1a4:	7830      	ldrb	r0, [r6, #0]
 800c1a6:	f7ff ff9b 	bl	800c0e0 <__hexdig_fun>
 800c1aa:	2800      	cmp	r0, #0
 800c1ac:	d1f8      	bne.n	800c1a0 <__gethex+0x94>
 800c1ae:	9901      	ldr	r1, [sp, #4]
 800c1b0:	4652      	mov	r2, sl
 800c1b2:	4630      	mov	r0, r6
 800c1b4:	f001 f9fc 	bl	800d5b0 <strncmp>
 800c1b8:	b980      	cbnz	r0, 800c1dc <__gethex+0xd0>
 800c1ba:	b94d      	cbnz	r5, 800c1d0 <__gethex+0xc4>
 800c1bc:	eb06 050a 	add.w	r5, r6, sl
 800c1c0:	462a      	mov	r2, r5
 800c1c2:	4616      	mov	r6, r2
 800c1c4:	3201      	adds	r2, #1
 800c1c6:	7830      	ldrb	r0, [r6, #0]
 800c1c8:	f7ff ff8a 	bl	800c0e0 <__hexdig_fun>
 800c1cc:	2800      	cmp	r0, #0
 800c1ce:	d1f8      	bne.n	800c1c2 <__gethex+0xb6>
 800c1d0:	1bad      	subs	r5, r5, r6
 800c1d2:	00ad      	lsls	r5, r5, #2
 800c1d4:	e004      	b.n	800c1e0 <__gethex+0xd4>
 800c1d6:	2400      	movs	r4, #0
 800c1d8:	4625      	mov	r5, r4
 800c1da:	e7e0      	b.n	800c19e <__gethex+0x92>
 800c1dc:	2d00      	cmp	r5, #0
 800c1de:	d1f7      	bne.n	800c1d0 <__gethex+0xc4>
 800c1e0:	7833      	ldrb	r3, [r6, #0]
 800c1e2:	f003 03df 	and.w	r3, r3, #223	; 0xdf
 800c1e6:	2b50      	cmp	r3, #80	; 0x50
 800c1e8:	d13b      	bne.n	800c262 <__gethex+0x156>
 800c1ea:	7873      	ldrb	r3, [r6, #1]
 800c1ec:	2b2b      	cmp	r3, #43	; 0x2b
 800c1ee:	d02c      	beq.n	800c24a <__gethex+0x13e>
 800c1f0:	2b2d      	cmp	r3, #45	; 0x2d
 800c1f2:	d02e      	beq.n	800c252 <__gethex+0x146>
 800c1f4:	1c71      	adds	r1, r6, #1
 800c1f6:	f04f 0900 	mov.w	r9, #0
 800c1fa:	7808      	ldrb	r0, [r1, #0]
 800c1fc:	f7ff ff70 	bl	800c0e0 <__hexdig_fun>
 800c200:	1e43      	subs	r3, r0, #1
 800c202:	b2db      	uxtb	r3, r3
 800c204:	2b18      	cmp	r3, #24
 800c206:	d82c      	bhi.n	800c262 <__gethex+0x156>
 800c208:	f1a0 0210 	sub.w	r2, r0, #16
 800c20c:	f811 0f01 	ldrb.w	r0, [r1, #1]!
 800c210:	f7ff ff66 	bl	800c0e0 <__hexdig_fun>
 800c214:	1e43      	subs	r3, r0, #1
 800c216:	b2db      	uxtb	r3, r3
 800c218:	2b18      	cmp	r3, #24
 800c21a:	d91d      	bls.n	800c258 <__gethex+0x14c>
 800c21c:	f1b9 0f00 	cmp.w	r9, #0
 800c220:	d000      	beq.n	800c224 <__gethex+0x118>
 800c222:	4252      	negs	r2, r2
 800c224:	4415      	add	r5, r2
 800c226:	f8cb 1000 	str.w	r1, [fp]
 800c22a:	b1e4      	cbz	r4, 800c266 <__gethex+0x15a>
 800c22c:	9b00      	ldr	r3, [sp, #0]
 800c22e:	2b00      	cmp	r3, #0
 800c230:	bf14      	ite	ne
 800c232:	2700      	movne	r7, #0
 800c234:	2706      	moveq	r7, #6
 800c236:	4638      	mov	r0, r7
 800c238:	b009      	add	sp, #36	; 0x24
 800c23a:	ecbd 8b02 	vpop	{d8}
 800c23e:	e8bd 8ff0 	ldmia.w	sp!, {r4, r5, r6, r7, r8, r9, sl, fp, pc}
 800c242:	463e      	mov	r6, r7
 800c244:	4625      	mov	r5, r4
 800c246:	2401      	movs	r4, #1
 800c248:	e7ca      	b.n	800c1e0 <__gethex+0xd4>
 800c24a:	f04f 0900 	mov.w	r9, #0
 800c24e:	1cb1      	adds	r1, r6, #2
 800c250:	e7d3      	b.n	800c1fa <__gethex+0xee>
 800c252:	f04f 0901 	mov.w	r9, #1
 800c256:	e7fa      	b.n	800c24e <__gethex+0x142>
 800c258:	230a      	movs	r3, #10
 800c25a:	fb03 0202 	mla	r2, r3, r2, r0
 800c25e:	3a10      	subs	r2, #16
 800c260:	e7d4      	b.n	800c20c <__gethex+0x100>
 800c262:	4631      	mov	r1, r6
 800c264:	e7df      	b.n	800c226 <__gethex+0x11a>
 800c266:	1bf3      	subs	r3, r6, r7
 800c268:	3b01      	subs	r3, #1
 800c26a:	4621      	mov	r1, r4
 800c26c:	2b07      	cmp	r3, #7
 800c26e:	dc0b      	bgt.n	800c288 <__gethex+0x17c>
 800c270:	ee18 0a10 	vmov	r0, s16
 800c274:	f000 fa70 	bl	800c758 <_Balloc>
 800c278:	4604      	mov	r4, r0
 800c27a:	b940      	cbnz	r0, 800c28e <__gethex+0x182>
 800c27c:	4b5d      	ldr	r3, [pc, #372]	; (800c3f4 <__gethex+0x2e8>)
 800c27e:	4602      	mov	r2, r0
 800c280:	21de      	movs	r1, #222	; 0xde
 800c282:	485d      	ldr	r0, [pc, #372]	; (800c3f8 <__gethex+0x2ec>)
 800c284:	f001 f9b6 	bl	800d5f4 <__assert_func>
 800c288:	3101      	adds	r1, #1
 800c28a:	105b      	asrs	r3, r3, #1
 800c28c:	e7ee      	b.n	800c26c <__gethex+0x160>
 800c28e:	f100 0914 	add.w	r9, r0, #20
 800c292:	f04f 0b00 	mov.w	fp, #0
 800c296:	f1ca 0301 	rsb	r3, sl, #1
 800c29a:	f8cd 9008 	str.w	r9, [sp, #8]
 800c29e:	f8cd b000 	str.w	fp, [sp]
 800c2a2:	9306      	str	r3, [sp, #24]
 800c2a4:	42b7      	cmp	r7, r6
 800c2a6:	d340      	bcc.n	800c32a <__gethex+0x21e>
 800c2a8:	9802      	ldr	r0, [sp, #8]
 800c2aa:	9b00      	ldr	r3, [sp, #0]
 800c2ac:	f840 3b04 	str.w	r3, [r0], #4
 800c2b0:	eba0 0009 	sub.w	r0, r0, r9
 800c2b4:	1080      	asrs	r0, r0, #2
 800c2b6:	0146      	lsls	r6, r0, #5
 800c2b8:	6120      	str	r0, [r4, #16]
 800c2ba:	4618      	mov	r0, r3
 800c2bc:	f000 fb3e 	bl	800c93c <__hi0bits>
 800c2c0:	1a30      	subs	r0, r6, r0
 800c2c2:	f8d8 6000 	ldr.w	r6, [r8]
 800c2c6:	42b0      	cmp	r0, r6
 800c2c8:	dd63      	ble.n	800c392 <__gethex+0x286>
 800c2ca:	1b87      	subs	r7, r0, r6
 800c2cc:	4639      	mov	r1, r7
 800c2ce:	4620      	mov	r0, r4
 800c2d0:	f000 fee2 	bl	800d098 <__any_on>
 800c2d4:	4682      	mov	sl, r0
 800c2d6:	b1a8      	cbz	r0, 800c304 <__gethex+0x1f8>
 800c2d8:	1e7b      	subs	r3, r7, #1
 800c2da:	1159      	asrs	r1, r3, #5
 800c2dc:	f003 021f 	and.w	r2, r3, #31
 800c2e0:	f859 1021 	ldr.w	r1, [r9, r1, lsl #2]
 800c2e4:	f04f 0a01 	mov.w	sl, #1
 800c2e8:	fa0a f202 	lsl.w	r2, sl, r2
 800c2ec:	420a      	tst	r2, r1
 800c2ee:	d009      	beq.n	800c304 <__gethex+0x1f8>
 800c2f0:	4553      	cmp	r3, sl
 800c2f2:	dd05      	ble.n	800c300 <__gethex+0x1f4>
 800c2f4:	1eb9      	subs	r1, r7, #2
 800c2f6:	4620      	mov	r0, r4
 800c2f8:	f000 fece 	bl	800d098 <__any_on>
 800c2fc:	2800      	cmp	r0, #0
 800c2fe:	d145      	bne.n	800c38c <__gethex+0x280>
 800c300:	f04f 0a02 	mov.w	sl, #2
 800c304:	4639      	mov	r1, r7
 800c306:	4620      	mov	r0, r4
 800c308:	f7ff fe98 	bl	800c03c <rshift>
 800c30c:	443d      	add	r5, r7
 800c30e:	f8d8 3008 	ldr.w	r3, [r8, #8]
 800c312:	42ab      	cmp	r3, r5
 800c314:	da4c      	bge.n	800c3b0 <__gethex+0x2a4>
 800c316:	ee18 0a10 	vmov	r0, s16
 800c31a:	4621      	mov	r1, r4
 800c31c:	f000 fa5c 	bl	800c7d8 <_Bfree>
 800c320:	9a14      	ldr	r2, [sp, #80]	; 0x50
 800c322:	2300      	movs	r3, #0
 800c324:	6013      	str	r3, [r2, #0]
 800c326:	27a3      	movs	r7, #163	; 0xa3
 800c328:	e785      	b.n	800c236 <__gethex+0x12a>
 800c32a:	1e73      	subs	r3, r6, #1
 800c32c:	9a05      	ldr	r2, [sp, #20]
 800c32e:	9303      	str	r3, [sp, #12]
 800c330:	f816 3c01 	ldrb.w	r3, [r6, #-1]
 800c334:	4293      	cmp	r3, r2
 800c336:	d019      	beq.n	800c36c <__gethex+0x260>
 800c338:	f1bb 0f20 	cmp.w	fp, #32
 800c33c:	d107      	bne.n	800c34e <__gethex+0x242>
 800c33e:	9b02      	ldr	r3, [sp, #8]
 800c340:	9a00      	ldr	r2, [sp, #0]
 800c342:	f843 2b04 	str.w	r2, [r3], #4
 800c346:	9302      	str	r3, [sp, #8]
 800c348:	2300      	movs	r3, #0
 800c34a:	9300      	str	r3, [sp, #0]
 800c34c:	469b      	mov	fp, r3
 800c34e:	f816 0c01 	ldrb.w	r0, [r6, #-1]
 800c352:	f7ff fec5 	bl	800c0e0 <__hexdig_fun>
 800c356:	9b00      	ldr	r3, [sp, #0]
 800c358:	f000 000f 	and.w	r0, r0, #15
 800c35c:	fa00 f00b 	lsl.w	r0, r0, fp
 800c360:	4303      	orrs	r3, r0
 800c362:	9300      	str	r3, [sp, #0]
 800c364:	f10b 0b04 	add.w	fp, fp, #4
 800c368:	9b03      	ldr	r3, [sp, #12]
 800c36a:	e00d      	b.n	800c388 <__gethex+0x27c>
 800c36c:	9b03      	ldr	r3, [sp, #12]
 800c36e:	9a06      	ldr	r2, [sp, #24]
 800c370:	4413      	add	r3, r2
 800c372:	42bb      	cmp	r3, r7
 800c374:	d3e0      	bcc.n	800c338 <__gethex+0x22c>
 800c376:	4618      	mov	r0, r3
 800c378:	9901      	ldr	r1, [sp, #4]
 800c37a:	9307      	str	r3, [sp, #28]
 800c37c:	4652      	mov	r2, sl
 800c37e:	f001 f917 	bl	800d5b0 <strncmp>
 800c382:	9b07      	ldr	r3, [sp, #28]
 800c384:	2800      	cmp	r0, #0
 800c386:	d1d7      	bne.n	800c338 <__gethex+0x22c>
 800c388:	461e      	mov	r6, r3
 800c38a:	e78b      	b.n	800c2a4 <__gethex+0x198>
 800c38c:	f04f 0a03 	mov.w	sl, #3
 800c390:	e7b8      	b.n	800c304 <__gethex+0x1f8>
 800c392:	da0a      	bge.n	800c3aa <__gethex+0x29e>
 800c394:	1a37      	subs	r7, r6, r0
 800c396:	4621      	mov	r1, r4
 800c398:	ee18 0a10 	vmov	r0, s16
 800c39c:	463a      	mov	r2, r7
 800c39e:	f000 fc37 	bl	800cc10 <__lshift>
 800c3a2:	1bed      	subs	r5, r5, r7
 800c3a4:	4604      	mov	r4, r0
 800c3a6:	f100 0914 	add.w	r9, r0, #20
 800c3aa:	f04f 0a00 	mov.w	sl, #0
 800c3ae:	e7ae      	b.n	800c30e <__gethex+0x202>
 800c3b0:	f8d8 0004 	ldr.w	r0, [r8, #4]
 800c3b4:	42a8      	cmp	r0, r5
 800c3b6:	dd72      	ble.n	800c49e <__gethex+0x392>
 800c3b8:	1b45      	subs	r5, r0, r5
 800c3ba:	42ae      	cmp	r6, r5
 800c3bc:	dc36      	bgt.n	800c42c <__gethex+0x320>
 800c3be:	f8d8 300c 	ldr.w	r3, [r8, #12]
 800c3c2:	2b02      	cmp	r3, #2
 800c3c4:	d02a      	beq.n	800c41c <__gethex+0x310>
 800c3c6:	2b03      	cmp	r3, #3
 800c3c8:	d02c      	beq.n	800c424 <__gethex+0x318>
 800c3ca:	2b01      	cmp	r3, #1
 800c3cc:	d11c      	bne.n	800c408 <__gethex+0x2fc>
 800c3ce:	42ae      	cmp	r6, r5
 800c3d0:	d11a      	bne.n	800c408 <__gethex+0x2fc>
 800c3d2:	2e01      	cmp	r6, #1
 800c3d4:	d112      	bne.n	800c3fc <__gethex+0x2f0>
 800c3d6:	9a04      	ldr	r2, [sp, #16]
 800c3d8:	f8d8 3004 	ldr.w	r3, [r8, #4]
 800c3dc:	6013      	str	r3, [r2, #0]
 800c3de:	2301      	movs	r3, #1
 800c3e0:	6123      	str	r3, [r4, #16]
 800c3e2:	f8c9 3000 	str.w	r3, [r9]
 800c3e6:	9b14      	ldr	r3, [sp, #80]	; 0x50
 800c3e8:	2762      	movs	r7, #98	; 0x62
 800c3ea:	601c      	str	r4, [r3, #0]
 800c3ec:	e723      	b.n	800c236 <__gethex+0x12a>
 800c3ee:	bf00      	nop
 800c3f0:	0800ef98 	.word	0x0800ef98
 800c3f4:	0800ef20 	.word	0x0800ef20
 800c3f8:	0800ef31 	.word	0x0800ef31
 800c3fc:	1e71      	subs	r1, r6, #1
 800c3fe:	4620      	mov	r0, r4
 800c400:	f000 fe4a 	bl	800d098 <__any_on>
 800c404:	2800      	cmp	r0, #0
 800c406:	d1e6      	bne.n	800c3d6 <__gethex+0x2ca>
 800c408:	ee18 0a10 	vmov	r0, s16
 800c40c:	4621      	mov	r1, r4
 800c40e:	f000 f9e3 	bl	800c7d8 <_Bfree>
 800c412:	9a14      	ldr	r2, [sp, #80]	; 0x50
 800c414:	2300      	movs	r3, #0
 800c416:	6013      	str	r3, [r2, #0]
 800c418:	2750      	movs	r7, #80	; 0x50
 800c41a:	e70c      	b.n	800c236 <__gethex+0x12a>
 800c41c:	9b15      	ldr	r3, [sp, #84]	; 0x54
 800c41e:	2b00      	cmp	r3, #0
 800c420:	d1f2      	bne.n	800c408 <__gethex+0x2fc>
 800c422:	e7d8      	b.n	800c3d6 <__gethex+0x2ca>
 800c424:	9b15      	ldr	r3, [sp, #84]	; 0x54
 800c426:	2b00      	cmp	r3, #0
 800c428:	d1d5      	bne.n	800c3d6 <__gethex+0x2ca>
 800c42a:	e7ed      	b.n	800c408 <__gethex+0x2fc>
 800c42c:	1e6f      	subs	r7, r5, #1
 800c42e:	f1ba 0f00 	cmp.w	sl, #0
 800c432:	d131      	bne.n	800c498 <__gethex+0x38c>
 800c434:	b127      	cbz	r7, 800c440 <__gethex+0x334>
 800c436:	4639      	mov	r1, r7
 800c438:	4620      	mov	r0, r4
 800c43a:	f000 fe2d 	bl	800d098 <__any_on>
 800c43e:	4682      	mov	sl, r0
 800c440:	117b      	asrs	r3, r7, #5
 800c442:	2101      	movs	r1, #1
 800c444:	f859 3023 	ldr.w	r3, [r9, r3, lsl #2]
 800c448:	f007 071f 	and.w	r7, r7, #31
 800c44c:	fa01 f707 	lsl.w	r7, r1, r7
 800c450:	421f      	tst	r7, r3
 800c452:	4629      	mov	r1, r5
 800c454:	4620      	mov	r0, r4
 800c456:	bf18      	it	ne
 800c458:	f04a 0a02 	orrne.w	sl, sl, #2
 800c45c:	1b76      	subs	r6, r6, r5
 800c45e:	f7ff fded 	bl	800c03c <rshift>
 800c462:	f8d8 5004 	ldr.w	r5, [r8, #4]
 800c466:	2702      	movs	r7, #2
 800c468:	f1ba 0f00 	cmp.w	sl, #0
 800c46c:	d048      	beq.n	800c500 <__gethex+0x3f4>
 800c46e:	f8d8 300c 	ldr.w	r3, [r8, #12]
 800c472:	2b02      	cmp	r3, #2
 800c474:	d015      	beq.n	800c4a2 <__gethex+0x396>
 800c476:	2b03      	cmp	r3, #3
 800c478:	d017      	beq.n	800c4aa <__gethex+0x39e>
 800c47a:	2b01      	cmp	r3, #1
 800c47c:	d109      	bne.n	800c492 <__gethex+0x386>
 800c47e:	f01a 0f02 	tst.w	sl, #2
 800c482:	d006      	beq.n	800c492 <__gethex+0x386>
 800c484:	f8d9 0000 	ldr.w	r0, [r9]
 800c488:	ea4a 0a00 	orr.w	sl, sl, r0
 800c48c:	f01a 0f01 	tst.w	sl, #1
 800c490:	d10e      	bne.n	800c4b0 <__gethex+0x3a4>
 800c492:	f047 0710 	orr.w	r7, r7, #16
 800c496:	e033      	b.n	800c500 <__gethex+0x3f4>
 800c498:	f04f 0a01 	mov.w	sl, #1
 800c49c:	e7d0      	b.n	800c440 <__gethex+0x334>
 800c49e:	2701      	movs	r7, #1
 800c4a0:	e7e2      	b.n	800c468 <__gethex+0x35c>
 800c4a2:	9b15      	ldr	r3, [sp, #84]	; 0x54
 800c4a4:	f1c3 0301 	rsb	r3, r3, #1
 800c4a8:	9315      	str	r3, [sp, #84]	; 0x54
 800c4aa:	9b15      	ldr	r3, [sp, #84]	; 0x54
 800c4ac:	2b00      	cmp	r3, #0
 800c4ae:	d0f0      	beq.n	800c492 <__gethex+0x386>
 800c4b0:	f8d4 b010 	ldr.w	fp, [r4, #16]
 800c4b4:	f104 0314 	add.w	r3, r4, #20
 800c4b8:	ea4f 0a8b 	mov.w	sl, fp, lsl #2
 800c4bc:	eb03 018b 	add.w	r1, r3, fp, lsl #2
 800c4c0:	f04f 0c00 	mov.w	ip, #0
 800c4c4:	4618      	mov	r0, r3
 800c4c6:	f853 2b04 	ldr.w	r2, [r3], #4
 800c4ca:	f1b2 3fff 	cmp.w	r2, #4294967295
 800c4ce:	d01c      	beq.n	800c50a <__gethex+0x3fe>
 800c4d0:	3201      	adds	r2, #1
 800c4d2:	6002      	str	r2, [r0, #0]
 800c4d4:	2f02      	cmp	r7, #2
 800c4d6:	f104 0314 	add.w	r3, r4, #20
 800c4da:	d13f      	bne.n	800c55c <__gethex+0x450>
 800c4dc:	f8d8 2000 	ldr.w	r2, [r8]
 800c4e0:	3a01      	subs	r2, #1
 800c4e2:	42b2      	cmp	r2, r6
 800c4e4:	d10a      	bne.n	800c4fc <__gethex+0x3f0>
 800c4e6:	1171      	asrs	r1, r6, #5
 800c4e8:	2201      	movs	r2, #1
 800c4ea:	f853 3021 	ldr.w	r3, [r3, r1, lsl #2]
 800c4ee:	f006 061f 	and.w	r6, r6, #31
 800c4f2:	fa02 f606 	lsl.w	r6, r2, r6
 800c4f6:	421e      	tst	r6, r3
 800c4f8:	bf18      	it	ne
 800c4fa:	4617      	movne	r7, r2
 800c4fc:	f047 0720 	orr.w	r7, r7, #32
 800c500:	9b14      	ldr	r3, [sp, #80]	; 0x50
 800c502:	601c      	str	r4, [r3, #0]
 800c504:	9b04      	ldr	r3, [sp, #16]
 800c506:	601d      	str	r5, [r3, #0]
 800c508:	e695      	b.n	800c236 <__gethex+0x12a>
 800c50a:	4299      	cmp	r1, r3
 800c50c:	f843 cc04 	str.w	ip, [r3, #-4]
 800c510:	d8d8      	bhi.n	800c4c4 <__gethex+0x3b8>
 800c512:	68a3      	ldr	r3, [r4, #8]
 800c514:	459b      	cmp	fp, r3
 800c516:	db19      	blt.n	800c54c <__gethex+0x440>
 800c518:	6861      	ldr	r1, [r4, #4]
 800c51a:	ee18 0a10 	vmov	r0, s16
 800c51e:	3101      	adds	r1, #1
 800c520:	f000 f91a 	bl	800c758 <_Balloc>
 800c524:	4681      	mov	r9, r0
 800c526:	b918      	cbnz	r0, 800c530 <__gethex+0x424>
 800c528:	4b1a      	ldr	r3, [pc, #104]	; (800c594 <__gethex+0x488>)
 800c52a:	4602      	mov	r2, r0
 800c52c:	2184      	movs	r1, #132	; 0x84
 800c52e:	e6a8      	b.n	800c282 <__gethex+0x176>
 800c530:	6922      	ldr	r2, [r4, #16]
 800c532:	3202      	adds	r2, #2
 800c534:	f104 010c 	add.w	r1, r4, #12
 800c538:	0092      	lsls	r2, r2, #2
 800c53a:	300c      	adds	r0, #12
 800c53c:	f7fd f9a2 	bl	8009884 <memcpy>
 800c540:	4621      	mov	r1, r4
 800c542:	ee18 0a10 	vmov	r0, s16
 800c546:	f000 f947 	bl	800c7d8 <_Bfree>
 800c54a:	464c      	mov	r4, r9
 800c54c:	6923      	ldr	r3, [r4, #16]
 800c54e:	1c5a      	adds	r2, r3, #1
 800c550:	eb04 0383 	add.w	r3, r4, r3, lsl #2
 800c554:	6122      	str	r2, [r4, #16]
 800c556:	2201      	movs	r2, #1
 800c558:	615a      	str	r2, [r3, #20]
 800c55a:	e7bb      	b.n	800c4d4 <__gethex+0x3c8>
 800c55c:	6922      	ldr	r2, [r4, #16]
 800c55e:	455a      	cmp	r2, fp
 800c560:	dd0b      	ble.n	800c57a <__gethex+0x46e>
 800c562:	2101      	movs	r1, #1
 800c564:	4620      	mov	r0, r4
 800c566:	f7ff fd69 	bl	800c03c <rshift>
 800c56a:	f8d8 3008 	ldr.w	r3, [r8, #8]
 800c56e:	3501      	adds	r5, #1
 800c570:	42ab      	cmp	r3, r5
 800c572:	f6ff aed0 	blt.w	800c316 <__gethex+0x20a>
 800c576:	2701      	movs	r7, #1
 800c578:	e7c0      	b.n	800c4fc <__gethex+0x3f0>
 800c57a:	f016 061f 	ands.w	r6, r6, #31
 800c57e:	d0fa      	beq.n	800c576 <__gethex+0x46a>
 800c580:	4453      	add	r3, sl
 800c582:	f1c6 0620 	rsb	r6, r6, #32
 800c586:	f853 0c04 	ldr.w	r0, [r3, #-4]
 800c58a:	f000 f9d7 	bl	800c93c <__hi0bits>
 800c58e:	42b0      	cmp	r0, r6
 800c590:	dbe7      	blt.n	800c562 <__gethex+0x456>
 800c592:	e7f0      	b.n	800c576 <__gethex+0x46a>
 800c594:	0800ef20 	.word	0x0800ef20

0800c598 <L_shift>:
 800c598:	f1c2 0208 	rsb	r2, r2, #8
 800c59c:	0092      	lsls	r2, r2, #2
 800c59e:	b570      	push	{r4, r5, r6, lr}
 800c5a0:	f1c2 0620 	rsb	r6, r2, #32
 800c5a4:	6843      	ldr	r3, [r0, #4]
 800c5a6:	6804      	ldr	r4, [r0, #0]
 800c5a8:	fa03 f506 	lsl.w	r5, r3, r6
 800c5ac:	432c      	orrs	r4, r5
 800c5ae:	40d3      	lsrs	r3, r2
 800c5b0:	6004      	str	r4, [r0, #0]
 800c5b2:	f840 3f04 	str.w	r3, [r0, #4]!
 800c5b6:	4288      	cmp	r0, r1
 800c5b8:	d3f4      	bcc.n	800c5a4 <L_shift+0xc>
 800c5ba:	bd70      	pop	{r4, r5, r6, pc}

0800c5bc <__match>:
 800c5bc:	b530      	push	{r4, r5, lr}
 800c5be:	6803      	ldr	r3, [r0, #0]
 800c5c0:	3301      	adds	r3, #1
 800c5c2:	f811 4b01 	ldrb.w	r4, [r1], #1
 800c5c6:	b914      	cbnz	r4, 800c5ce <__match+0x12>
 800c5c8:	6003      	str	r3, [r0, #0]
 800c5ca:	2001      	movs	r0, #1
 800c5cc:	bd30      	pop	{r4, r5, pc}
 800c5ce:	f813 2b01 	ldrb.w	r2, [r3], #1
 800c5d2:	f1a2 0541 	sub.w	r5, r2, #65	; 0x41
 800c5d6:	2d19      	cmp	r5, #25
 800c5d8:	bf98      	it	ls
 800c5da:	3220      	addls	r2, #32
 800c5dc:	42a2      	cmp	r2, r4
 800c5de:	d0f0      	beq.n	800c5c2 <__match+0x6>
 800c5e0:	2000      	movs	r0, #0
 800c5e2:	e7f3      	b.n	800c5cc <__match+0x10>

0800c5e4 <__hexnan>:
 800c5e4:	e92d 4ff0 	stmdb	sp!, {r4, r5, r6, r7, r8, r9, sl, fp, lr}
 800c5e8:	680b      	ldr	r3, [r1, #0]
 800c5ea:	115e      	asrs	r6, r3, #5
 800c5ec:	eb02 0686 	add.w	r6, r2, r6, lsl #2
 800c5f0:	f013 031f 	ands.w	r3, r3, #31
 800c5f4:	b087      	sub	sp, #28
 800c5f6:	bf18      	it	ne
 800c5f8:	3604      	addne	r6, #4
 800c5fa:	2500      	movs	r5, #0
 800c5fc:	1f37      	subs	r7, r6, #4
 800c5fe:	4690      	mov	r8, r2
 800c600:	6802      	ldr	r2, [r0, #0]
 800c602:	9301      	str	r3, [sp, #4]
 800c604:	4682      	mov	sl, r0
 800c606:	f846 5c04 	str.w	r5, [r6, #-4]
 800c60a:	46b9      	mov	r9, r7
 800c60c:	463c      	mov	r4, r7
 800c60e:	9502      	str	r5, [sp, #8]
 800c610:	46ab      	mov	fp, r5
 800c612:	7851      	ldrb	r1, [r2, #1]
 800c614:	1c53      	adds	r3, r2, #1
 800c616:	9303      	str	r3, [sp, #12]
 800c618:	b341      	cbz	r1, 800c66c <__hexnan+0x88>
 800c61a:	4608      	mov	r0, r1
 800c61c:	9205      	str	r2, [sp, #20]
 800c61e:	9104      	str	r1, [sp, #16]
 800c620:	f7ff fd5e 	bl	800c0e0 <__hexdig_fun>
 800c624:	2800      	cmp	r0, #0
 800c626:	d14f      	bne.n	800c6c8 <__hexnan+0xe4>
 800c628:	9904      	ldr	r1, [sp, #16]
 800c62a:	9a05      	ldr	r2, [sp, #20]
 800c62c:	2920      	cmp	r1, #32
 800c62e:	d818      	bhi.n	800c662 <__hexnan+0x7e>
 800c630:	9b02      	ldr	r3, [sp, #8]
 800c632:	459b      	cmp	fp, r3
 800c634:	dd13      	ble.n	800c65e <__hexnan+0x7a>
 800c636:	454c      	cmp	r4, r9
 800c638:	d206      	bcs.n	800c648 <__hexnan+0x64>
 800c63a:	2d07      	cmp	r5, #7
 800c63c:	dc04      	bgt.n	800c648 <__hexnan+0x64>
 800c63e:	462a      	mov	r2, r5
 800c640:	4649      	mov	r1, r9
 800c642:	4620      	mov	r0, r4
 800c644:	f7ff ffa8 	bl	800c598 <L_shift>
 800c648:	4544      	cmp	r4, r8
 800c64a:	d950      	bls.n	800c6ee <__hexnan+0x10a>
 800c64c:	2300      	movs	r3, #0
 800c64e:	f1a4 0904 	sub.w	r9, r4, #4
 800c652:	f844 3c04 	str.w	r3, [r4, #-4]
 800c656:	f8cd b008 	str.w	fp, [sp, #8]
 800c65a:	464c      	mov	r4, r9
 800c65c:	461d      	mov	r5, r3
 800c65e:	9a03      	ldr	r2, [sp, #12]
 800c660:	e7d7      	b.n	800c612 <__hexnan+0x2e>
 800c662:	2929      	cmp	r1, #41	; 0x29
 800c664:	d156      	bne.n	800c714 <__hexnan+0x130>
 800c666:	3202      	adds	r2, #2
 800c668:	f8ca 2000 	str.w	r2, [sl]
 800c66c:	f1bb 0f00 	cmp.w	fp, #0
 800c670:	d050      	beq.n	800c714 <__hexnan+0x130>
 800c672:	454c      	cmp	r4, r9
 800c674:	d206      	bcs.n	800c684 <__hexnan+0xa0>
 800c676:	2d07      	cmp	r5, #7
 800c678:	dc04      	bgt.n	800c684 <__hexnan+0xa0>
 800c67a:	462a      	mov	r2, r5
 800c67c:	4649      	mov	r1, r9
 800c67e:	4620      	mov	r0, r4
 800c680:	f7ff ff8a 	bl	800c598 <L_shift>
 800c684:	4544      	cmp	r4, r8
 800c686:	d934      	bls.n	800c6f2 <__hexnan+0x10e>
 800c688:	f1a8 0204 	sub.w	r2, r8, #4
 800c68c:	4623      	mov	r3, r4
 800c68e:	f853 1b04 	ldr.w	r1, [r3], #4
 800c692:	f842 1f04 	str.w	r1, [r2, #4]!
 800c696:	429f      	cmp	r7, r3
 800c698:	d2f9      	bcs.n	800c68e <__hexnan+0xaa>
 800c69a:	1b3b      	subs	r3, r7, r4
 800c69c:	f023 0303 	bic.w	r3, r3, #3
 800c6a0:	3304      	adds	r3, #4
 800c6a2:	3401      	adds	r4, #1
 800c6a4:	3e03      	subs	r6, #3
 800c6a6:	42b4      	cmp	r4, r6
 800c6a8:	bf88      	it	hi
 800c6aa:	2304      	movhi	r3, #4
 800c6ac:	4443      	add	r3, r8
 800c6ae:	2200      	movs	r2, #0
 800c6b0:	f843 2b04 	str.w	r2, [r3], #4
 800c6b4:	429f      	cmp	r7, r3
 800c6b6:	d2fb      	bcs.n	800c6b0 <__hexnan+0xcc>
 800c6b8:	683b      	ldr	r3, [r7, #0]
 800c6ba:	b91b      	cbnz	r3, 800c6c4 <__hexnan+0xe0>
 800c6bc:	4547      	cmp	r7, r8
 800c6be:	d127      	bne.n	800c710 <__hexnan+0x12c>
 800c6c0:	2301      	movs	r3, #1
 800c6c2:	603b      	str	r3, [r7, #0]
 800c6c4:	2005      	movs	r0, #5
 800c6c6:	e026      	b.n	800c716 <__hexnan+0x132>
 800c6c8:	3501      	adds	r5, #1
 800c6ca:	2d08      	cmp	r5, #8
 800c6cc:	f10b 0b01 	add.w	fp, fp, #1
 800c6d0:	dd06      	ble.n	800c6e0 <__hexnan+0xfc>
 800c6d2:	4544      	cmp	r4, r8
 800c6d4:	d9c3      	bls.n	800c65e <__hexnan+0x7a>
 800c6d6:	2300      	movs	r3, #0
 800c6d8:	f844 3c04 	str.w	r3, [r4, #-4]
 800c6dc:	2501      	movs	r5, #1
 800c6de:	3c04      	subs	r4, #4
 800c6e0:	6822      	ldr	r2, [r4, #0]
 800c6e2:	f000 000f 	and.w	r0, r0, #15
 800c6e6:	ea40 1202 	orr.w	r2, r0, r2, lsl #4
 800c6ea:	6022      	str	r2, [r4, #0]
 800c6ec:	e7b7      	b.n	800c65e <__hexnan+0x7a>
 800c6ee:	2508      	movs	r5, #8
 800c6f0:	e7b5      	b.n	800c65e <__hexnan+0x7a>
 800c6f2:	9b01      	ldr	r3, [sp, #4]
 800c6f4:	2b00      	cmp	r3, #0
 800c6f6:	d0df      	beq.n	800c6b8 <__hexnan+0xd4>
 800c6f8:	f04f 32ff 	mov.w	r2, #4294967295
 800c6fc:	f1c3 0320 	rsb	r3, r3, #32
 800c700:	fa22 f303 	lsr.w	r3, r2, r3
 800c704:	f856 2c04 	ldr.w	r2, [r6, #-4]
 800c708:	401a      	ands	r2, r3
 800c70a:	f846 2c04 	str.w	r2, [r6, #-4]
 800c70e:	e7d3      	b.n	800c6b8 <__hexnan+0xd4>
 800c710:	3f04      	subs	r7, #4
 800c712:	e7d1      	b.n	800c6b8 <__hexnan+0xd4>
 800c714:	2004      	movs	r0, #4
 800c716:	b007      	add	sp, #28
 800c718:	e8bd 8ff0 	ldmia.w	sp!, {r4, r5, r6, r7, r8, r9, sl, fp, pc}

0800c71c <_localeconv_r>:
 800c71c:	4800      	ldr	r0, [pc, #0]	; (800c720 <_localeconv_r+0x4>)
 800c71e:	4770      	bx	lr
 800c720:	2000016c 	.word	0x2000016c

0800c724 <malloc>:
 800c724:	4b02      	ldr	r3, [pc, #8]	; (800c730 <malloc+0xc>)
 800c726:	4601      	mov	r1, r0
 800c728:	6818      	ldr	r0, [r3, #0]
 800c72a:	f000 bd59 	b.w	800d1e0 <_malloc_r>
 800c72e:	bf00      	nop
 800c730:	20000014 	.word	0x20000014

0800c734 <__ascii_mbtowc>:
 800c734:	b082      	sub	sp, #8
 800c736:	b901      	cbnz	r1, 800c73a <__ascii_mbtowc+0x6>
 800c738:	a901      	add	r1, sp, #4
 800c73a:	b142      	cbz	r2, 800c74e <__ascii_mbtowc+0x1a>
 800c73c:	b14b      	cbz	r3, 800c752 <__ascii_mbtowc+0x1e>
 800c73e:	7813      	ldrb	r3, [r2, #0]
 800c740:	600b      	str	r3, [r1, #0]
 800c742:	7812      	ldrb	r2, [r2, #0]
 800c744:	1e10      	subs	r0, r2, #0
 800c746:	bf18      	it	ne
 800c748:	2001      	movne	r0, #1
 800c74a:	b002      	add	sp, #8
 800c74c:	4770      	bx	lr
 800c74e:	4610      	mov	r0, r2
 800c750:	e7fb      	b.n	800c74a <__ascii_mbtowc+0x16>
 800c752:	f06f 0001 	mvn.w	r0, #1
 800c756:	e7f8      	b.n	800c74a <__ascii_mbtowc+0x16>

0800c758 <_Balloc>:
 800c758:	b570      	push	{r4, r5, r6, lr}
 800c75a:	6a46      	ldr	r6, [r0, #36]	; 0x24
 800c75c:	4604      	mov	r4, r0
 800c75e:	460d      	mov	r5, r1
 800c760:	b976      	cbnz	r6, 800c780 <_Balloc+0x28>
 800c762:	2010      	movs	r0, #16
 800c764:	f7ff ffde 	bl	800c724 <malloc>
 800c768:	4602      	mov	r2, r0
 800c76a:	6260      	str	r0, [r4, #36]	; 0x24
 800c76c:	b920      	cbnz	r0, 800c778 <_Balloc+0x20>
 800c76e:	4b18      	ldr	r3, [pc, #96]	; (800c7d0 <_Balloc+0x78>)
 800c770:	4818      	ldr	r0, [pc, #96]	; (800c7d4 <_Balloc+0x7c>)
 800c772:	2166      	movs	r1, #102	; 0x66
 800c774:	f000 ff3e 	bl	800d5f4 <__assert_func>
 800c778:	e9c0 6601 	strd	r6, r6, [r0, #4]
 800c77c:	6006      	str	r6, [r0, #0]
 800c77e:	60c6      	str	r6, [r0, #12]
 800c780:	6a66      	ldr	r6, [r4, #36]	; 0x24
 800c782:	68f3      	ldr	r3, [r6, #12]
 800c784:	b183      	cbz	r3, 800c7a8 <_Balloc+0x50>
 800c786:	6a63      	ldr	r3, [r4, #36]	; 0x24
 800c788:	68db      	ldr	r3, [r3, #12]
 800c78a:	f853 0025 	ldr.w	r0, [r3, r5, lsl #2]
 800c78e:	b9b8      	cbnz	r0, 800c7c0 <_Balloc+0x68>
 800c790:	2101      	movs	r1, #1
 800c792:	fa01 f605 	lsl.w	r6, r1, r5
 800c796:	1d72      	adds	r2, r6, #5
 800c798:	0092      	lsls	r2, r2, #2
 800c79a:	4620      	mov	r0, r4
 800c79c:	f000 fc9d 	bl	800d0da <_calloc_r>
 800c7a0:	b160      	cbz	r0, 800c7bc <_Balloc+0x64>
 800c7a2:	e9c0 5601 	strd	r5, r6, [r0, #4]
 800c7a6:	e00e      	b.n	800c7c6 <_Balloc+0x6e>
 800c7a8:	2221      	movs	r2, #33	; 0x21
 800c7aa:	2104      	movs	r1, #4
 800c7ac:	4620      	mov	r0, r4
 800c7ae:	f000 fc94 	bl	800d0da <_calloc_r>
 800c7b2:	6a63      	ldr	r3, [r4, #36]	; 0x24
 800c7b4:	60f0      	str	r0, [r6, #12]
 800c7b6:	68db      	ldr	r3, [r3, #12]
 800c7b8:	2b00      	cmp	r3, #0
 800c7ba:	d1e4      	bne.n	800c786 <_Balloc+0x2e>
 800c7bc:	2000      	movs	r0, #0
 800c7be:	bd70      	pop	{r4, r5, r6, pc}
 800c7c0:	6802      	ldr	r2, [r0, #0]
 800c7c2:	f843 2025 	str.w	r2, [r3, r5, lsl #2]
 800c7c6:	2300      	movs	r3, #0
 800c7c8:	e9c0 3303 	strd	r3, r3, [r0, #12]
 800c7cc:	e7f7      	b.n	800c7be <_Balloc+0x66>
 800c7ce:	bf00      	nop
 800c7d0:	0800eeae 	.word	0x0800eeae
 800c7d4:	0800efac 	.word	0x0800efac

0800c7d8 <_Bfree>:
 800c7d8:	b570      	push	{r4, r5, r6, lr}
 800c7da:	6a46      	ldr	r6, [r0, #36]	; 0x24
 800c7dc:	4605      	mov	r5, r0
 800c7de:	460c      	mov	r4, r1
 800c7e0:	b976      	cbnz	r6, 800c800 <_Bfree+0x28>
 800c7e2:	2010      	movs	r0, #16
 800c7e4:	f7ff ff9e 	bl	800c724 <malloc>
 800c7e8:	4602      	mov	r2, r0
 800c7ea:	6268      	str	r0, [r5, #36]	; 0x24
 800c7ec:	b920      	cbnz	r0, 800c7f8 <_Bfree+0x20>
 800c7ee:	4b09      	ldr	r3, [pc, #36]	; (800c814 <_Bfree+0x3c>)
 800c7f0:	4809      	ldr	r0, [pc, #36]	; (800c818 <_Bfree+0x40>)
 800c7f2:	218a      	movs	r1, #138	; 0x8a
 800c7f4:	f000 fefe 	bl	800d5f4 <__assert_func>
 800c7f8:	e9c0 6601 	strd	r6, r6, [r0, #4]
 800c7fc:	6006      	str	r6, [r0, #0]
 800c7fe:	60c6      	str	r6, [r0, #12]
 800c800:	b13c      	cbz	r4, 800c812 <_Bfree+0x3a>
 800c802:	6a6b      	ldr	r3, [r5, #36]	; 0x24
 800c804:	6862      	ldr	r2, [r4, #4]
 800c806:	68db      	ldr	r3, [r3, #12]
 800c808:	f853 1022 	ldr.w	r1, [r3, r2, lsl #2]
 800c80c:	6021      	str	r1, [r4, #0]
 800c80e:	f843 4022 	str.w	r4, [r3, r2, lsl #2]
 800c812:	bd70      	pop	{r4, r5, r6, pc}
 800c814:	0800eeae 	.word	0x0800eeae
 800c818:	0800efac 	.word	0x0800efac

0800c81c <__multadd>:
 800c81c:	e92d 41f0 	stmdb	sp!, {r4, r5, r6, r7, r8, lr}
 800c820:	690d      	ldr	r5, [r1, #16]
 800c822:	4607      	mov	r7, r0
 800c824:	460c      	mov	r4, r1
 800c826:	461e      	mov	r6, r3
 800c828:	f101 0c14 	add.w	ip, r1, #20
 800c82c:	2000      	movs	r0, #0
 800c82e:	f8dc 3000 	ldr.w	r3, [ip]
 800c832:	b299      	uxth	r1, r3
 800c834:	fb02 6101 	mla	r1, r2, r1, r6
 800c838:	0c1e      	lsrs	r6, r3, #16
 800c83a:	0c0b      	lsrs	r3, r1, #16
 800c83c:	fb02 3306 	mla	r3, r2, r6, r3
 800c840:	b289      	uxth	r1, r1
 800c842:	3001      	adds	r0, #1
 800c844:	eb01 4103 	add.w	r1, r1, r3, lsl #16
 800c848:	4285      	cmp	r5, r0
 800c84a:	f84c 1b04 	str.w	r1, [ip], #4
 800c84e:	ea4f 4613 	mov.w	r6, r3, lsr #16
 800c852:	dcec      	bgt.n	800c82e <__multadd+0x12>
 800c854:	b30e      	cbz	r6, 800c89a <__multadd+0x7e>
 800c856:	68a3      	ldr	r3, [r4, #8]
 800c858:	42ab      	cmp	r3, r5
 800c85a:	dc19      	bgt.n	800c890 <__multadd+0x74>
 800c85c:	6861      	ldr	r1, [r4, #4]
 800c85e:	4638      	mov	r0, r7
 800c860:	3101      	adds	r1, #1
 800c862:	f7ff ff79 	bl	800c758 <_Balloc>
 800c866:	4680      	mov	r8, r0
 800c868:	b928      	cbnz	r0, 800c876 <__multadd+0x5a>
 800c86a:	4602      	mov	r2, r0
 800c86c:	4b0c      	ldr	r3, [pc, #48]	; (800c8a0 <__multadd+0x84>)
 800c86e:	480d      	ldr	r0, [pc, #52]	; (800c8a4 <__multadd+0x88>)
 800c870:	21b5      	movs	r1, #181	; 0xb5
 800c872:	f000 febf 	bl	800d5f4 <__assert_func>
 800c876:	6922      	ldr	r2, [r4, #16]
 800c878:	3202      	adds	r2, #2
 800c87a:	f104 010c 	add.w	r1, r4, #12
 800c87e:	0092      	lsls	r2, r2, #2
 800c880:	300c      	adds	r0, #12
 800c882:	f7fc ffff 	bl	8009884 <memcpy>
 800c886:	4621      	mov	r1, r4
 800c888:	4638      	mov	r0, r7
 800c88a:	f7ff ffa5 	bl	800c7d8 <_Bfree>
 800c88e:	4644      	mov	r4, r8
 800c890:	eb04 0385 	add.w	r3, r4, r5, lsl #2
 800c894:	3501      	adds	r5, #1
 800c896:	615e      	str	r6, [r3, #20]
 800c898:	6125      	str	r5, [r4, #16]
 800c89a:	4620      	mov	r0, r4
 800c89c:	e8bd 81f0 	ldmia.w	sp!, {r4, r5, r6, r7, r8, pc}
 800c8a0:	0800ef20 	.word	0x0800ef20
 800c8a4:	0800efac 	.word	0x0800efac

0800c8a8 <__s2b>:
 800c8a8:	e92d 43f8 	stmdb	sp!, {r3, r4, r5, r6, r7, r8, r9, lr}
 800c8ac:	460c      	mov	r4, r1
 800c8ae:	4615      	mov	r5, r2
 800c8b0:	461f      	mov	r7, r3
 800c8b2:	2209      	movs	r2, #9
 800c8b4:	3308      	adds	r3, #8
 800c8b6:	4606      	mov	r6, r0
 800c8b8:	fb93 f3f2 	sdiv	r3, r3, r2
 800c8bc:	2100      	movs	r1, #0
 800c8be:	2201      	movs	r2, #1
 800c8c0:	429a      	cmp	r2, r3
 800c8c2:	db09      	blt.n	800c8d8 <__s2b+0x30>
 800c8c4:	4630      	mov	r0, r6
 800c8c6:	f7ff ff47 	bl	800c758 <_Balloc>
 800c8ca:	b940      	cbnz	r0, 800c8de <__s2b+0x36>
 800c8cc:	4602      	mov	r2, r0
 800c8ce:	4b19      	ldr	r3, [pc, #100]	; (800c934 <__s2b+0x8c>)
 800c8d0:	4819      	ldr	r0, [pc, #100]	; (800c938 <__s2b+0x90>)
 800c8d2:	21ce      	movs	r1, #206	; 0xce
 800c8d4:	f000 fe8e 	bl	800d5f4 <__assert_func>
 800c8d8:	0052      	lsls	r2, r2, #1
 800c8da:	3101      	adds	r1, #1
 800c8dc:	e7f0      	b.n	800c8c0 <__s2b+0x18>
 800c8de:	9b08      	ldr	r3, [sp, #32]
 800c8e0:	6143      	str	r3, [r0, #20]
 800c8e2:	2d09      	cmp	r5, #9
 800c8e4:	f04f 0301 	mov.w	r3, #1
 800c8e8:	6103      	str	r3, [r0, #16]
 800c8ea:	dd16      	ble.n	800c91a <__s2b+0x72>
 800c8ec:	f104 0909 	add.w	r9, r4, #9
 800c8f0:	46c8      	mov	r8, r9
 800c8f2:	442c      	add	r4, r5
 800c8f4:	f818 3b01 	ldrb.w	r3, [r8], #1
 800c8f8:	4601      	mov	r1, r0
 800c8fa:	3b30      	subs	r3, #48	; 0x30
 800c8fc:	220a      	movs	r2, #10
 800c8fe:	4630      	mov	r0, r6
 800c900:	f7ff ff8c 	bl	800c81c <__multadd>
 800c904:	45a0      	cmp	r8, r4
 800c906:	d1f5      	bne.n	800c8f4 <__s2b+0x4c>
 800c908:	f1a5 0408 	sub.w	r4, r5, #8
 800c90c:	444c      	add	r4, r9
 800c90e:	1b2d      	subs	r5, r5, r4
 800c910:	1963      	adds	r3, r4, r5
 800c912:	42bb      	cmp	r3, r7
 800c914:	db04      	blt.n	800c920 <__s2b+0x78>
 800c916:	e8bd 83f8 	ldmia.w	sp!, {r3, r4, r5, r6, r7, r8, r9, pc}
 800c91a:	340a      	adds	r4, #10
 800c91c:	2509      	movs	r5, #9
 800c91e:	e7f6      	b.n	800c90e <__s2b+0x66>
 800c920:	f814 3b01 	ldrb.w	r3, [r4], #1
 800c924:	4601      	mov	r1, r0
 800c926:	3b30      	subs	r3, #48	; 0x30
 800c928:	220a      	movs	r2, #10
 800c92a:	4630      	mov	r0, r6
 800c92c:	f7ff ff76 	bl	800c81c <__multadd>
 800c930:	e7ee      	b.n	800c910 <__s2b+0x68>
 800c932:	bf00      	nop
 800c934:	0800ef20 	.word	0x0800ef20
 800c938:	0800efac 	.word	0x0800efac

0800c93c <__hi0bits>:
 800c93c:	0c03      	lsrs	r3, r0, #16
 800c93e:	041b      	lsls	r3, r3, #16
 800c940:	b9d3      	cbnz	r3, 800c978 <__hi0bits+0x3c>
 800c942:	0400      	lsls	r0, r0, #16
 800c944:	2310      	movs	r3, #16
 800c946:	f010 4f7f 	tst.w	r0, #4278190080	; 0xff000000
 800c94a:	bf04      	itt	eq
 800c94c:	0200      	lsleq	r0, r0, #8
 800c94e:	3308      	addeq	r3, #8
 800c950:	f010 4f70 	tst.w	r0, #4026531840	; 0xf0000000
 800c954:	bf04      	itt	eq
 800c956:	0100      	lsleq	r0, r0, #4
 800c958:	3304      	addeq	r3, #4
 800c95a:	f010 4f40 	tst.w	r0, #3221225472	; 0xc0000000
 800c95e:	bf04      	itt	eq
 800c960:	0080      	lsleq	r0, r0, #2
 800c962:	3302      	addeq	r3, #2
 800c964:	2800      	cmp	r0, #0
 800c966:	db05      	blt.n	800c974 <__hi0bits+0x38>
 800c968:	f010 4f80 	tst.w	r0, #1073741824	; 0x40000000
 800c96c:	f103 0301 	add.w	r3, r3, #1
 800c970:	bf08      	it	eq
 800c972:	2320      	moveq	r3, #32
 800c974:	4618      	mov	r0, r3
 800c976:	4770      	bx	lr
 800c978:	2300      	movs	r3, #0
 800c97a:	e7e4      	b.n	800c946 <__hi0bits+0xa>

0800c97c <__lo0bits>:
 800c97c:	6803      	ldr	r3, [r0, #0]
 800c97e:	f013 0207 	ands.w	r2, r3, #7
 800c982:	4601      	mov	r1, r0
 800c984:	d00b      	beq.n	800c99e <__lo0bits+0x22>
 800c986:	07da      	lsls	r2, r3, #31
 800c988:	d423      	bmi.n	800c9d2 <__lo0bits+0x56>
 800c98a:	0798      	lsls	r0, r3, #30
 800c98c:	bf49      	itett	mi
 800c98e:	085b      	lsrmi	r3, r3, #1
 800c990:	089b      	lsrpl	r3, r3, #2
 800c992:	2001      	movmi	r0, #1
 800c994:	600b      	strmi	r3, [r1, #0]
 800c996:	bf5c      	itt	pl
 800c998:	600b      	strpl	r3, [r1, #0]
 800c99a:	2002      	movpl	r0, #2
 800c99c:	4770      	bx	lr
 800c99e:	b298      	uxth	r0, r3
 800c9a0:	b9a8      	cbnz	r0, 800c9ce <__lo0bits+0x52>
 800c9a2:	0c1b      	lsrs	r3, r3, #16
 800c9a4:	2010      	movs	r0, #16
 800c9a6:	b2da      	uxtb	r2, r3
 800c9a8:	b90a      	cbnz	r2, 800c9ae <__lo0bits+0x32>
 800c9aa:	3008      	adds	r0, #8
 800c9ac:	0a1b      	lsrs	r3, r3, #8
 800c9ae:	071a      	lsls	r2, r3, #28
 800c9b0:	bf04      	itt	eq
 800c9b2:	091b      	lsreq	r3, r3, #4
 800c9b4:	3004      	addeq	r0, #4
 800c9b6:	079a      	lsls	r2, r3, #30
 800c9b8:	bf04      	itt	eq
 800c9ba:	089b      	lsreq	r3, r3, #2
 800c9bc:	3002      	addeq	r0, #2
 800c9be:	07da      	lsls	r2, r3, #31
 800c9c0:	d403      	bmi.n	800c9ca <__lo0bits+0x4e>
 800c9c2:	085b      	lsrs	r3, r3, #1
 800c9c4:	f100 0001 	add.w	r0, r0, #1
 800c9c8:	d005      	beq.n	800c9d6 <__lo0bits+0x5a>
 800c9ca:	600b      	str	r3, [r1, #0]
 800c9cc:	4770      	bx	lr
 800c9ce:	4610      	mov	r0, r2
 800c9d0:	e7e9      	b.n	800c9a6 <__lo0bits+0x2a>
 800c9d2:	2000      	movs	r0, #0
 800c9d4:	4770      	bx	lr
 800c9d6:	2020      	movs	r0, #32
 800c9d8:	4770      	bx	lr
	...

0800c9dc <__i2b>:
 800c9dc:	b510      	push	{r4, lr}
 800c9de:	460c      	mov	r4, r1
 800c9e0:	2101      	movs	r1, #1
 800c9e2:	f7ff feb9 	bl	800c758 <_Balloc>
 800c9e6:	4602      	mov	r2, r0
 800c9e8:	b928      	cbnz	r0, 800c9f6 <__i2b+0x1a>
 800c9ea:	4b05      	ldr	r3, [pc, #20]	; (800ca00 <__i2b+0x24>)
 800c9ec:	4805      	ldr	r0, [pc, #20]	; (800ca04 <__i2b+0x28>)
 800c9ee:	f44f 71a0 	mov.w	r1, #320	; 0x140
 800c9f2:	f000 fdff 	bl	800d5f4 <__assert_func>
 800c9f6:	2301      	movs	r3, #1
 800c9f8:	6144      	str	r4, [r0, #20]
 800c9fa:	6103      	str	r3, [r0, #16]
 800c9fc:	bd10      	pop	{r4, pc}
 800c9fe:	bf00      	nop
 800ca00:	0800ef20 	.word	0x0800ef20
 800ca04:	0800efac 	.word	0x0800efac

0800ca08 <__multiply>:
 800ca08:	e92d 4ff0 	stmdb	sp!, {r4, r5, r6, r7, r8, r9, sl, fp, lr}
 800ca0c:	4691      	mov	r9, r2
 800ca0e:	690a      	ldr	r2, [r1, #16]
 800ca10:	f8d9 3010 	ldr.w	r3, [r9, #16]
 800ca14:	429a      	cmp	r2, r3
 800ca16:	bfb8      	it	lt
 800ca18:	460b      	movlt	r3, r1
 800ca1a:	460c      	mov	r4, r1
 800ca1c:	bfbc      	itt	lt
 800ca1e:	464c      	movlt	r4, r9
 800ca20:	4699      	movlt	r9, r3
 800ca22:	6927      	ldr	r7, [r4, #16]
 800ca24:	f8d9 a010 	ldr.w	sl, [r9, #16]
 800ca28:	68a3      	ldr	r3, [r4, #8]
 800ca2a:	6861      	ldr	r1, [r4, #4]
 800ca2c:	eb07 060a 	add.w	r6, r7, sl
 800ca30:	42b3      	cmp	r3, r6
 800ca32:	b085      	sub	sp, #20
 800ca34:	bfb8      	it	lt
 800ca36:	3101      	addlt	r1, #1
 800ca38:	f7ff fe8e 	bl	800c758 <_Balloc>
 800ca3c:	b930      	cbnz	r0, 800ca4c <__multiply+0x44>
 800ca3e:	4602      	mov	r2, r0
 800ca40:	4b44      	ldr	r3, [pc, #272]	; (800cb54 <__multiply+0x14c>)
 800ca42:	4845      	ldr	r0, [pc, #276]	; (800cb58 <__multiply+0x150>)
 800ca44:	f240 115d 	movw	r1, #349	; 0x15d
 800ca48:	f000 fdd4 	bl	800d5f4 <__assert_func>
 800ca4c:	f100 0514 	add.w	r5, r0, #20
 800ca50:	eb05 0886 	add.w	r8, r5, r6, lsl #2
 800ca54:	462b      	mov	r3, r5
 800ca56:	2200      	movs	r2, #0
 800ca58:	4543      	cmp	r3, r8
 800ca5a:	d321      	bcc.n	800caa0 <__multiply+0x98>
 800ca5c:	f104 0314 	add.w	r3, r4, #20
 800ca60:	eb03 0787 	add.w	r7, r3, r7, lsl #2
 800ca64:	f109 0314 	add.w	r3, r9, #20
 800ca68:	eb03 028a 	add.w	r2, r3, sl, lsl #2
 800ca6c:	9202      	str	r2, [sp, #8]
 800ca6e:	1b3a      	subs	r2, r7, r4
 800ca70:	3a15      	subs	r2, #21
 800ca72:	f022 0203 	bic.w	r2, r2, #3
 800ca76:	3204      	adds	r2, #4
 800ca78:	f104 0115 	add.w	r1, r4, #21
 800ca7c:	428f      	cmp	r7, r1
 800ca7e:	bf38      	it	cc
 800ca80:	2204      	movcc	r2, #4
 800ca82:	9201      	str	r2, [sp, #4]
 800ca84:	9a02      	ldr	r2, [sp, #8]
 800ca86:	9303      	str	r3, [sp, #12]
 800ca88:	429a      	cmp	r2, r3
 800ca8a:	d80c      	bhi.n	800caa6 <__multiply+0x9e>
 800ca8c:	2e00      	cmp	r6, #0
 800ca8e:	dd03      	ble.n	800ca98 <__multiply+0x90>
 800ca90:	f858 3d04 	ldr.w	r3, [r8, #-4]!
 800ca94:	2b00      	cmp	r3, #0
 800ca96:	d05a      	beq.n	800cb4e <__multiply+0x146>
 800ca98:	6106      	str	r6, [r0, #16]
 800ca9a:	b005      	add	sp, #20
 800ca9c:	e8bd 8ff0 	ldmia.w	sp!, {r4, r5, r6, r7, r8, r9, sl, fp, pc}
 800caa0:	f843 2b04 	str.w	r2, [r3], #4
 800caa4:	e7d8      	b.n	800ca58 <__multiply+0x50>
 800caa6:	f8b3 a000 	ldrh.w	sl, [r3]
 800caaa:	f1ba 0f00 	cmp.w	sl, #0
 800caae:	d024      	beq.n	800cafa <__multiply+0xf2>
 800cab0:	f104 0e14 	add.w	lr, r4, #20
 800cab4:	46a9      	mov	r9, r5
 800cab6:	f04f 0c00 	mov.w	ip, #0
 800caba:	f85e 2b04 	ldr.w	r2, [lr], #4
 800cabe:	f8d9 1000 	ldr.w	r1, [r9]
 800cac2:	fa1f fb82 	uxth.w	fp, r2
 800cac6:	b289      	uxth	r1, r1
 800cac8:	fb0a 110b 	mla	r1, sl, fp, r1
 800cacc:	ea4f 4b12 	mov.w	fp, r2, lsr #16
 800cad0:	f8d9 2000 	ldr.w	r2, [r9]
 800cad4:	4461      	add	r1, ip
 800cad6:	ea4f 4c12 	mov.w	ip, r2, lsr #16
 800cada:	fb0a c20b 	mla	r2, sl, fp, ip
 800cade:	eb02 4211 	add.w	r2, r2, r1, lsr #16
 800cae2:	b289      	uxth	r1, r1
 800cae4:	ea41 4102 	orr.w	r1, r1, r2, lsl #16
 800cae8:	4577      	cmp	r7, lr
 800caea:	f849 1b04 	str.w	r1, [r9], #4
 800caee:	ea4f 4c12 	mov.w	ip, r2, lsr #16
 800caf2:	d8e2      	bhi.n	800caba <__multiply+0xb2>
 800caf4:	9a01      	ldr	r2, [sp, #4]
 800caf6:	f845 c002 	str.w	ip, [r5, r2]
 800cafa:	9a03      	ldr	r2, [sp, #12]
 800cafc:	f8b2 9002 	ldrh.w	r9, [r2, #2]
 800cb00:	3304      	adds	r3, #4
 800cb02:	f1b9 0f00 	cmp.w	r9, #0
 800cb06:	d020      	beq.n	800cb4a <__multiply+0x142>
 800cb08:	6829      	ldr	r1, [r5, #0]
 800cb0a:	f104 0c14 	add.w	ip, r4, #20
 800cb0e:	46ae      	mov	lr, r5
 800cb10:	f04f 0a00 	mov.w	sl, #0
 800cb14:	f8bc b000 	ldrh.w	fp, [ip]
 800cb18:	f8be 2002 	ldrh.w	r2, [lr, #2]
 800cb1c:	fb09 220b 	mla	r2, r9, fp, r2
 800cb20:	4492      	add	sl, r2
 800cb22:	b289      	uxth	r1, r1
 800cb24:	ea41 410a 	orr.w	r1, r1, sl, lsl #16
 800cb28:	f84e 1b04 	str.w	r1, [lr], #4
 800cb2c:	f85c 2b04 	ldr.w	r2, [ip], #4
 800cb30:	f8be 1000 	ldrh.w	r1, [lr]
 800cb34:	0c12      	lsrs	r2, r2, #16
 800cb36:	fb09 1102 	mla	r1, r9, r2, r1
 800cb3a:	eb01 411a 	add.w	r1, r1, sl, lsr #16
 800cb3e:	4567      	cmp	r7, ip
 800cb40:	ea4f 4a11 	mov.w	sl, r1, lsr #16
 800cb44:	d8e6      	bhi.n	800cb14 <__multiply+0x10c>
 800cb46:	9a01      	ldr	r2, [sp, #4]
 800cb48:	50a9      	str	r1, [r5, r2]
 800cb4a:	3504      	adds	r5, #4
 800cb4c:	e79a      	b.n	800ca84 <__multiply+0x7c>
 800cb4e:	3e01      	subs	r6, #1
 800cb50:	e79c      	b.n	800ca8c <__multiply+0x84>
 800cb52:	bf00      	nop
 800cb54:	0800ef20 	.word	0x0800ef20
 800cb58:	0800efac 	.word	0x0800efac

0800cb5c <__pow5mult>:
 800cb5c:	e92d 43f8 	stmdb	sp!, {r3, r4, r5, r6, r7, r8, r9, lr}
 800cb60:	4615      	mov	r5, r2
 800cb62:	f012 0203 	ands.w	r2, r2, #3
 800cb66:	4606      	mov	r6, r0
 800cb68:	460f      	mov	r7, r1
 800cb6a:	d007      	beq.n	800cb7c <__pow5mult+0x20>
 800cb6c:	4c25      	ldr	r4, [pc, #148]	; (800cc04 <__pow5mult+0xa8>)
 800cb6e:	3a01      	subs	r2, #1
 800cb70:	2300      	movs	r3, #0
 800cb72:	f854 2022 	ldr.w	r2, [r4, r2, lsl #2]
 800cb76:	f7ff fe51 	bl	800c81c <__multadd>
 800cb7a:	4607      	mov	r7, r0
 800cb7c:	10ad      	asrs	r5, r5, #2
 800cb7e:	d03d      	beq.n	800cbfc <__pow5mult+0xa0>
 800cb80:	6a74      	ldr	r4, [r6, #36]	; 0x24
 800cb82:	b97c      	cbnz	r4, 800cba4 <__pow5mult+0x48>
 800cb84:	2010      	movs	r0, #16
 800cb86:	f7ff fdcd 	bl	800c724 <malloc>
 800cb8a:	4602      	mov	r2, r0
 800cb8c:	6270      	str	r0, [r6, #36]	; 0x24
 800cb8e:	b928      	cbnz	r0, 800cb9c <__pow5mult+0x40>
 800cb90:	4b1d      	ldr	r3, [pc, #116]	; (800cc08 <__pow5mult+0xac>)
 800cb92:	481e      	ldr	r0, [pc, #120]	; (800cc0c <__pow5mult+0xb0>)
 800cb94:	f44f 71d7 	mov.w	r1, #430	; 0x1ae
 800cb98:	f000 fd2c 	bl	800d5f4 <__assert_func>
 800cb9c:	e9c0 4401 	strd	r4, r4, [r0, #4]
 800cba0:	6004      	str	r4, [r0, #0]
 800cba2:	60c4      	str	r4, [r0, #12]
 800cba4:	f8d6 8024 	ldr.w	r8, [r6, #36]	; 0x24
 800cba8:	f8d8 4008 	ldr.w	r4, [r8, #8]
 800cbac:	b94c      	cbnz	r4, 800cbc2 <__pow5mult+0x66>
 800cbae:	f240 2171 	movw	r1, #625	; 0x271
 800cbb2:	4630      	mov	r0, r6
 800cbb4:	f7ff ff12 	bl	800c9dc <__i2b>
 800cbb8:	2300      	movs	r3, #0
 800cbba:	f8c8 0008 	str.w	r0, [r8, #8]
 800cbbe:	4604      	mov	r4, r0
 800cbc0:	6003      	str	r3, [r0, #0]
 800cbc2:	f04f 0900 	mov.w	r9, #0
 800cbc6:	07eb      	lsls	r3, r5, #31
 800cbc8:	d50a      	bpl.n	800cbe0 <__pow5mult+0x84>
 800cbca:	4639      	mov	r1, r7
 800cbcc:	4622      	mov	r2, r4
 800cbce:	4630      	mov	r0, r6
 800cbd0:	f7ff ff1a 	bl	800ca08 <__multiply>
 800cbd4:	4639      	mov	r1, r7
 800cbd6:	4680      	mov	r8, r0
 800cbd8:	4630      	mov	r0, r6
 800cbda:	f7ff fdfd 	bl	800c7d8 <_Bfree>
 800cbde:	4647      	mov	r7, r8
 800cbe0:	106d      	asrs	r5, r5, #1
 800cbe2:	d00b      	beq.n	800cbfc <__pow5mult+0xa0>
 800cbe4:	6820      	ldr	r0, [r4, #0]
 800cbe6:	b938      	cbnz	r0, 800cbf8 <__pow5mult+0x9c>
 800cbe8:	4622      	mov	r2, r4
 800cbea:	4621      	mov	r1, r4
 800cbec:	4630      	mov	r0, r6
 800cbee:	f7ff ff0b 	bl	800ca08 <__multiply>
 800cbf2:	6020      	str	r0, [r4, #0]
 800cbf4:	f8c0 9000 	str.w	r9, [r0]
 800cbf8:	4604      	mov	r4, r0
 800cbfa:	e7e4      	b.n	800cbc6 <__pow5mult+0x6a>
 800cbfc:	4638      	mov	r0, r7
 800cbfe:	e8bd 83f8 	ldmia.w	sp!, {r3, r4, r5, r6, r7, r8, r9, pc}
 800cc02:	bf00      	nop
 800cc04:	0800f0f8 	.word	0x0800f0f8
 800cc08:	0800eeae 	.word	0x0800eeae
 800cc0c:	0800efac 	.word	0x0800efac

0800cc10 <__lshift>:
 800cc10:	e92d 47f0 	stmdb	sp!, {r4, r5, r6, r7, r8, r9, sl, lr}
 800cc14:	460c      	mov	r4, r1
 800cc16:	6849      	ldr	r1, [r1, #4]
 800cc18:	6923      	ldr	r3, [r4, #16]
 800cc1a:	eb03 1862 	add.w	r8, r3, r2, asr #5
 800cc1e:	68a3      	ldr	r3, [r4, #8]
 800cc20:	4607      	mov	r7, r0
 800cc22:	4691      	mov	r9, r2
 800cc24:	ea4f 1a62 	mov.w	sl, r2, asr #5
 800cc28:	f108 0601 	add.w	r6, r8, #1
 800cc2c:	42b3      	cmp	r3, r6
 800cc2e:	db0b      	blt.n	800cc48 <__lshift+0x38>
 800cc30:	4638      	mov	r0, r7
 800cc32:	f7ff fd91 	bl	800c758 <_Balloc>
 800cc36:	4605      	mov	r5, r0
 800cc38:	b948      	cbnz	r0, 800cc4e <__lshift+0x3e>
 800cc3a:	4602      	mov	r2, r0
 800cc3c:	4b2a      	ldr	r3, [pc, #168]	; (800cce8 <__lshift+0xd8>)
 800cc3e:	482b      	ldr	r0, [pc, #172]	; (800ccec <__lshift+0xdc>)
 800cc40:	f240 11d9 	movw	r1, #473	; 0x1d9
 800cc44:	f000 fcd6 	bl	800d5f4 <__assert_func>
 800cc48:	3101      	adds	r1, #1
 800cc4a:	005b      	lsls	r3, r3, #1
 800cc4c:	e7ee      	b.n	800cc2c <__lshift+0x1c>
 800cc4e:	2300      	movs	r3, #0
 800cc50:	f100 0114 	add.w	r1, r0, #20
 800cc54:	f100 0210 	add.w	r2, r0, #16
 800cc58:	4618      	mov	r0, r3
 800cc5a:	4553      	cmp	r3, sl
 800cc5c:	db37      	blt.n	800ccce <__lshift+0xbe>
 800cc5e:	6920      	ldr	r0, [r4, #16]
 800cc60:	ea2a 7aea 	bic.w	sl, sl, sl, asr #31
 800cc64:	f104 0314 	add.w	r3, r4, #20
 800cc68:	f019 091f 	ands.w	r9, r9, #31
 800cc6c:	eb01 018a 	add.w	r1, r1, sl, lsl #2
 800cc70:	eb03 0080 	add.w	r0, r3, r0, lsl #2
 800cc74:	d02f      	beq.n	800ccd6 <__lshift+0xc6>
 800cc76:	f1c9 0e20 	rsb	lr, r9, #32
 800cc7a:	468a      	mov	sl, r1
 800cc7c:	f04f 0c00 	mov.w	ip, #0
 800cc80:	681a      	ldr	r2, [r3, #0]
 800cc82:	fa02 f209 	lsl.w	r2, r2, r9
 800cc86:	ea42 020c 	orr.w	r2, r2, ip
 800cc8a:	f84a 2b04 	str.w	r2, [sl], #4
 800cc8e:	f853 2b04 	ldr.w	r2, [r3], #4
 800cc92:	4298      	cmp	r0, r3
 800cc94:	fa22 fc0e 	lsr.w	ip, r2, lr
 800cc98:	d8f2      	bhi.n	800cc80 <__lshift+0x70>
 800cc9a:	1b03      	subs	r3, r0, r4
 800cc9c:	3b15      	subs	r3, #21
 800cc9e:	f023 0303 	bic.w	r3, r3, #3
 800cca2:	3304      	adds	r3, #4
 800cca4:	f104 0215 	add.w	r2, r4, #21
 800cca8:	4290      	cmp	r0, r2
 800ccaa:	bf38      	it	cc
 800ccac:	2304      	movcc	r3, #4
 800ccae:	f841 c003 	str.w	ip, [r1, r3]
 800ccb2:	f1bc 0f00 	cmp.w	ip, #0
 800ccb6:	d001      	beq.n	800ccbc <__lshift+0xac>
 800ccb8:	f108 0602 	add.w	r6, r8, #2
 800ccbc:	3e01      	subs	r6, #1
 800ccbe:	4638      	mov	r0, r7
 800ccc0:	612e      	str	r6, [r5, #16]
 800ccc2:	4621      	mov	r1, r4
 800ccc4:	f7ff fd88 	bl	800c7d8 <_Bfree>
 800ccc8:	4628      	mov	r0, r5
 800ccca:	e8bd 87f0 	ldmia.w	sp!, {r4, r5, r6, r7, r8, r9, sl, pc}
 800ccce:	f842 0f04 	str.w	r0, [r2, #4]!
 800ccd2:	3301      	adds	r3, #1
 800ccd4:	e7c1      	b.n	800cc5a <__lshift+0x4a>
 800ccd6:	3904      	subs	r1, #4
 800ccd8:	f853 2b04 	ldr.w	r2, [r3], #4
 800ccdc:	f841 2f04 	str.w	r2, [r1, #4]!
 800cce0:	4298      	cmp	r0, r3
 800cce2:	d8f9      	bhi.n	800ccd8 <__lshift+0xc8>
 800cce4:	e7ea      	b.n	800ccbc <__lshift+0xac>
 800cce6:	bf00      	nop
 800cce8:	0800ef20 	.word	0x0800ef20
 800ccec:	0800efac 	.word	0x0800efac

0800ccf0 <__mcmp>:
 800ccf0:	b530      	push	{r4, r5, lr}
 800ccf2:	6902      	ldr	r2, [r0, #16]
 800ccf4:	690c      	ldr	r4, [r1, #16]
 800ccf6:	1b12      	subs	r2, r2, r4
 800ccf8:	d10e      	bne.n	800cd18 <__mcmp+0x28>
 800ccfa:	f100 0314 	add.w	r3, r0, #20
 800ccfe:	3114      	adds	r1, #20
 800cd00:	eb03 0084 	add.w	r0, r3, r4, lsl #2
 800cd04:	eb01 0184 	add.w	r1, r1, r4, lsl #2
 800cd08:	f850 5d04 	ldr.w	r5, [r0, #-4]!
 800cd0c:	f851 4d04 	ldr.w	r4, [r1, #-4]!
 800cd10:	42a5      	cmp	r5, r4
 800cd12:	d003      	beq.n	800cd1c <__mcmp+0x2c>
 800cd14:	d305      	bcc.n	800cd22 <__mcmp+0x32>
 800cd16:	2201      	movs	r2, #1
 800cd18:	4610      	mov	r0, r2
 800cd1a:	bd30      	pop	{r4, r5, pc}
 800cd1c:	4283      	cmp	r3, r0
 800cd1e:	d3f3      	bcc.n	800cd08 <__mcmp+0x18>
 800cd20:	e7fa      	b.n	800cd18 <__mcmp+0x28>
 800cd22:	f04f 32ff 	mov.w	r2, #4294967295
 800cd26:	e7f7      	b.n	800cd18 <__mcmp+0x28>

0800cd28 <__mdiff>:
 800cd28:	e92d 4ff8 	stmdb	sp!, {r3, r4, r5, r6, r7, r8, r9, sl, fp, lr}
 800cd2c:	460c      	mov	r4, r1
 800cd2e:	4606      	mov	r6, r0
 800cd30:	4611      	mov	r1, r2
 800cd32:	4620      	mov	r0, r4
 800cd34:	4690      	mov	r8, r2
 800cd36:	f7ff ffdb 	bl	800ccf0 <__mcmp>
 800cd3a:	1e05      	subs	r5, r0, #0
 800cd3c:	d110      	bne.n	800cd60 <__mdiff+0x38>
 800cd3e:	4629      	mov	r1, r5
 800cd40:	4630      	mov	r0, r6
 800cd42:	f7ff fd09 	bl	800c758 <_Balloc>
 800cd46:	b930      	cbnz	r0, 800cd56 <__mdiff+0x2e>
 800cd48:	4b3a      	ldr	r3, [pc, #232]	; (800ce34 <__mdiff+0x10c>)
 800cd4a:	4602      	mov	r2, r0
 800cd4c:	f240 2132 	movw	r1, #562	; 0x232
 800cd50:	4839      	ldr	r0, [pc, #228]	; (800ce38 <__mdiff+0x110>)
 800cd52:	f000 fc4f 	bl	800d5f4 <__assert_func>
 800cd56:	2301      	movs	r3, #1
 800cd58:	e9c0 3504 	strd	r3, r5, [r0, #16]
 800cd5c:	e8bd 8ff8 	ldmia.w	sp!, {r3, r4, r5, r6, r7, r8, r9, sl, fp, pc}
 800cd60:	bfa4      	itt	ge
 800cd62:	4643      	movge	r3, r8
 800cd64:	46a0      	movge	r8, r4
 800cd66:	4630      	mov	r0, r6
 800cd68:	f8d8 1004 	ldr.w	r1, [r8, #4]
 800cd6c:	bfa6      	itte	ge
 800cd6e:	461c      	movge	r4, r3
 800cd70:	2500      	movge	r5, #0
 800cd72:	2501      	movlt	r5, #1
 800cd74:	f7ff fcf0 	bl	800c758 <_Balloc>
 800cd78:	b920      	cbnz	r0, 800cd84 <__mdiff+0x5c>
 800cd7a:	4b2e      	ldr	r3, [pc, #184]	; (800ce34 <__mdiff+0x10c>)
 800cd7c:	4602      	mov	r2, r0
 800cd7e:	f44f 7110 	mov.w	r1, #576	; 0x240
 800cd82:	e7e5      	b.n	800cd50 <__mdiff+0x28>
 800cd84:	f8d8 7010 	ldr.w	r7, [r8, #16]
 800cd88:	6926      	ldr	r6, [r4, #16]
 800cd8a:	60c5      	str	r5, [r0, #12]
 800cd8c:	f104 0914 	add.w	r9, r4, #20
 800cd90:	f108 0514 	add.w	r5, r8, #20
 800cd94:	f100 0e14 	add.w	lr, r0, #20
 800cd98:	eb05 0c87 	add.w	ip, r5, r7, lsl #2
 800cd9c:	eb09 0686 	add.w	r6, r9, r6, lsl #2
 800cda0:	f108 0210 	add.w	r2, r8, #16
 800cda4:	46f2      	mov	sl, lr
 800cda6:	2100      	movs	r1, #0
 800cda8:	f859 3b04 	ldr.w	r3, [r9], #4
 800cdac:	f852 bf04 	ldr.w	fp, [r2, #4]!
 800cdb0:	fa1f f883 	uxth.w	r8, r3
 800cdb4:	fa11 f18b 	uxtah	r1, r1, fp
 800cdb8:	0c1b      	lsrs	r3, r3, #16
 800cdba:	eba1 0808 	sub.w	r8, r1, r8
 800cdbe:	ebc3 431b 	rsb	r3, r3, fp, lsr #16
 800cdc2:	eb03 4328 	add.w	r3, r3, r8, asr #16
 800cdc6:	fa1f f888 	uxth.w	r8, r8
 800cdca:	1419      	asrs	r1, r3, #16
 800cdcc:	454e      	cmp	r6, r9
 800cdce:	ea48 4303 	orr.w	r3, r8, r3, lsl #16
 800cdd2:	f84a 3b04 	str.w	r3, [sl], #4
 800cdd6:	d8e7      	bhi.n	800cda8 <__mdiff+0x80>
 800cdd8:	1b33      	subs	r3, r6, r4
 800cdda:	3b15      	subs	r3, #21
 800cddc:	f023 0303 	bic.w	r3, r3, #3
 800cde0:	3304      	adds	r3, #4
 800cde2:	3415      	adds	r4, #21
 800cde4:	42a6      	cmp	r6, r4
 800cde6:	bf38      	it	cc
 800cde8:	2304      	movcc	r3, #4
 800cdea:	441d      	add	r5, r3
 800cdec:	4473      	add	r3, lr
 800cdee:	469e      	mov	lr, r3
 800cdf0:	462e      	mov	r6, r5
 800cdf2:	4566      	cmp	r6, ip
 800cdf4:	d30e      	bcc.n	800ce14 <__mdiff+0xec>
 800cdf6:	f10c 0203 	add.w	r2, ip, #3
 800cdfa:	1b52      	subs	r2, r2, r5
 800cdfc:	f022 0203 	bic.w	r2, r2, #3
 800ce00:	3d03      	subs	r5, #3
 800ce02:	45ac      	cmp	ip, r5
 800ce04:	bf38      	it	cc
 800ce06:	2200      	movcc	r2, #0
 800ce08:	441a      	add	r2, r3
 800ce0a:	f852 3d04 	ldr.w	r3, [r2, #-4]!
 800ce0e:	b17b      	cbz	r3, 800ce30 <__mdiff+0x108>
 800ce10:	6107      	str	r7, [r0, #16]
 800ce12:	e7a3      	b.n	800cd5c <__mdiff+0x34>
 800ce14:	f856 8b04 	ldr.w	r8, [r6], #4
 800ce18:	fa11 f288 	uxtah	r2, r1, r8
 800ce1c:	1414      	asrs	r4, r2, #16
 800ce1e:	eb04 4418 	add.w	r4, r4, r8, lsr #16
 800ce22:	b292      	uxth	r2, r2
 800ce24:	ea42 4204 	orr.w	r2, r2, r4, lsl #16
 800ce28:	f84e 2b04 	str.w	r2, [lr], #4
 800ce2c:	1421      	asrs	r1, r4, #16
 800ce2e:	e7e0      	b.n	800cdf2 <__mdiff+0xca>
 800ce30:	3f01      	subs	r7, #1
 800ce32:	e7ea      	b.n	800ce0a <__mdiff+0xe2>
 800ce34:	0800ef20 	.word	0x0800ef20
 800ce38:	0800efac 	.word	0x0800efac

0800ce3c <__ulp>:
 800ce3c:	b082      	sub	sp, #8
 800ce3e:	ed8d 0b00 	vstr	d0, [sp]
 800ce42:	9b01      	ldr	r3, [sp, #4]
 800ce44:	4912      	ldr	r1, [pc, #72]	; (800ce90 <__ulp+0x54>)
 800ce46:	4019      	ands	r1, r3
 800ce48:	f1a1 7150 	sub.w	r1, r1, #54525952	; 0x3400000
 800ce4c:	2900      	cmp	r1, #0
 800ce4e:	dd05      	ble.n	800ce5c <__ulp+0x20>
 800ce50:	2200      	movs	r2, #0
 800ce52:	460b      	mov	r3, r1
 800ce54:	ec43 2b10 	vmov	d0, r2, r3
 800ce58:	b002      	add	sp, #8
 800ce5a:	4770      	bx	lr
 800ce5c:	4249      	negs	r1, r1
 800ce5e:	f1b1 7fa0 	cmp.w	r1, #20971520	; 0x1400000
 800ce62:	ea4f 5021 	mov.w	r0, r1, asr #20
 800ce66:	f04f 0200 	mov.w	r2, #0
 800ce6a:	f04f 0300 	mov.w	r3, #0
 800ce6e:	da04      	bge.n	800ce7a <__ulp+0x3e>
 800ce70:	f44f 2100 	mov.w	r1, #524288	; 0x80000
 800ce74:	fa41 f300 	asr.w	r3, r1, r0
 800ce78:	e7ec      	b.n	800ce54 <__ulp+0x18>
 800ce7a:	f1a0 0114 	sub.w	r1, r0, #20
 800ce7e:	291e      	cmp	r1, #30
 800ce80:	bfda      	itte	le
 800ce82:	f04f 4000 	movle.w	r0, #2147483648	; 0x80000000
 800ce86:	fa20 f101 	lsrle.w	r1, r0, r1
 800ce8a:	2101      	movgt	r1, #1
 800ce8c:	460a      	mov	r2, r1
 800ce8e:	e7e1      	b.n	800ce54 <__ulp+0x18>
 800ce90:	7ff00000 	.word	0x7ff00000

0800ce94 <__b2d>:
 800ce94:	b5f8      	push	{r3, r4, r5, r6, r7, lr}
 800ce96:	6905      	ldr	r5, [r0, #16]
 800ce98:	f100 0714 	add.w	r7, r0, #20
 800ce9c:	eb07 0585 	add.w	r5, r7, r5, lsl #2
 800cea0:	1f2e      	subs	r6, r5, #4
 800cea2:	f855 4c04 	ldr.w	r4, [r5, #-4]
 800cea6:	4620      	mov	r0, r4
 800cea8:	f7ff fd48 	bl	800c93c <__hi0bits>
 800ceac:	f1c0 0320 	rsb	r3, r0, #32
 800ceb0:	280a      	cmp	r0, #10
 800ceb2:	f8df c07c 	ldr.w	ip, [pc, #124]	; 800cf30 <__b2d+0x9c>
 800ceb6:	600b      	str	r3, [r1, #0]
 800ceb8:	dc14      	bgt.n	800cee4 <__b2d+0x50>
 800ceba:	f1c0 0e0b 	rsb	lr, r0, #11
 800cebe:	fa24 f10e 	lsr.w	r1, r4, lr
 800cec2:	42b7      	cmp	r7, r6
 800cec4:	ea41 030c 	orr.w	r3, r1, ip
 800cec8:	bf34      	ite	cc
 800ceca:	f855 1c08 	ldrcc.w	r1, [r5, #-8]
 800cece:	2100      	movcs	r1, #0
 800ced0:	3015      	adds	r0, #21
 800ced2:	fa04 f000 	lsl.w	r0, r4, r0
 800ced6:	fa21 f10e 	lsr.w	r1, r1, lr
 800ceda:	ea40 0201 	orr.w	r2, r0, r1
 800cede:	ec43 2b10 	vmov	d0, r2, r3
 800cee2:	bdf8      	pop	{r3, r4, r5, r6, r7, pc}
 800cee4:	42b7      	cmp	r7, r6
 800cee6:	bf3a      	itte	cc
 800cee8:	f855 1c08 	ldrcc.w	r1, [r5, #-8]
 800ceec:	f1a5 0608 	subcc.w	r6, r5, #8
 800cef0:	2100      	movcs	r1, #0
 800cef2:	380b      	subs	r0, #11
 800cef4:	d017      	beq.n	800cf26 <__b2d+0x92>
 800cef6:	f1c0 0c20 	rsb	ip, r0, #32
 800cefa:	fa04 f500 	lsl.w	r5, r4, r0
 800cefe:	42be      	cmp	r6, r7
 800cf00:	fa21 f40c 	lsr.w	r4, r1, ip
 800cf04:	ea45 0504 	orr.w	r5, r5, r4
 800cf08:	bf8c      	ite	hi
 800cf0a:	f856 4c04 	ldrhi.w	r4, [r6, #-4]
 800cf0e:	2400      	movls	r4, #0
 800cf10:	f045 537f 	orr.w	r3, r5, #1069547520	; 0x3fc00000
 800cf14:	fa01 f000 	lsl.w	r0, r1, r0
 800cf18:	fa24 f40c 	lsr.w	r4, r4, ip
 800cf1c:	f443 1340 	orr.w	r3, r3, #3145728	; 0x300000
 800cf20:	ea40 0204 	orr.w	r2, r0, r4
 800cf24:	e7db      	b.n	800cede <__b2d+0x4a>
 800cf26:	ea44 030c 	orr.w	r3, r4, ip
 800cf2a:	460a      	mov	r2, r1
 800cf2c:	e7d7      	b.n	800cede <__b2d+0x4a>
 800cf2e:	bf00      	nop
 800cf30:	3ff00000 	.word	0x3ff00000

0800cf34 <__d2b>:
 800cf34:	e92d 43f7 	stmdb	sp!, {r0, r1, r2, r4, r5, r6, r7, r8, r9, lr}
 800cf38:	4689      	mov	r9, r1
 800cf3a:	2101      	movs	r1, #1
 800cf3c:	ec57 6b10 	vmov	r6, r7, d0
 800cf40:	4690      	mov	r8, r2
 800cf42:	f7ff fc09 	bl	800c758 <_Balloc>
 800cf46:	4604      	mov	r4, r0
 800cf48:	b930      	cbnz	r0, 800cf58 <__d2b+0x24>
 800cf4a:	4602      	mov	r2, r0
 800cf4c:	4b25      	ldr	r3, [pc, #148]	; (800cfe4 <__d2b+0xb0>)
 800cf4e:	4826      	ldr	r0, [pc, #152]	; (800cfe8 <__d2b+0xb4>)
 800cf50:	f240 310a 	movw	r1, #778	; 0x30a
 800cf54:	f000 fb4e 	bl	800d5f4 <__assert_func>
 800cf58:	f3c7 550a 	ubfx	r5, r7, #20, #11
 800cf5c:	f3c7 0313 	ubfx	r3, r7, #0, #20
 800cf60:	bb35      	cbnz	r5, 800cfb0 <__d2b+0x7c>
 800cf62:	2e00      	cmp	r6, #0
 800cf64:	9301      	str	r3, [sp, #4]
 800cf66:	d028      	beq.n	800cfba <__d2b+0x86>
 800cf68:	4668      	mov	r0, sp
 800cf6a:	9600      	str	r6, [sp, #0]
 800cf6c:	f7ff fd06 	bl	800c97c <__lo0bits>
 800cf70:	9900      	ldr	r1, [sp, #0]
 800cf72:	b300      	cbz	r0, 800cfb6 <__d2b+0x82>
 800cf74:	9a01      	ldr	r2, [sp, #4]
 800cf76:	f1c0 0320 	rsb	r3, r0, #32
 800cf7a:	fa02 f303 	lsl.w	r3, r2, r3
 800cf7e:	430b      	orrs	r3, r1
 800cf80:	40c2      	lsrs	r2, r0
 800cf82:	6163      	str	r3, [r4, #20]
 800cf84:	9201      	str	r2, [sp, #4]
 800cf86:	9b01      	ldr	r3, [sp, #4]
 800cf88:	61a3      	str	r3, [r4, #24]
 800cf8a:	2b00      	cmp	r3, #0
 800cf8c:	bf14      	ite	ne
 800cf8e:	2202      	movne	r2, #2
 800cf90:	2201      	moveq	r2, #1
 800cf92:	6122      	str	r2, [r4, #16]
 800cf94:	b1d5      	cbz	r5, 800cfcc <__d2b+0x98>
 800cf96:	f2a5 4533 	subw	r5, r5, #1075	; 0x433
 800cf9a:	4405      	add	r5, r0
 800cf9c:	f8c9 5000 	str.w	r5, [r9]
 800cfa0:	f1c0 0035 	rsb	r0, r0, #53	; 0x35
 800cfa4:	f8c8 0000 	str.w	r0, [r8]
 800cfa8:	4620      	mov	r0, r4
 800cfaa:	b003      	add	sp, #12
 800cfac:	e8bd 83f0 	ldmia.w	sp!, {r4, r5, r6, r7, r8, r9, pc}
 800cfb0:	f443 1380 	orr.w	r3, r3, #1048576	; 0x100000
 800cfb4:	e7d5      	b.n	800cf62 <__d2b+0x2e>
 800cfb6:	6161      	str	r1, [r4, #20]
 800cfb8:	e7e5      	b.n	800cf86 <__d2b+0x52>
 800cfba:	a801      	add	r0, sp, #4
 800cfbc:	f7ff fcde 	bl	800c97c <__lo0bits>
 800cfc0:	9b01      	ldr	r3, [sp, #4]
 800cfc2:	6163      	str	r3, [r4, #20]
 800cfc4:	2201      	movs	r2, #1
 800cfc6:	6122      	str	r2, [r4, #16]
 800cfc8:	3020      	adds	r0, #32
 800cfca:	e7e3      	b.n	800cf94 <__d2b+0x60>
 800cfcc:	eb04 0382 	add.w	r3, r4, r2, lsl #2
 800cfd0:	f2a0 4032 	subw	r0, r0, #1074	; 0x432
 800cfd4:	f8c9 0000 	str.w	r0, [r9]
 800cfd8:	6918      	ldr	r0, [r3, #16]
 800cfda:	f7ff fcaf 	bl	800c93c <__hi0bits>
 800cfde:	ebc0 1042 	rsb	r0, r0, r2, lsl #5
 800cfe2:	e7df      	b.n	800cfa4 <__d2b+0x70>
 800cfe4:	0800ef20 	.word	0x0800ef20
 800cfe8:	0800efac 	.word	0x0800efac

0800cfec <__ratio>:
 800cfec:	e92d 4ff7 	stmdb	sp!, {r0, r1, r2, r4, r5, r6, r7, r8, r9, sl, fp, lr}
 800cff0:	4688      	mov	r8, r1
 800cff2:	4669      	mov	r1, sp
 800cff4:	4681      	mov	r9, r0
 800cff6:	f7ff ff4d 	bl	800ce94 <__b2d>
 800cffa:	a901      	add	r1, sp, #4
 800cffc:	4640      	mov	r0, r8
 800cffe:	ec55 4b10 	vmov	r4, r5, d0
 800d002:	f7ff ff47 	bl	800ce94 <__b2d>
 800d006:	f8d9 3010 	ldr.w	r3, [r9, #16]
 800d00a:	f8d8 2010 	ldr.w	r2, [r8, #16]
 800d00e:	eba3 0c02 	sub.w	ip, r3, r2
 800d012:	e9dd 3200 	ldrd	r3, r2, [sp]
 800d016:	1a9b      	subs	r3, r3, r2
 800d018:	eb03 134c 	add.w	r3, r3, ip, lsl #5
 800d01c:	ec51 0b10 	vmov	r0, r1, d0
 800d020:	2b00      	cmp	r3, #0
 800d022:	bfd6      	itet	le
 800d024:	460a      	movle	r2, r1
 800d026:	462a      	movgt	r2, r5
 800d028:	ebc3 3303 	rsble	r3, r3, r3, lsl #12
 800d02c:	468b      	mov	fp, r1
 800d02e:	462f      	mov	r7, r5
 800d030:	bfd4      	ite	le
 800d032:	eb02 5b03 	addle.w	fp, r2, r3, lsl #20
 800d036:	eb02 5703 	addgt.w	r7, r2, r3, lsl #20
 800d03a:	4620      	mov	r0, r4
 800d03c:	ee10 2a10 	vmov	r2, s0
 800d040:	465b      	mov	r3, fp
 800d042:	4639      	mov	r1, r7
 800d044:	f7f3 fc02 	bl	800084c <__aeabi_ddiv>
 800d048:	ec41 0b10 	vmov	d0, r0, r1
 800d04c:	b003      	add	sp, #12
 800d04e:	e8bd 8ff0 	ldmia.w	sp!, {r4, r5, r6, r7, r8, r9, sl, fp, pc}

0800d052 <__copybits>:
 800d052:	3901      	subs	r1, #1
 800d054:	b570      	push	{r4, r5, r6, lr}
 800d056:	1149      	asrs	r1, r1, #5
 800d058:	6914      	ldr	r4, [r2, #16]
 800d05a:	3101      	adds	r1, #1
 800d05c:	f102 0314 	add.w	r3, r2, #20
 800d060:	eb00 0181 	add.w	r1, r0, r1, lsl #2
 800d064:	eb03 0484 	add.w	r4, r3, r4, lsl #2
 800d068:	1f05      	subs	r5, r0, #4
 800d06a:	42a3      	cmp	r3, r4
 800d06c:	d30c      	bcc.n	800d088 <__copybits+0x36>
 800d06e:	1aa3      	subs	r3, r4, r2
 800d070:	3b11      	subs	r3, #17
 800d072:	f023 0303 	bic.w	r3, r3, #3
 800d076:	3211      	adds	r2, #17
 800d078:	42a2      	cmp	r2, r4
 800d07a:	bf88      	it	hi
 800d07c:	2300      	movhi	r3, #0
 800d07e:	4418      	add	r0, r3
 800d080:	2300      	movs	r3, #0
 800d082:	4288      	cmp	r0, r1
 800d084:	d305      	bcc.n	800d092 <__copybits+0x40>
 800d086:	bd70      	pop	{r4, r5, r6, pc}
 800d088:	f853 6b04 	ldr.w	r6, [r3], #4
 800d08c:	f845 6f04 	str.w	r6, [r5, #4]!
 800d090:	e7eb      	b.n	800d06a <__copybits+0x18>
 800d092:	f840 3b04 	str.w	r3, [r0], #4
 800d096:	e7f4      	b.n	800d082 <__copybits+0x30>

0800d098 <__any_on>:
 800d098:	f100 0214 	add.w	r2, r0, #20
 800d09c:	6900      	ldr	r0, [r0, #16]
 800d09e:	114b      	asrs	r3, r1, #5
 800d0a0:	4298      	cmp	r0, r3
 800d0a2:	b510      	push	{r4, lr}
 800d0a4:	db11      	blt.n	800d0ca <__any_on+0x32>
 800d0a6:	dd0a      	ble.n	800d0be <__any_on+0x26>
 800d0a8:	f011 011f 	ands.w	r1, r1, #31
 800d0ac:	d007      	beq.n	800d0be <__any_on+0x26>
 800d0ae:	f852 4023 	ldr.w	r4, [r2, r3, lsl #2]
 800d0b2:	fa24 f001 	lsr.w	r0, r4, r1
 800d0b6:	fa00 f101 	lsl.w	r1, r0, r1
 800d0ba:	428c      	cmp	r4, r1
 800d0bc:	d10b      	bne.n	800d0d6 <__any_on+0x3e>
 800d0be:	eb02 0383 	add.w	r3, r2, r3, lsl #2
 800d0c2:	4293      	cmp	r3, r2
 800d0c4:	d803      	bhi.n	800d0ce <__any_on+0x36>
 800d0c6:	2000      	movs	r0, #0
 800d0c8:	bd10      	pop	{r4, pc}
 800d0ca:	4603      	mov	r3, r0
 800d0cc:	e7f7      	b.n	800d0be <__any_on+0x26>
 800d0ce:	f853 1d04 	ldr.w	r1, [r3, #-4]!
 800d0d2:	2900      	cmp	r1, #0
 800d0d4:	d0f5      	beq.n	800d0c2 <__any_on+0x2a>
 800d0d6:	2001      	movs	r0, #1
 800d0d8:	e7f6      	b.n	800d0c8 <__any_on+0x30>

0800d0da <_calloc_r>:
 800d0da:	b537      	push	{r0, r1, r2, r4, r5, lr}
 800d0dc:	fba1 2402 	umull	r2, r4, r1, r2
 800d0e0:	b94c      	cbnz	r4, 800d0f6 <_calloc_r+0x1c>
 800d0e2:	4611      	mov	r1, r2
 800d0e4:	9201      	str	r2, [sp, #4]
 800d0e6:	f000 f87b 	bl	800d1e0 <_malloc_r>
 800d0ea:	9a01      	ldr	r2, [sp, #4]
 800d0ec:	4605      	mov	r5, r0
 800d0ee:	b930      	cbnz	r0, 800d0fe <_calloc_r+0x24>
 800d0f0:	4628      	mov	r0, r5
 800d0f2:	b003      	add	sp, #12
 800d0f4:	bd30      	pop	{r4, r5, pc}
 800d0f6:	220c      	movs	r2, #12
 800d0f8:	6002      	str	r2, [r0, #0]
 800d0fa:	2500      	movs	r5, #0
 800d0fc:	e7f8      	b.n	800d0f0 <_calloc_r+0x16>
 800d0fe:	4621      	mov	r1, r4
 800d100:	f7fc fbce 	bl	80098a0 <memset>
 800d104:	e7f4      	b.n	800d0f0 <_calloc_r+0x16>
	...

0800d108 <_free_r>:
 800d108:	b537      	push	{r0, r1, r2, r4, r5, lr}
 800d10a:	2900      	cmp	r1, #0
 800d10c:	d044      	beq.n	800d198 <_free_r+0x90>
 800d10e:	f851 3c04 	ldr.w	r3, [r1, #-4]
 800d112:	9001      	str	r0, [sp, #4]
 800d114:	2b00      	cmp	r3, #0
 800d116:	f1a1 0404 	sub.w	r4, r1, #4
 800d11a:	bfb8      	it	lt
 800d11c:	18e4      	addlt	r4, r4, r3
 800d11e:	f000 fab3 	bl	800d688 <__malloc_lock>
 800d122:	4a1e      	ldr	r2, [pc, #120]	; (800d19c <_free_r+0x94>)
 800d124:	9801      	ldr	r0, [sp, #4]
 800d126:	6813      	ldr	r3, [r2, #0]
 800d128:	b933      	cbnz	r3, 800d138 <_free_r+0x30>
 800d12a:	6063      	str	r3, [r4, #4]
 800d12c:	6014      	str	r4, [r2, #0]
 800d12e:	b003      	add	sp, #12
 800d130:	e8bd 4030 	ldmia.w	sp!, {r4, r5, lr}
 800d134:	f000 baae 	b.w	800d694 <__malloc_unlock>
 800d138:	42a3      	cmp	r3, r4
 800d13a:	d908      	bls.n	800d14e <_free_r+0x46>
 800d13c:	6825      	ldr	r5, [r4, #0]
 800d13e:	1961      	adds	r1, r4, r5
 800d140:	428b      	cmp	r3, r1
 800d142:	bf01      	itttt	eq
 800d144:	6819      	ldreq	r1, [r3, #0]
 800d146:	685b      	ldreq	r3, [r3, #4]
 800d148:	1949      	addeq	r1, r1, r5
 800d14a:	6021      	streq	r1, [r4, #0]
 800d14c:	e7ed      	b.n	800d12a <_free_r+0x22>
 800d14e:	461a      	mov	r2, r3
 800d150:	685b      	ldr	r3, [r3, #4]
 800d152:	b10b      	cbz	r3, 800d158 <_free_r+0x50>
 800d154:	42a3      	cmp	r3, r4
 800d156:	d9fa      	bls.n	800d14e <_free_r+0x46>
 800d158:	6811      	ldr	r1, [r2, #0]
 800d15a:	1855      	adds	r5, r2, r1
 800d15c:	42a5      	cmp	r5, r4
 800d15e:	d10b      	bne.n	800d178 <_free_r+0x70>
 800d160:	6824      	ldr	r4, [r4, #0]
 800d162:	4421      	add	r1, r4
 800d164:	1854      	adds	r4, r2, r1
 800d166:	42a3      	cmp	r3, r4
 800d168:	6011      	str	r1, [r2, #0]
 800d16a:	d1e0      	bne.n	800d12e <_free_r+0x26>
 800d16c:	681c      	ldr	r4, [r3, #0]
 800d16e:	685b      	ldr	r3, [r3, #4]
 800d170:	6053      	str	r3, [r2, #4]
 800d172:	4421      	add	r1, r4
 800d174:	6011      	str	r1, [r2, #0]
 800d176:	e7da      	b.n	800d12e <_free_r+0x26>
 800d178:	d902      	bls.n	800d180 <_free_r+0x78>
 800d17a:	230c      	movs	r3, #12
 800d17c:	6003      	str	r3, [r0, #0]
 800d17e:	e7d6      	b.n	800d12e <_free_r+0x26>
 800d180:	6825      	ldr	r5, [r4, #0]
 800d182:	1961      	adds	r1, r4, r5
 800d184:	428b      	cmp	r3, r1
 800d186:	bf04      	itt	eq
 800d188:	6819      	ldreq	r1, [r3, #0]
 800d18a:	685b      	ldreq	r3, [r3, #4]
 800d18c:	6063      	str	r3, [r4, #4]
 800d18e:	bf04      	itt	eq
 800d190:	1949      	addeq	r1, r1, r5
 800d192:	6021      	streq	r1, [r4, #0]
 800d194:	6054      	str	r4, [r2, #4]
 800d196:	e7ca      	b.n	800d12e <_free_r+0x26>
 800d198:	b003      	add	sp, #12
 800d19a:	bd30      	pop	{r4, r5, pc}
 800d19c:	200063b4 	.word	0x200063b4

0800d1a0 <sbrk_aligned>:
 800d1a0:	b570      	push	{r4, r5, r6, lr}
 800d1a2:	4e0e      	ldr	r6, [pc, #56]	; (800d1dc <sbrk_aligned+0x3c>)
 800d1a4:	460c      	mov	r4, r1
 800d1a6:	6831      	ldr	r1, [r6, #0]
 800d1a8:	4605      	mov	r5, r0
 800d1aa:	b911      	cbnz	r1, 800d1b2 <sbrk_aligned+0x12>
 800d1ac:	f000 f9f0 	bl	800d590 <_sbrk_r>
 800d1b0:	6030      	str	r0, [r6, #0]
 800d1b2:	4621      	mov	r1, r4
 800d1b4:	4628      	mov	r0, r5
 800d1b6:	f000 f9eb 	bl	800d590 <_sbrk_r>
 800d1ba:	1c43      	adds	r3, r0, #1
 800d1bc:	d00a      	beq.n	800d1d4 <sbrk_aligned+0x34>
 800d1be:	1cc4      	adds	r4, r0, #3
 800d1c0:	f024 0403 	bic.w	r4, r4, #3
 800d1c4:	42a0      	cmp	r0, r4
 800d1c6:	d007      	beq.n	800d1d8 <sbrk_aligned+0x38>
 800d1c8:	1a21      	subs	r1, r4, r0
 800d1ca:	4628      	mov	r0, r5
 800d1cc:	f000 f9e0 	bl	800d590 <_sbrk_r>
 800d1d0:	3001      	adds	r0, #1
 800d1d2:	d101      	bne.n	800d1d8 <sbrk_aligned+0x38>
 800d1d4:	f04f 34ff 	mov.w	r4, #4294967295
 800d1d8:	4620      	mov	r0, r4
 800d1da:	bd70      	pop	{r4, r5, r6, pc}
 800d1dc:	200063b8 	.word	0x200063b8

0800d1e0 <_malloc_r>:
 800d1e0:	e92d 41f0 	stmdb	sp!, {r4, r5, r6, r7, r8, lr}
 800d1e4:	1ccd      	adds	r5, r1, #3
 800d1e6:	f025 0503 	bic.w	r5, r5, #3
 800d1ea:	3508      	adds	r5, #8
 800d1ec:	2d0c      	cmp	r5, #12
 800d1ee:	bf38      	it	cc
 800d1f0:	250c      	movcc	r5, #12
 800d1f2:	2d00      	cmp	r5, #0
 800d1f4:	4607      	mov	r7, r0
 800d1f6:	db01      	blt.n	800d1fc <_malloc_r+0x1c>
 800d1f8:	42a9      	cmp	r1, r5
 800d1fa:	d905      	bls.n	800d208 <_malloc_r+0x28>
 800d1fc:	230c      	movs	r3, #12
 800d1fe:	603b      	str	r3, [r7, #0]
 800d200:	2600      	movs	r6, #0
 800d202:	4630      	mov	r0, r6
 800d204:	e8bd 81f0 	ldmia.w	sp!, {r4, r5, r6, r7, r8, pc}
 800d208:	4e2e      	ldr	r6, [pc, #184]	; (800d2c4 <_malloc_r+0xe4>)
 800d20a:	f000 fa3d 	bl	800d688 <__malloc_lock>
 800d20e:	6833      	ldr	r3, [r6, #0]
 800d210:	461c      	mov	r4, r3
 800d212:	bb34      	cbnz	r4, 800d262 <_malloc_r+0x82>
 800d214:	4629      	mov	r1, r5
 800d216:	4638      	mov	r0, r7
 800d218:	f7ff ffc2 	bl	800d1a0 <sbrk_aligned>
 800d21c:	1c43      	adds	r3, r0, #1
 800d21e:	4604      	mov	r4, r0
 800d220:	d14d      	bne.n	800d2be <_malloc_r+0xde>
 800d222:	6834      	ldr	r4, [r6, #0]
 800d224:	4626      	mov	r6, r4
 800d226:	2e00      	cmp	r6, #0
 800d228:	d140      	bne.n	800d2ac <_malloc_r+0xcc>
 800d22a:	6823      	ldr	r3, [r4, #0]
 800d22c:	4631      	mov	r1, r6
 800d22e:	4638      	mov	r0, r7
 800d230:	eb04 0803 	add.w	r8, r4, r3
 800d234:	f000 f9ac 	bl	800d590 <_sbrk_r>
 800d238:	4580      	cmp	r8, r0
 800d23a:	d13a      	bne.n	800d2b2 <_malloc_r+0xd2>
 800d23c:	6821      	ldr	r1, [r4, #0]
 800d23e:	3503      	adds	r5, #3
 800d240:	1a6d      	subs	r5, r5, r1
 800d242:	f025 0503 	bic.w	r5, r5, #3
 800d246:	3508      	adds	r5, #8
 800d248:	2d0c      	cmp	r5, #12
 800d24a:	bf38      	it	cc
 800d24c:	250c      	movcc	r5, #12
 800d24e:	4629      	mov	r1, r5
 800d250:	4638      	mov	r0, r7
 800d252:	f7ff ffa5 	bl	800d1a0 <sbrk_aligned>
 800d256:	3001      	adds	r0, #1
 800d258:	d02b      	beq.n	800d2b2 <_malloc_r+0xd2>
 800d25a:	6823      	ldr	r3, [r4, #0]
 800d25c:	442b      	add	r3, r5
 800d25e:	6023      	str	r3, [r4, #0]
 800d260:	e00e      	b.n	800d280 <_malloc_r+0xa0>
 800d262:	6822      	ldr	r2, [r4, #0]
 800d264:	1b52      	subs	r2, r2, r5
 800d266:	d41e      	bmi.n	800d2a6 <_malloc_r+0xc6>
 800d268:	2a0b      	cmp	r2, #11
 800d26a:	d916      	bls.n	800d29a <_malloc_r+0xba>
 800d26c:	1961      	adds	r1, r4, r5
 800d26e:	42a3      	cmp	r3, r4
 800d270:	6025      	str	r5, [r4, #0]
 800d272:	bf18      	it	ne
 800d274:	6059      	strne	r1, [r3, #4]
 800d276:	6863      	ldr	r3, [r4, #4]
 800d278:	bf08      	it	eq
 800d27a:	6031      	streq	r1, [r6, #0]
 800d27c:	5162      	str	r2, [r4, r5]
 800d27e:	604b      	str	r3, [r1, #4]
 800d280:	4638      	mov	r0, r7
 800d282:	f104 060b 	add.w	r6, r4, #11
 800d286:	f000 fa05 	bl	800d694 <__malloc_unlock>
 800d28a:	f026 0607 	bic.w	r6, r6, #7
 800d28e:	1d23      	adds	r3, r4, #4
 800d290:	1af2      	subs	r2, r6, r3
 800d292:	d0b6      	beq.n	800d202 <_malloc_r+0x22>
 800d294:	1b9b      	subs	r3, r3, r6
 800d296:	50a3      	str	r3, [r4, r2]
 800d298:	e7b3      	b.n	800d202 <_malloc_r+0x22>
 800d29a:	6862      	ldr	r2, [r4, #4]
 800d29c:	42a3      	cmp	r3, r4
 800d29e:	bf0c      	ite	eq
 800d2a0:	6032      	streq	r2, [r6, #0]
 800d2a2:	605a      	strne	r2, [r3, #4]
 800d2a4:	e7ec      	b.n	800d280 <_malloc_r+0xa0>
 800d2a6:	4623      	mov	r3, r4
 800d2a8:	6864      	ldr	r4, [r4, #4]
 800d2aa:	e7b2      	b.n	800d212 <_malloc_r+0x32>
 800d2ac:	4634      	mov	r4, r6
 800d2ae:	6876      	ldr	r6, [r6, #4]
 800d2b0:	e7b9      	b.n	800d226 <_malloc_r+0x46>
 800d2b2:	230c      	movs	r3, #12
 800d2b4:	603b      	str	r3, [r7, #0]
 800d2b6:	4638      	mov	r0, r7
 800d2b8:	f000 f9ec 	bl	800d694 <__malloc_unlock>
 800d2bc:	e7a1      	b.n	800d202 <_malloc_r+0x22>
 800d2be:	6025      	str	r5, [r4, #0]
 800d2c0:	e7de      	b.n	800d280 <_malloc_r+0xa0>
 800d2c2:	bf00      	nop
 800d2c4:	200063b4 	.word	0x200063b4

0800d2c8 <__ssputs_r>:
 800d2c8:	e92d 47f0 	stmdb	sp!, {r4, r5, r6, r7, r8, r9, sl, lr}
 800d2cc:	688e      	ldr	r6, [r1, #8]
 800d2ce:	429e      	cmp	r6, r3
 800d2d0:	4682      	mov	sl, r0
 800d2d2:	460c      	mov	r4, r1
 800d2d4:	4690      	mov	r8, r2
 800d2d6:	461f      	mov	r7, r3
 800d2d8:	d838      	bhi.n	800d34c <__ssputs_r+0x84>
 800d2da:	898a      	ldrh	r2, [r1, #12]
 800d2dc:	f412 6f90 	tst.w	r2, #1152	; 0x480
 800d2e0:	d032      	beq.n	800d348 <__ssputs_r+0x80>
 800d2e2:	6825      	ldr	r5, [r4, #0]
 800d2e4:	6909      	ldr	r1, [r1, #16]
 800d2e6:	eba5 0901 	sub.w	r9, r5, r1
 800d2ea:	6965      	ldr	r5, [r4, #20]
 800d2ec:	eb05 0545 	add.w	r5, r5, r5, lsl #1
 800d2f0:	eb05 75d5 	add.w	r5, r5, r5, lsr #31
 800d2f4:	3301      	adds	r3, #1
 800d2f6:	444b      	add	r3, r9
 800d2f8:	106d      	asrs	r5, r5, #1
 800d2fa:	429d      	cmp	r5, r3
 800d2fc:	bf38      	it	cc
 800d2fe:	461d      	movcc	r5, r3
 800d300:	0553      	lsls	r3, r2, #21
 800d302:	d531      	bpl.n	800d368 <__ssputs_r+0xa0>
 800d304:	4629      	mov	r1, r5
 800d306:	f7ff ff6b 	bl	800d1e0 <_malloc_r>
 800d30a:	4606      	mov	r6, r0
 800d30c:	b950      	cbnz	r0, 800d324 <__ssputs_r+0x5c>
 800d30e:	230c      	movs	r3, #12
 800d310:	f8ca 3000 	str.w	r3, [sl]
 800d314:	89a3      	ldrh	r3, [r4, #12]
 800d316:	f043 0340 	orr.w	r3, r3, #64	; 0x40
 800d31a:	81a3      	strh	r3, [r4, #12]
 800d31c:	f04f 30ff 	mov.w	r0, #4294967295
 800d320:	e8bd 87f0 	ldmia.w	sp!, {r4, r5, r6, r7, r8, r9, sl, pc}
 800d324:	6921      	ldr	r1, [r4, #16]
 800d326:	464a      	mov	r2, r9
 800d328:	f7fc faac 	bl	8009884 <memcpy>
 800d32c:	89a3      	ldrh	r3, [r4, #12]
 800d32e:	f423 6390 	bic.w	r3, r3, #1152	; 0x480
 800d332:	f043 0380 	orr.w	r3, r3, #128	; 0x80
 800d336:	81a3      	strh	r3, [r4, #12]
 800d338:	6126      	str	r6, [r4, #16]
 800d33a:	6165      	str	r5, [r4, #20]
 800d33c:	444e      	add	r6, r9
 800d33e:	eba5 0509 	sub.w	r5, r5, r9
 800d342:	6026      	str	r6, [r4, #0]
 800d344:	60a5      	str	r5, [r4, #8]
 800d346:	463e      	mov	r6, r7
 800d348:	42be      	cmp	r6, r7
 800d34a:	d900      	bls.n	800d34e <__ssputs_r+0x86>
 800d34c:	463e      	mov	r6, r7
 800d34e:	6820      	ldr	r0, [r4, #0]
 800d350:	4632      	mov	r2, r6
 800d352:	4641      	mov	r1, r8
 800d354:	f000 f97e 	bl	800d654 <memmove>
 800d358:	68a3      	ldr	r3, [r4, #8]
 800d35a:	1b9b      	subs	r3, r3, r6
 800d35c:	60a3      	str	r3, [r4, #8]
 800d35e:	6823      	ldr	r3, [r4, #0]
 800d360:	4433      	add	r3, r6
 800d362:	6023      	str	r3, [r4, #0]
 800d364:	2000      	movs	r0, #0
 800d366:	e7db      	b.n	800d320 <__ssputs_r+0x58>
 800d368:	462a      	mov	r2, r5
 800d36a:	f000 f999 	bl	800d6a0 <_realloc_r>
 800d36e:	4606      	mov	r6, r0
 800d370:	2800      	cmp	r0, #0
 800d372:	d1e1      	bne.n	800d338 <__ssputs_r+0x70>
 800d374:	6921      	ldr	r1, [r4, #16]
 800d376:	4650      	mov	r0, sl
 800d378:	f7ff fec6 	bl	800d108 <_free_r>
 800d37c:	e7c7      	b.n	800d30e <__ssputs_r+0x46>
	...

0800d380 <_svfiprintf_r>:
 800d380:	e92d 4ff0 	stmdb	sp!, {r4, r5, r6, r7, r8, r9, sl, fp, lr}
 800d384:	4698      	mov	r8, r3
 800d386:	898b      	ldrh	r3, [r1, #12]
 800d388:	061b      	lsls	r3, r3, #24
 800d38a:	b09d      	sub	sp, #116	; 0x74
 800d38c:	4607      	mov	r7, r0
 800d38e:	460d      	mov	r5, r1
 800d390:	4614      	mov	r4, r2
 800d392:	d50e      	bpl.n	800d3b2 <_svfiprintf_r+0x32>
 800d394:	690b      	ldr	r3, [r1, #16]
 800d396:	b963      	cbnz	r3, 800d3b2 <_svfiprintf_r+0x32>
 800d398:	2140      	movs	r1, #64	; 0x40
 800d39a:	f7ff ff21 	bl	800d1e0 <_malloc_r>
 800d39e:	6028      	str	r0, [r5, #0]
 800d3a0:	6128      	str	r0, [r5, #16]
 800d3a2:	b920      	cbnz	r0, 800d3ae <_svfiprintf_r+0x2e>
 800d3a4:	230c      	movs	r3, #12
 800d3a6:	603b      	str	r3, [r7, #0]
 800d3a8:	f04f 30ff 	mov.w	r0, #4294967295
 800d3ac:	e0d1      	b.n	800d552 <_svfiprintf_r+0x1d2>
 800d3ae:	2340      	movs	r3, #64	; 0x40
 800d3b0:	616b      	str	r3, [r5, #20]
 800d3b2:	2300      	movs	r3, #0
 800d3b4:	9309      	str	r3, [sp, #36]	; 0x24
 800d3b6:	2320      	movs	r3, #32
 800d3b8:	f88d 3029 	strb.w	r3, [sp, #41]	; 0x29
 800d3bc:	f8cd 800c 	str.w	r8, [sp, #12]
 800d3c0:	2330      	movs	r3, #48	; 0x30
 800d3c2:	f8df 81a8 	ldr.w	r8, [pc, #424]	; 800d56c <_svfiprintf_r+0x1ec>
 800d3c6:	f88d 302a 	strb.w	r3, [sp, #42]	; 0x2a
 800d3ca:	f04f 0901 	mov.w	r9, #1
 800d3ce:	4623      	mov	r3, r4
 800d3d0:	469a      	mov	sl, r3
 800d3d2:	f813 2b01 	ldrb.w	r2, [r3], #1
 800d3d6:	b10a      	cbz	r2, 800d3dc <_svfiprintf_r+0x5c>
 800d3d8:	2a25      	cmp	r2, #37	; 0x25
 800d3da:	d1f9      	bne.n	800d3d0 <_svfiprintf_r+0x50>
 800d3dc:	ebba 0b04 	subs.w	fp, sl, r4
 800d3e0:	d00b      	beq.n	800d3fa <_svfiprintf_r+0x7a>
 800d3e2:	465b      	mov	r3, fp
 800d3e4:	4622      	mov	r2, r4
 800d3e6:	4629      	mov	r1, r5
 800d3e8:	4638      	mov	r0, r7
 800d3ea:	f7ff ff6d 	bl	800d2c8 <__ssputs_r>
 800d3ee:	3001      	adds	r0, #1
 800d3f0:	f000 80aa 	beq.w	800d548 <_svfiprintf_r+0x1c8>
 800d3f4:	9a09      	ldr	r2, [sp, #36]	; 0x24
 800d3f6:	445a      	add	r2, fp
 800d3f8:	9209      	str	r2, [sp, #36]	; 0x24
 800d3fa:	f89a 3000 	ldrb.w	r3, [sl]
 800d3fe:	2b00      	cmp	r3, #0
 800d400:	f000 80a2 	beq.w	800d548 <_svfiprintf_r+0x1c8>
 800d404:	2300      	movs	r3, #0
 800d406:	f04f 32ff 	mov.w	r2, #4294967295
 800d40a:	e9cd 2305 	strd	r2, r3, [sp, #20]
 800d40e:	f10a 0a01 	add.w	sl, sl, #1
 800d412:	9304      	str	r3, [sp, #16]
 800d414:	9307      	str	r3, [sp, #28]
 800d416:	f88d 3053 	strb.w	r3, [sp, #83]	; 0x53
 800d41a:	931a      	str	r3, [sp, #104]	; 0x68
 800d41c:	4654      	mov	r4, sl
 800d41e:	2205      	movs	r2, #5
 800d420:	f814 1b01 	ldrb.w	r1, [r4], #1
 800d424:	4851      	ldr	r0, [pc, #324]	; (800d56c <_svfiprintf_r+0x1ec>)
 800d426:	f7f2 fedb 	bl	80001e0 <memchr>
 800d42a:	9a04      	ldr	r2, [sp, #16]
 800d42c:	b9d8      	cbnz	r0, 800d466 <_svfiprintf_r+0xe6>
 800d42e:	06d0      	lsls	r0, r2, #27
 800d430:	bf44      	itt	mi
 800d432:	2320      	movmi	r3, #32
 800d434:	f88d 3053 	strbmi.w	r3, [sp, #83]	; 0x53
 800d438:	0711      	lsls	r1, r2, #28
 800d43a:	bf44      	itt	mi
 800d43c:	232b      	movmi	r3, #43	; 0x2b
 800d43e:	f88d 3053 	strbmi.w	r3, [sp, #83]	; 0x53
 800d442:	f89a 3000 	ldrb.w	r3, [sl]
 800d446:	2b2a      	cmp	r3, #42	; 0x2a
 800d448:	d015      	beq.n	800d476 <_svfiprintf_r+0xf6>
 800d44a:	9a07      	ldr	r2, [sp, #28]
 800d44c:	4654      	mov	r4, sl
 800d44e:	2000      	movs	r0, #0
 800d450:	f04f 0c0a 	mov.w	ip, #10
 800d454:	4621      	mov	r1, r4
 800d456:	f811 3b01 	ldrb.w	r3, [r1], #1
 800d45a:	3b30      	subs	r3, #48	; 0x30
 800d45c:	2b09      	cmp	r3, #9
 800d45e:	d94e      	bls.n	800d4fe <_svfiprintf_r+0x17e>
 800d460:	b1b0      	cbz	r0, 800d490 <_svfiprintf_r+0x110>
 800d462:	9207      	str	r2, [sp, #28]
 800d464:	e014      	b.n	800d490 <_svfiprintf_r+0x110>
 800d466:	eba0 0308 	sub.w	r3, r0, r8
 800d46a:	fa09 f303 	lsl.w	r3, r9, r3
 800d46e:	4313      	orrs	r3, r2
 800d470:	9304      	str	r3, [sp, #16]
 800d472:	46a2      	mov	sl, r4
 800d474:	e7d2      	b.n	800d41c <_svfiprintf_r+0x9c>
 800d476:	9b03      	ldr	r3, [sp, #12]
 800d478:	1d19      	adds	r1, r3, #4
 800d47a:	681b      	ldr	r3, [r3, #0]
 800d47c:	9103      	str	r1, [sp, #12]
 800d47e:	2b00      	cmp	r3, #0
 800d480:	bfbb      	ittet	lt
 800d482:	425b      	neglt	r3, r3
 800d484:	f042 0202 	orrlt.w	r2, r2, #2
 800d488:	9307      	strge	r3, [sp, #28]
 800d48a:	9307      	strlt	r3, [sp, #28]
 800d48c:	bfb8      	it	lt
 800d48e:	9204      	strlt	r2, [sp, #16]
 800d490:	7823      	ldrb	r3, [r4, #0]
 800d492:	2b2e      	cmp	r3, #46	; 0x2e
 800d494:	d10c      	bne.n	800d4b0 <_svfiprintf_r+0x130>
 800d496:	7863      	ldrb	r3, [r4, #1]
 800d498:	2b2a      	cmp	r3, #42	; 0x2a
 800d49a:	d135      	bne.n	800d508 <_svfiprintf_r+0x188>
 800d49c:	9b03      	ldr	r3, [sp, #12]
 800d49e:	1d1a      	adds	r2, r3, #4
 800d4a0:	681b      	ldr	r3, [r3, #0]
 800d4a2:	9203      	str	r2, [sp, #12]
 800d4a4:	2b00      	cmp	r3, #0
 800d4a6:	bfb8      	it	lt
 800d4a8:	f04f 33ff 	movlt.w	r3, #4294967295
 800d4ac:	3402      	adds	r4, #2
 800d4ae:	9305      	str	r3, [sp, #20]
 800d4b0:	f8df a0c8 	ldr.w	sl, [pc, #200]	; 800d57c <_svfiprintf_r+0x1fc>
 800d4b4:	7821      	ldrb	r1, [r4, #0]
 800d4b6:	2203      	movs	r2, #3
 800d4b8:	4650      	mov	r0, sl
 800d4ba:	f7f2 fe91 	bl	80001e0 <memchr>
 800d4be:	b140      	cbz	r0, 800d4d2 <_svfiprintf_r+0x152>
 800d4c0:	2340      	movs	r3, #64	; 0x40
 800d4c2:	eba0 000a 	sub.w	r0, r0, sl
 800d4c6:	fa03 f000 	lsl.w	r0, r3, r0
 800d4ca:	9b04      	ldr	r3, [sp, #16]
 800d4cc:	4303      	orrs	r3, r0
 800d4ce:	3401      	adds	r4, #1
 800d4d0:	9304      	str	r3, [sp, #16]
 800d4d2:	f814 1b01 	ldrb.w	r1, [r4], #1
 800d4d6:	4826      	ldr	r0, [pc, #152]	; (800d570 <_svfiprintf_r+0x1f0>)
 800d4d8:	f88d 1028 	strb.w	r1, [sp, #40]	; 0x28
 800d4dc:	2206      	movs	r2, #6
 800d4de:	f7f2 fe7f 	bl	80001e0 <memchr>
 800d4e2:	2800      	cmp	r0, #0
 800d4e4:	d038      	beq.n	800d558 <_svfiprintf_r+0x1d8>
 800d4e6:	4b23      	ldr	r3, [pc, #140]	; (800d574 <_svfiprintf_r+0x1f4>)
 800d4e8:	bb1b      	cbnz	r3, 800d532 <_svfiprintf_r+0x1b2>
 800d4ea:	9b03      	ldr	r3, [sp, #12]
 800d4ec:	3307      	adds	r3, #7
 800d4ee:	f023 0307 	bic.w	r3, r3, #7
 800d4f2:	3308      	adds	r3, #8
 800d4f4:	9303      	str	r3, [sp, #12]
 800d4f6:	9b09      	ldr	r3, [sp, #36]	; 0x24
 800d4f8:	4433      	add	r3, r6
 800d4fa:	9309      	str	r3, [sp, #36]	; 0x24
 800d4fc:	e767      	b.n	800d3ce <_svfiprintf_r+0x4e>
 800d4fe:	fb0c 3202 	mla	r2, ip, r2, r3
 800d502:	460c      	mov	r4, r1
 800d504:	2001      	movs	r0, #1
 800d506:	e7a5      	b.n	800d454 <_svfiprintf_r+0xd4>
 800d508:	2300      	movs	r3, #0
 800d50a:	3401      	adds	r4, #1
 800d50c:	9305      	str	r3, [sp, #20]
 800d50e:	4619      	mov	r1, r3
 800d510:	f04f 0c0a 	mov.w	ip, #10
 800d514:	4620      	mov	r0, r4
 800d516:	f810 2b01 	ldrb.w	r2, [r0], #1
 800d51a:	3a30      	subs	r2, #48	; 0x30
 800d51c:	2a09      	cmp	r2, #9
 800d51e:	d903      	bls.n	800d528 <_svfiprintf_r+0x1a8>
 800d520:	2b00      	cmp	r3, #0
 800d522:	d0c5      	beq.n	800d4b0 <_svfiprintf_r+0x130>
 800d524:	9105      	str	r1, [sp, #20]
 800d526:	e7c3      	b.n	800d4b0 <_svfiprintf_r+0x130>
 800d528:	fb0c 2101 	mla	r1, ip, r1, r2
 800d52c:	4604      	mov	r4, r0
 800d52e:	2301      	movs	r3, #1
 800d530:	e7f0      	b.n	800d514 <_svfiprintf_r+0x194>
 800d532:	ab03      	add	r3, sp, #12
 800d534:	9300      	str	r3, [sp, #0]
 800d536:	462a      	mov	r2, r5
 800d538:	4b0f      	ldr	r3, [pc, #60]	; (800d578 <_svfiprintf_r+0x1f8>)
 800d53a:	a904      	add	r1, sp, #16
 800d53c:	4638      	mov	r0, r7
 800d53e:	f7fc fa57 	bl	80099f0 <_printf_float>
 800d542:	1c42      	adds	r2, r0, #1
 800d544:	4606      	mov	r6, r0
 800d546:	d1d6      	bne.n	800d4f6 <_svfiprintf_r+0x176>
 800d548:	89ab      	ldrh	r3, [r5, #12]
 800d54a:	065b      	lsls	r3, r3, #25
 800d54c:	f53f af2c 	bmi.w	800d3a8 <_svfiprintf_r+0x28>
 800d550:	9809      	ldr	r0, [sp, #36]	; 0x24
 800d552:	b01d      	add	sp, #116	; 0x74
 800d554:	e8bd 8ff0 	ldmia.w	sp!, {r4, r5, r6, r7, r8, r9, sl, fp, pc}
 800d558:	ab03      	add	r3, sp, #12
 800d55a:	9300      	str	r3, [sp, #0]
 800d55c:	462a      	mov	r2, r5
 800d55e:	4b06      	ldr	r3, [pc, #24]	; (800d578 <_svfiprintf_r+0x1f8>)
 800d560:	a904      	add	r1, sp, #16
 800d562:	4638      	mov	r0, r7
 800d564:	f7fc fce8 	bl	8009f38 <_printf_i>
 800d568:	e7eb      	b.n	800d542 <_svfiprintf_r+0x1c2>
 800d56a:	bf00      	nop
 800d56c:	0800f104 	.word	0x0800f104
 800d570:	0800f10e 	.word	0x0800f10e
 800d574:	080099f1 	.word	0x080099f1
 800d578:	0800d2c9 	.word	0x0800d2c9
 800d57c:	0800f10a 	.word	0x0800f10a

0800d580 <nan>:
 800d580:	ed9f 0b01 	vldr	d0, [pc, #4]	; 800d588 <nan+0x8>
 800d584:	4770      	bx	lr
 800d586:	bf00      	nop
 800d588:	00000000 	.word	0x00000000
 800d58c:	7ff80000 	.word	0x7ff80000

0800d590 <_sbrk_r>:
 800d590:	b538      	push	{r3, r4, r5, lr}
 800d592:	4d06      	ldr	r5, [pc, #24]	; (800d5ac <_sbrk_r+0x1c>)
 800d594:	2300      	movs	r3, #0
 800d596:	4604      	mov	r4, r0
 800d598:	4608      	mov	r0, r1
 800d59a:	602b      	str	r3, [r5, #0]
 800d59c:	f7f7 f9dc 	bl	8004958 <_sbrk>
 800d5a0:	1c43      	adds	r3, r0, #1
 800d5a2:	d102      	bne.n	800d5aa <_sbrk_r+0x1a>
 800d5a4:	682b      	ldr	r3, [r5, #0]
 800d5a6:	b103      	cbz	r3, 800d5aa <_sbrk_r+0x1a>
 800d5a8:	6023      	str	r3, [r4, #0]
 800d5aa:	bd38      	pop	{r3, r4, r5, pc}
 800d5ac:	200063bc 	.word	0x200063bc

0800d5b0 <strncmp>:
 800d5b0:	b510      	push	{r4, lr}
 800d5b2:	b17a      	cbz	r2, 800d5d4 <strncmp+0x24>
 800d5b4:	4603      	mov	r3, r0
 800d5b6:	3901      	subs	r1, #1
 800d5b8:	1884      	adds	r4, r0, r2
 800d5ba:	f813 0b01 	ldrb.w	r0, [r3], #1
 800d5be:	f811 2f01 	ldrb.w	r2, [r1, #1]!
 800d5c2:	4290      	cmp	r0, r2
 800d5c4:	d101      	bne.n	800d5ca <strncmp+0x1a>
 800d5c6:	42a3      	cmp	r3, r4
 800d5c8:	d101      	bne.n	800d5ce <strncmp+0x1e>
 800d5ca:	1a80      	subs	r0, r0, r2
 800d5cc:	bd10      	pop	{r4, pc}
 800d5ce:	2800      	cmp	r0, #0
 800d5d0:	d1f3      	bne.n	800d5ba <strncmp+0xa>
 800d5d2:	e7fa      	b.n	800d5ca <strncmp+0x1a>
 800d5d4:	4610      	mov	r0, r2
 800d5d6:	e7f9      	b.n	800d5cc <strncmp+0x1c>

0800d5d8 <__ascii_wctomb>:
 800d5d8:	b149      	cbz	r1, 800d5ee <__ascii_wctomb+0x16>
 800d5da:	2aff      	cmp	r2, #255	; 0xff
 800d5dc:	bf85      	ittet	hi
 800d5de:	238a      	movhi	r3, #138	; 0x8a
 800d5e0:	6003      	strhi	r3, [r0, #0]
 800d5e2:	700a      	strbls	r2, [r1, #0]
 800d5e4:	f04f 30ff 	movhi.w	r0, #4294967295
 800d5e8:	bf98      	it	ls
 800d5ea:	2001      	movls	r0, #1
 800d5ec:	4770      	bx	lr
 800d5ee:	4608      	mov	r0, r1
 800d5f0:	4770      	bx	lr
	...

0800d5f4 <__assert_func>:
 800d5f4:	b51f      	push	{r0, r1, r2, r3, r4, lr}
 800d5f6:	4614      	mov	r4, r2
 800d5f8:	461a      	mov	r2, r3
 800d5fa:	4b09      	ldr	r3, [pc, #36]	; (800d620 <__assert_func+0x2c>)
 800d5fc:	681b      	ldr	r3, [r3, #0]
 800d5fe:	4605      	mov	r5, r0
 800d600:	68d8      	ldr	r0, [r3, #12]
 800d602:	b14c      	cbz	r4, 800d618 <__assert_func+0x24>
 800d604:	4b07      	ldr	r3, [pc, #28]	; (800d624 <__assert_func+0x30>)
 800d606:	9100      	str	r1, [sp, #0]
 800d608:	e9cd 3401 	strd	r3, r4, [sp, #4]
 800d60c:	4906      	ldr	r1, [pc, #24]	; (800d628 <__assert_func+0x34>)
 800d60e:	462b      	mov	r3, r5
 800d610:	f000 f80e 	bl	800d630 <fiprintf>
 800d614:	f000 fa8c 	bl	800db30 <abort>
 800d618:	4b04      	ldr	r3, [pc, #16]	; (800d62c <__assert_func+0x38>)
 800d61a:	461c      	mov	r4, r3
 800d61c:	e7f3      	b.n	800d606 <__assert_func+0x12>
 800d61e:	bf00      	nop
 800d620:	20000014 	.word	0x20000014
 800d624:	0800f115 	.word	0x0800f115
 800d628:	0800f122 	.word	0x0800f122
 800d62c:	0800f150 	.word	0x0800f150

0800d630 <fiprintf>:
 800d630:	b40e      	push	{r1, r2, r3}
 800d632:	b503      	push	{r0, r1, lr}
 800d634:	4601      	mov	r1, r0
 800d636:	ab03      	add	r3, sp, #12
 800d638:	4805      	ldr	r0, [pc, #20]	; (800d650 <fiprintf+0x20>)
 800d63a:	f853 2b04 	ldr.w	r2, [r3], #4
 800d63e:	6800      	ldr	r0, [r0, #0]
 800d640:	9301      	str	r3, [sp, #4]
 800d642:	f000 f885 	bl	800d750 <_vfiprintf_r>
 800d646:	b002      	add	sp, #8
 800d648:	f85d eb04 	ldr.w	lr, [sp], #4
 800d64c:	b003      	add	sp, #12
 800d64e:	4770      	bx	lr
 800d650:	20000014 	.word	0x20000014

0800d654 <memmove>:
 800d654:	4288      	cmp	r0, r1
 800d656:	b510      	push	{r4, lr}
 800d658:	eb01 0402 	add.w	r4, r1, r2
 800d65c:	d902      	bls.n	800d664 <memmove+0x10>
 800d65e:	4284      	cmp	r4, r0
 800d660:	4623      	mov	r3, r4
 800d662:	d807      	bhi.n	800d674 <memmove+0x20>
 800d664:	1e43      	subs	r3, r0, #1
 800d666:	42a1      	cmp	r1, r4
 800d668:	d008      	beq.n	800d67c <memmove+0x28>
 800d66a:	f811 2b01 	ldrb.w	r2, [r1], #1
 800d66e:	f803 2f01 	strb.w	r2, [r3, #1]!
 800d672:	e7f8      	b.n	800d666 <memmove+0x12>
 800d674:	4402      	add	r2, r0
 800d676:	4601      	mov	r1, r0
 800d678:	428a      	cmp	r2, r1
 800d67a:	d100      	bne.n	800d67e <memmove+0x2a>
 800d67c:	bd10      	pop	{r4, pc}
 800d67e:	f813 4d01 	ldrb.w	r4, [r3, #-1]!
 800d682:	f802 4d01 	strb.w	r4, [r2, #-1]!
 800d686:	e7f7      	b.n	800d678 <memmove+0x24>

0800d688 <__malloc_lock>:
 800d688:	4801      	ldr	r0, [pc, #4]	; (800d690 <__malloc_lock+0x8>)
 800d68a:	f000 bc11 	b.w	800deb0 <__retarget_lock_acquire_recursive>
 800d68e:	bf00      	nop
 800d690:	200063c0 	.word	0x200063c0

0800d694 <__malloc_unlock>:
 800d694:	4801      	ldr	r0, [pc, #4]	; (800d69c <__malloc_unlock+0x8>)
 800d696:	f000 bc0c 	b.w	800deb2 <__retarget_lock_release_recursive>
 800d69a:	bf00      	nop
 800d69c:	200063c0 	.word	0x200063c0

0800d6a0 <_realloc_r>:
 800d6a0:	e92d 41f0 	stmdb	sp!, {r4, r5, r6, r7, r8, lr}
 800d6a4:	4680      	mov	r8, r0
 800d6a6:	4614      	mov	r4, r2
 800d6a8:	460e      	mov	r6, r1
 800d6aa:	b921      	cbnz	r1, 800d6b6 <_realloc_r+0x16>
 800d6ac:	e8bd 41f0 	ldmia.w	sp!, {r4, r5, r6, r7, r8, lr}
 800d6b0:	4611      	mov	r1, r2
 800d6b2:	f7ff bd95 	b.w	800d1e0 <_malloc_r>
 800d6b6:	b92a      	cbnz	r2, 800d6c4 <_realloc_r+0x24>
 800d6b8:	f7ff fd26 	bl	800d108 <_free_r>
 800d6bc:	4625      	mov	r5, r4
 800d6be:	4628      	mov	r0, r5
 800d6c0:	e8bd 81f0 	ldmia.w	sp!, {r4, r5, r6, r7, r8, pc}
 800d6c4:	f000 fc5c 	bl	800df80 <_malloc_usable_size_r>
 800d6c8:	4284      	cmp	r4, r0
 800d6ca:	4607      	mov	r7, r0
 800d6cc:	d802      	bhi.n	800d6d4 <_realloc_r+0x34>
 800d6ce:	ebb4 0f50 	cmp.w	r4, r0, lsr #1
 800d6d2:	d812      	bhi.n	800d6fa <_realloc_r+0x5a>
 800d6d4:	4621      	mov	r1, r4
 800d6d6:	4640      	mov	r0, r8
 800d6d8:	f7ff fd82 	bl	800d1e0 <_malloc_r>
 800d6dc:	4605      	mov	r5, r0
 800d6de:	2800      	cmp	r0, #0
 800d6e0:	d0ed      	beq.n	800d6be <_realloc_r+0x1e>
 800d6e2:	42bc      	cmp	r4, r7
 800d6e4:	4622      	mov	r2, r4
 800d6e6:	4631      	mov	r1, r6
 800d6e8:	bf28      	it	cs
 800d6ea:	463a      	movcs	r2, r7
 800d6ec:	f7fc f8ca 	bl	8009884 <memcpy>
 800d6f0:	4631      	mov	r1, r6
 800d6f2:	4640      	mov	r0, r8
 800d6f4:	f7ff fd08 	bl	800d108 <_free_r>
 800d6f8:	e7e1      	b.n	800d6be <_realloc_r+0x1e>
 800d6fa:	4635      	mov	r5, r6
 800d6fc:	e7df      	b.n	800d6be <_realloc_r+0x1e>

0800d6fe <__sfputc_r>:
 800d6fe:	6893      	ldr	r3, [r2, #8]
 800d700:	3b01      	subs	r3, #1
 800d702:	2b00      	cmp	r3, #0
 800d704:	b410      	push	{r4}
 800d706:	6093      	str	r3, [r2, #8]
 800d708:	da08      	bge.n	800d71c <__sfputc_r+0x1e>
 800d70a:	6994      	ldr	r4, [r2, #24]
 800d70c:	42a3      	cmp	r3, r4
 800d70e:	db01      	blt.n	800d714 <__sfputc_r+0x16>
 800d710:	290a      	cmp	r1, #10
 800d712:	d103      	bne.n	800d71c <__sfputc_r+0x1e>
 800d714:	f85d 4b04 	ldr.w	r4, [sp], #4
 800d718:	f000 b94a 	b.w	800d9b0 <__swbuf_r>
 800d71c:	6813      	ldr	r3, [r2, #0]
 800d71e:	1c58      	adds	r0, r3, #1
 800d720:	6010      	str	r0, [r2, #0]
 800d722:	7019      	strb	r1, [r3, #0]
 800d724:	4608      	mov	r0, r1
 800d726:	f85d 4b04 	ldr.w	r4, [sp], #4
 800d72a:	4770      	bx	lr

0800d72c <__sfputs_r>:
 800d72c:	b5f8      	push	{r3, r4, r5, r6, r7, lr}
 800d72e:	4606      	mov	r6, r0
 800d730:	460f      	mov	r7, r1
 800d732:	4614      	mov	r4, r2
 800d734:	18d5      	adds	r5, r2, r3
 800d736:	42ac      	cmp	r4, r5
 800d738:	d101      	bne.n	800d73e <__sfputs_r+0x12>
 800d73a:	2000      	movs	r0, #0
 800d73c:	e007      	b.n	800d74e <__sfputs_r+0x22>
 800d73e:	f814 1b01 	ldrb.w	r1, [r4], #1
 800d742:	463a      	mov	r2, r7
 800d744:	4630      	mov	r0, r6
 800d746:	f7ff ffda 	bl	800d6fe <__sfputc_r>
 800d74a:	1c43      	adds	r3, r0, #1
 800d74c:	d1f3      	bne.n	800d736 <__sfputs_r+0xa>
 800d74e:	bdf8      	pop	{r3, r4, r5, r6, r7, pc}

0800d750 <_vfiprintf_r>:
 800d750:	e92d 4ff0 	stmdb	sp!, {r4, r5, r6, r7, r8, r9, sl, fp, lr}
 800d754:	460d      	mov	r5, r1
 800d756:	b09d      	sub	sp, #116	; 0x74
 800d758:	4614      	mov	r4, r2
 800d75a:	4698      	mov	r8, r3
 800d75c:	4606      	mov	r6, r0
 800d75e:	b118      	cbz	r0, 800d768 <_vfiprintf_r+0x18>
 800d760:	6983      	ldr	r3, [r0, #24]
 800d762:	b90b      	cbnz	r3, 800d768 <_vfiprintf_r+0x18>
 800d764:	f000 fb06 	bl	800dd74 <__sinit>
 800d768:	4b89      	ldr	r3, [pc, #548]	; (800d990 <_vfiprintf_r+0x240>)
 800d76a:	429d      	cmp	r5, r3
 800d76c:	d11b      	bne.n	800d7a6 <_vfiprintf_r+0x56>
 800d76e:	6875      	ldr	r5, [r6, #4]
 800d770:	6e6b      	ldr	r3, [r5, #100]	; 0x64
 800d772:	07d9      	lsls	r1, r3, #31
 800d774:	d405      	bmi.n	800d782 <_vfiprintf_r+0x32>
 800d776:	89ab      	ldrh	r3, [r5, #12]
 800d778:	059a      	lsls	r2, r3, #22
 800d77a:	d402      	bmi.n	800d782 <_vfiprintf_r+0x32>
 800d77c:	6da8      	ldr	r0, [r5, #88]	; 0x58
 800d77e:	f000 fb97 	bl	800deb0 <__retarget_lock_acquire_recursive>
 800d782:	89ab      	ldrh	r3, [r5, #12]
 800d784:	071b      	lsls	r3, r3, #28
 800d786:	d501      	bpl.n	800d78c <_vfiprintf_r+0x3c>
 800d788:	692b      	ldr	r3, [r5, #16]
 800d78a:	b9eb      	cbnz	r3, 800d7c8 <_vfiprintf_r+0x78>
 800d78c:	4629      	mov	r1, r5
 800d78e:	4630      	mov	r0, r6
 800d790:	f000 f960 	bl	800da54 <__swsetup_r>
 800d794:	b1c0      	cbz	r0, 800d7c8 <_vfiprintf_r+0x78>
 800d796:	6e6b      	ldr	r3, [r5, #100]	; 0x64
 800d798:	07dc      	lsls	r4, r3, #31
 800d79a:	d50e      	bpl.n	800d7ba <_vfiprintf_r+0x6a>
 800d79c:	f04f 30ff 	mov.w	r0, #4294967295
 800d7a0:	b01d      	add	sp, #116	; 0x74
 800d7a2:	e8bd 8ff0 	ldmia.w	sp!, {r4, r5, r6, r7, r8, r9, sl, fp, pc}
 800d7a6:	4b7b      	ldr	r3, [pc, #492]	; (800d994 <_vfiprintf_r+0x244>)
 800d7a8:	429d      	cmp	r5, r3
 800d7aa:	d101      	bne.n	800d7b0 <_vfiprintf_r+0x60>
 800d7ac:	68b5      	ldr	r5, [r6, #8]
 800d7ae:	e7df      	b.n	800d770 <_vfiprintf_r+0x20>
 800d7b0:	4b79      	ldr	r3, [pc, #484]	; (800d998 <_vfiprintf_r+0x248>)
 800d7b2:	429d      	cmp	r5, r3
 800d7b4:	bf08      	it	eq
 800d7b6:	68f5      	ldreq	r5, [r6, #12]
 800d7b8:	e7da      	b.n	800d770 <_vfiprintf_r+0x20>
 800d7ba:	89ab      	ldrh	r3, [r5, #12]
 800d7bc:	0598      	lsls	r0, r3, #22
 800d7be:	d4ed      	bmi.n	800d79c <_vfiprintf_r+0x4c>
 800d7c0:	6da8      	ldr	r0, [r5, #88]	; 0x58
 800d7c2:	f000 fb76 	bl	800deb2 <__retarget_lock_release_recursive>
 800d7c6:	e7e9      	b.n	800d79c <_vfiprintf_r+0x4c>
 800d7c8:	2300      	movs	r3, #0
 800d7ca:	9309      	str	r3, [sp, #36]	; 0x24
 800d7cc:	2320      	movs	r3, #32
 800d7ce:	f88d 3029 	strb.w	r3, [sp, #41]	; 0x29
 800d7d2:	f8cd 800c 	str.w	r8, [sp, #12]
 800d7d6:	2330      	movs	r3, #48	; 0x30
 800d7d8:	f8df 81c0 	ldr.w	r8, [pc, #448]	; 800d99c <_vfiprintf_r+0x24c>
 800d7dc:	f88d 302a 	strb.w	r3, [sp, #42]	; 0x2a
 800d7e0:	f04f 0901 	mov.w	r9, #1
 800d7e4:	4623      	mov	r3, r4
 800d7e6:	469a      	mov	sl, r3
 800d7e8:	f813 2b01 	ldrb.w	r2, [r3], #1
 800d7ec:	b10a      	cbz	r2, 800d7f2 <_vfiprintf_r+0xa2>
 800d7ee:	2a25      	cmp	r2, #37	; 0x25
 800d7f0:	d1f9      	bne.n	800d7e6 <_vfiprintf_r+0x96>
 800d7f2:	ebba 0b04 	subs.w	fp, sl, r4
 800d7f6:	d00b      	beq.n	800d810 <_vfiprintf_r+0xc0>
 800d7f8:	465b      	mov	r3, fp
 800d7fa:	4622      	mov	r2, r4
 800d7fc:	4629      	mov	r1, r5
 800d7fe:	4630      	mov	r0, r6
 800d800:	f7ff ff94 	bl	800d72c <__sfputs_r>
 800d804:	3001      	adds	r0, #1
 800d806:	f000 80aa 	beq.w	800d95e <_vfiprintf_r+0x20e>
 800d80a:	9a09      	ldr	r2, [sp, #36]	; 0x24
 800d80c:	445a      	add	r2, fp
 800d80e:	9209      	str	r2, [sp, #36]	; 0x24
 800d810:	f89a 3000 	ldrb.w	r3, [sl]
 800d814:	2b00      	cmp	r3, #0
 800d816:	f000 80a2 	beq.w	800d95e <_vfiprintf_r+0x20e>
 800d81a:	2300      	movs	r3, #0
 800d81c:	f04f 32ff 	mov.w	r2, #4294967295
 800d820:	e9cd 2305 	strd	r2, r3, [sp, #20]
 800d824:	f10a 0a01 	add.w	sl, sl, #1
 800d828:	9304      	str	r3, [sp, #16]
 800d82a:	9307      	str	r3, [sp, #28]
 800d82c:	f88d 3053 	strb.w	r3, [sp, #83]	; 0x53
 800d830:	931a      	str	r3, [sp, #104]	; 0x68
 800d832:	4654      	mov	r4, sl
 800d834:	2205      	movs	r2, #5
 800d836:	f814 1b01 	ldrb.w	r1, [r4], #1
 800d83a:	4858      	ldr	r0, [pc, #352]	; (800d99c <_vfiprintf_r+0x24c>)
 800d83c:	f7f2 fcd0 	bl	80001e0 <memchr>
 800d840:	9a04      	ldr	r2, [sp, #16]
 800d842:	b9d8      	cbnz	r0, 800d87c <_vfiprintf_r+0x12c>
 800d844:	06d1      	lsls	r1, r2, #27
 800d846:	bf44      	itt	mi
 800d848:	2320      	movmi	r3, #32
 800d84a:	f88d 3053 	strbmi.w	r3, [sp, #83]	; 0x53
 800d84e:	0713      	lsls	r3, r2, #28
 800d850:	bf44      	itt	mi
 800d852:	232b      	movmi	r3, #43	; 0x2b
 800d854:	f88d 3053 	strbmi.w	r3, [sp, #83]	; 0x53
 800d858:	f89a 3000 	ldrb.w	r3, [sl]
 800d85c:	2b2a      	cmp	r3, #42	; 0x2a
 800d85e:	d015      	beq.n	800d88c <_vfiprintf_r+0x13c>
 800d860:	9a07      	ldr	r2, [sp, #28]
 800d862:	4654      	mov	r4, sl
 800d864:	2000      	movs	r0, #0
 800d866:	f04f 0c0a 	mov.w	ip, #10
 800d86a:	4621      	mov	r1, r4
 800d86c:	f811 3b01 	ldrb.w	r3, [r1], #1
 800d870:	3b30      	subs	r3, #48	; 0x30
 800d872:	2b09      	cmp	r3, #9
 800d874:	d94e      	bls.n	800d914 <_vfiprintf_r+0x1c4>
 800d876:	b1b0      	cbz	r0, 800d8a6 <_vfiprintf_r+0x156>
 800d878:	9207      	str	r2, [sp, #28]
 800d87a:	e014      	b.n	800d8a6 <_vfiprintf_r+0x156>
 800d87c:	eba0 0308 	sub.w	r3, r0, r8
 800d880:	fa09 f303 	lsl.w	r3, r9, r3
 800d884:	4313      	orrs	r3, r2
 800d886:	9304      	str	r3, [sp, #16]
 800d888:	46a2      	mov	sl, r4
 800d88a:	e7d2      	b.n	800d832 <_vfiprintf_r+0xe2>
 800d88c:	9b03      	ldr	r3, [sp, #12]
 800d88e:	1d19      	adds	r1, r3, #4
 800d890:	681b      	ldr	r3, [r3, #0]
 800d892:	9103      	str	r1, [sp, #12]
 800d894:	2b00      	cmp	r3, #0
 800d896:	bfbb      	ittet	lt
 800d898:	425b      	neglt	r3, r3
 800d89a:	f042 0202 	orrlt.w	r2, r2, #2
 800d89e:	9307      	strge	r3, [sp, #28]
 800d8a0:	9307      	strlt	r3, [sp, #28]
 800d8a2:	bfb8      	it	lt
 800d8a4:	9204      	strlt	r2, [sp, #16]
 800d8a6:	7823      	ldrb	r3, [r4, #0]
 800d8a8:	2b2e      	cmp	r3, #46	; 0x2e
 800d8aa:	d10c      	bne.n	800d8c6 <_vfiprintf_r+0x176>
 800d8ac:	7863      	ldrb	r3, [r4, #1]
 800d8ae:	2b2a      	cmp	r3, #42	; 0x2a
 800d8b0:	d135      	bne.n	800d91e <_vfiprintf_r+0x1ce>
 800d8b2:	9b03      	ldr	r3, [sp, #12]
 800d8b4:	1d1a      	adds	r2, r3, #4
 800d8b6:	681b      	ldr	r3, [r3, #0]
 800d8b8:	9203      	str	r2, [sp, #12]
 800d8ba:	2b00      	cmp	r3, #0
 800d8bc:	bfb8      	it	lt
 800d8be:	f04f 33ff 	movlt.w	r3, #4294967295
 800d8c2:	3402      	adds	r4, #2
 800d8c4:	9305      	str	r3, [sp, #20]
 800d8c6:	f8df a0e4 	ldr.w	sl, [pc, #228]	; 800d9ac <_vfiprintf_r+0x25c>
 800d8ca:	7821      	ldrb	r1, [r4, #0]
 800d8cc:	2203      	movs	r2, #3
 800d8ce:	4650      	mov	r0, sl
 800d8d0:	f7f2 fc86 	bl	80001e0 <memchr>
 800d8d4:	b140      	cbz	r0, 800d8e8 <_vfiprintf_r+0x198>
 800d8d6:	2340      	movs	r3, #64	; 0x40
 800d8d8:	eba0 000a 	sub.w	r0, r0, sl
 800d8dc:	fa03 f000 	lsl.w	r0, r3, r0
 800d8e0:	9b04      	ldr	r3, [sp, #16]
 800d8e2:	4303      	orrs	r3, r0
 800d8e4:	3401      	adds	r4, #1
 800d8e6:	9304      	str	r3, [sp, #16]
 800d8e8:	f814 1b01 	ldrb.w	r1, [r4], #1
 800d8ec:	482c      	ldr	r0, [pc, #176]	; (800d9a0 <_vfiprintf_r+0x250>)
 800d8ee:	f88d 1028 	strb.w	r1, [sp, #40]	; 0x28
 800d8f2:	2206      	movs	r2, #6
 800d8f4:	f7f2 fc74 	bl	80001e0 <memchr>
 800d8f8:	2800      	cmp	r0, #0
 800d8fa:	d03f      	beq.n	800d97c <_vfiprintf_r+0x22c>
 800d8fc:	4b29      	ldr	r3, [pc, #164]	; (800d9a4 <_vfiprintf_r+0x254>)
 800d8fe:	bb1b      	cbnz	r3, 800d948 <_vfiprintf_r+0x1f8>
 800d900:	9b03      	ldr	r3, [sp, #12]
 800d902:	3307      	adds	r3, #7
 800d904:	f023 0307 	bic.w	r3, r3, #7
 800d908:	3308      	adds	r3, #8
 800d90a:	9303      	str	r3, [sp, #12]
 800d90c:	9b09      	ldr	r3, [sp, #36]	; 0x24
 800d90e:	443b      	add	r3, r7
 800d910:	9309      	str	r3, [sp, #36]	; 0x24
 800d912:	e767      	b.n	800d7e4 <_vfiprintf_r+0x94>
 800d914:	fb0c 3202 	mla	r2, ip, r2, r3
 800d918:	460c      	mov	r4, r1
 800d91a:	2001      	movs	r0, #1
 800d91c:	e7a5      	b.n	800d86a <_vfiprintf_r+0x11a>
 800d91e:	2300      	movs	r3, #0
 800d920:	3401      	adds	r4, #1
 800d922:	9305      	str	r3, [sp, #20]
 800d924:	4619      	mov	r1, r3
 800d926:	f04f 0c0a 	mov.w	ip, #10
 800d92a:	4620      	mov	r0, r4
 800d92c:	f810 2b01 	ldrb.w	r2, [r0], #1
 800d930:	3a30      	subs	r2, #48	; 0x30
 800d932:	2a09      	cmp	r2, #9
 800d934:	d903      	bls.n	800d93e <_vfiprintf_r+0x1ee>
 800d936:	2b00      	cmp	r3, #0
 800d938:	d0c5      	beq.n	800d8c6 <_vfiprintf_r+0x176>
 800d93a:	9105      	str	r1, [sp, #20]
 800d93c:	e7c3      	b.n	800d8c6 <_vfiprintf_r+0x176>
 800d93e:	fb0c 2101 	mla	r1, ip, r1, r2
 800d942:	4604      	mov	r4, r0
 800d944:	2301      	movs	r3, #1
 800d946:	e7f0      	b.n	800d92a <_vfiprintf_r+0x1da>
 800d948:	ab03      	add	r3, sp, #12
 800d94a:	9300      	str	r3, [sp, #0]
 800d94c:	462a      	mov	r2, r5
 800d94e:	4b16      	ldr	r3, [pc, #88]	; (800d9a8 <_vfiprintf_r+0x258>)
 800d950:	a904      	add	r1, sp, #16
 800d952:	4630      	mov	r0, r6
 800d954:	f7fc f84c 	bl	80099f0 <_printf_float>
 800d958:	4607      	mov	r7, r0
 800d95a:	1c78      	adds	r0, r7, #1
 800d95c:	d1d6      	bne.n	800d90c <_vfiprintf_r+0x1bc>
 800d95e:	6e6b      	ldr	r3, [r5, #100]	; 0x64
 800d960:	07d9      	lsls	r1, r3, #31
 800d962:	d405      	bmi.n	800d970 <_vfiprintf_r+0x220>
 800d964:	89ab      	ldrh	r3, [r5, #12]
 800d966:	059a      	lsls	r2, r3, #22
 800d968:	d402      	bmi.n	800d970 <_vfiprintf_r+0x220>
 800d96a:	6da8      	ldr	r0, [r5, #88]	; 0x58
 800d96c:	f000 faa1 	bl	800deb2 <__retarget_lock_release_recursive>
 800d970:	89ab      	ldrh	r3, [r5, #12]
 800d972:	065b      	lsls	r3, r3, #25
 800d974:	f53f af12 	bmi.w	800d79c <_vfiprintf_r+0x4c>
 800d978:	9809      	ldr	r0, [sp, #36]	; 0x24
 800d97a:	e711      	b.n	800d7a0 <_vfiprintf_r+0x50>
 800d97c:	ab03      	add	r3, sp, #12
 800d97e:	9300      	str	r3, [sp, #0]
 800d980:	462a      	mov	r2, r5
 800d982:	4b09      	ldr	r3, [pc, #36]	; (800d9a8 <_vfiprintf_r+0x258>)
 800d984:	a904      	add	r1, sp, #16
 800d986:	4630      	mov	r0, r6
 800d988:	f7fc fad6 	bl	8009f38 <_printf_i>
 800d98c:	e7e4      	b.n	800d958 <_vfiprintf_r+0x208>
 800d98e:	bf00      	nop
 800d990:	0800f174 	.word	0x0800f174
 800d994:	0800f194 	.word	0x0800f194
 800d998:	0800f154 	.word	0x0800f154
 800d99c:	0800f104 	.word	0x0800f104
 800d9a0:	0800f10e 	.word	0x0800f10e
 800d9a4:	080099f1 	.word	0x080099f1
 800d9a8:	0800d72d 	.word	0x0800d72d
 800d9ac:	0800f10a 	.word	0x0800f10a

0800d9b0 <__swbuf_r>:
 800d9b0:	b5f8      	push	{r3, r4, r5, r6, r7, lr}
 800d9b2:	460e      	mov	r6, r1
 800d9b4:	4614      	mov	r4, r2
 800d9b6:	4605      	mov	r5, r0
 800d9b8:	b118      	cbz	r0, 800d9c2 <__swbuf_r+0x12>
 800d9ba:	6983      	ldr	r3, [r0, #24]
 800d9bc:	b90b      	cbnz	r3, 800d9c2 <__swbuf_r+0x12>
 800d9be:	f000 f9d9 	bl	800dd74 <__sinit>
 800d9c2:	4b21      	ldr	r3, [pc, #132]	; (800da48 <__swbuf_r+0x98>)
 800d9c4:	429c      	cmp	r4, r3
 800d9c6:	d12b      	bne.n	800da20 <__swbuf_r+0x70>
 800d9c8:	686c      	ldr	r4, [r5, #4]
 800d9ca:	69a3      	ldr	r3, [r4, #24]
 800d9cc:	60a3      	str	r3, [r4, #8]
 800d9ce:	89a3      	ldrh	r3, [r4, #12]
 800d9d0:	071a      	lsls	r2, r3, #28
 800d9d2:	d52f      	bpl.n	800da34 <__swbuf_r+0x84>
 800d9d4:	6923      	ldr	r3, [r4, #16]
 800d9d6:	b36b      	cbz	r3, 800da34 <__swbuf_r+0x84>
 800d9d8:	6923      	ldr	r3, [r4, #16]
 800d9da:	6820      	ldr	r0, [r4, #0]
 800d9dc:	1ac0      	subs	r0, r0, r3
 800d9de:	6963      	ldr	r3, [r4, #20]
 800d9e0:	b2f6      	uxtb	r6, r6
 800d9e2:	4283      	cmp	r3, r0
 800d9e4:	4637      	mov	r7, r6
 800d9e6:	dc04      	bgt.n	800d9f2 <__swbuf_r+0x42>
 800d9e8:	4621      	mov	r1, r4
 800d9ea:	4628      	mov	r0, r5
 800d9ec:	f000 f92e 	bl	800dc4c <_fflush_r>
 800d9f0:	bb30      	cbnz	r0, 800da40 <__swbuf_r+0x90>
 800d9f2:	68a3      	ldr	r3, [r4, #8]
 800d9f4:	3b01      	subs	r3, #1
 800d9f6:	60a3      	str	r3, [r4, #8]
 800d9f8:	6823      	ldr	r3, [r4, #0]
 800d9fa:	1c5a      	adds	r2, r3, #1
 800d9fc:	6022      	str	r2, [r4, #0]
 800d9fe:	701e      	strb	r6, [r3, #0]
 800da00:	6963      	ldr	r3, [r4, #20]
 800da02:	3001      	adds	r0, #1
 800da04:	4283      	cmp	r3, r0
 800da06:	d004      	beq.n	800da12 <__swbuf_r+0x62>
 800da08:	89a3      	ldrh	r3, [r4, #12]
 800da0a:	07db      	lsls	r3, r3, #31
 800da0c:	d506      	bpl.n	800da1c <__swbuf_r+0x6c>
 800da0e:	2e0a      	cmp	r6, #10
 800da10:	d104      	bne.n	800da1c <__swbuf_r+0x6c>
 800da12:	4621      	mov	r1, r4
 800da14:	4628      	mov	r0, r5
 800da16:	f000 f919 	bl	800dc4c <_fflush_r>
 800da1a:	b988      	cbnz	r0, 800da40 <__swbuf_r+0x90>
 800da1c:	4638      	mov	r0, r7
 800da1e:	bdf8      	pop	{r3, r4, r5, r6, r7, pc}
 800da20:	4b0a      	ldr	r3, [pc, #40]	; (800da4c <__swbuf_r+0x9c>)
 800da22:	429c      	cmp	r4, r3
 800da24:	d101      	bne.n	800da2a <__swbuf_r+0x7a>
 800da26:	68ac      	ldr	r4, [r5, #8]
 800da28:	e7cf      	b.n	800d9ca <__swbuf_r+0x1a>
 800da2a:	4b09      	ldr	r3, [pc, #36]	; (800da50 <__swbuf_r+0xa0>)
 800da2c:	429c      	cmp	r4, r3
 800da2e:	bf08      	it	eq
 800da30:	68ec      	ldreq	r4, [r5, #12]
 800da32:	e7ca      	b.n	800d9ca <__swbuf_r+0x1a>
 800da34:	4621      	mov	r1, r4
 800da36:	4628      	mov	r0, r5
 800da38:	f000 f80c 	bl	800da54 <__swsetup_r>
 800da3c:	2800      	cmp	r0, #0
 800da3e:	d0cb      	beq.n	800d9d8 <__swbuf_r+0x28>
 800da40:	f04f 37ff 	mov.w	r7, #4294967295
 800da44:	e7ea      	b.n	800da1c <__swbuf_r+0x6c>
 800da46:	bf00      	nop
 800da48:	0800f174 	.word	0x0800f174
 800da4c:	0800f194 	.word	0x0800f194
 800da50:	0800f154 	.word	0x0800f154

0800da54 <__swsetup_r>:
 800da54:	4b32      	ldr	r3, [pc, #200]	; (800db20 <__swsetup_r+0xcc>)
 800da56:	b570      	push	{r4, r5, r6, lr}
 800da58:	681d      	ldr	r5, [r3, #0]
 800da5a:	4606      	mov	r6, r0
 800da5c:	460c      	mov	r4, r1
 800da5e:	b125      	cbz	r5, 800da6a <__swsetup_r+0x16>
 800da60:	69ab      	ldr	r3, [r5, #24]
 800da62:	b913      	cbnz	r3, 800da6a <__swsetup_r+0x16>
 800da64:	4628      	mov	r0, r5
 800da66:	f000 f985 	bl	800dd74 <__sinit>
 800da6a:	4b2e      	ldr	r3, [pc, #184]	; (800db24 <__swsetup_r+0xd0>)
 800da6c:	429c      	cmp	r4, r3
 800da6e:	d10f      	bne.n	800da90 <__swsetup_r+0x3c>
 800da70:	686c      	ldr	r4, [r5, #4]
 800da72:	89a3      	ldrh	r3, [r4, #12]
 800da74:	f9b4 200c 	ldrsh.w	r2, [r4, #12]
 800da78:	0719      	lsls	r1, r3, #28
 800da7a:	d42c      	bmi.n	800dad6 <__swsetup_r+0x82>
 800da7c:	06dd      	lsls	r5, r3, #27
 800da7e:	d411      	bmi.n	800daa4 <__swsetup_r+0x50>
 800da80:	2309      	movs	r3, #9
 800da82:	6033      	str	r3, [r6, #0]
 800da84:	f042 0340 	orr.w	r3, r2, #64	; 0x40
 800da88:	81a3      	strh	r3, [r4, #12]
 800da8a:	f04f 30ff 	mov.w	r0, #4294967295
 800da8e:	e03e      	b.n	800db0e <__swsetup_r+0xba>
 800da90:	4b25      	ldr	r3, [pc, #148]	; (800db28 <__swsetup_r+0xd4>)
 800da92:	429c      	cmp	r4, r3
 800da94:	d101      	bne.n	800da9a <__swsetup_r+0x46>
 800da96:	68ac      	ldr	r4, [r5, #8]
 800da98:	e7eb      	b.n	800da72 <__swsetup_r+0x1e>
 800da9a:	4b24      	ldr	r3, [pc, #144]	; (800db2c <__swsetup_r+0xd8>)
 800da9c:	429c      	cmp	r4, r3
 800da9e:	bf08      	it	eq
 800daa0:	68ec      	ldreq	r4, [r5, #12]
 800daa2:	e7e6      	b.n	800da72 <__swsetup_r+0x1e>
 800daa4:	0758      	lsls	r0, r3, #29
 800daa6:	d512      	bpl.n	800dace <__swsetup_r+0x7a>
 800daa8:	6b61      	ldr	r1, [r4, #52]	; 0x34
 800daaa:	b141      	cbz	r1, 800dabe <__swsetup_r+0x6a>
 800daac:	f104 0344 	add.w	r3, r4, #68	; 0x44
 800dab0:	4299      	cmp	r1, r3
 800dab2:	d002      	beq.n	800daba <__swsetup_r+0x66>
 800dab4:	4630      	mov	r0, r6
 800dab6:	f7ff fb27 	bl	800d108 <_free_r>
 800daba:	2300      	movs	r3, #0
 800dabc:	6363      	str	r3, [r4, #52]	; 0x34
 800dabe:	89a3      	ldrh	r3, [r4, #12]
 800dac0:	f023 0324 	bic.w	r3, r3, #36	; 0x24
 800dac4:	81a3      	strh	r3, [r4, #12]
 800dac6:	2300      	movs	r3, #0
 800dac8:	6063      	str	r3, [r4, #4]
 800daca:	6923      	ldr	r3, [r4, #16]
 800dacc:	6023      	str	r3, [r4, #0]
 800dace:	89a3      	ldrh	r3, [r4, #12]
 800dad0:	f043 0308 	orr.w	r3, r3, #8
 800dad4:	81a3      	strh	r3, [r4, #12]
 800dad6:	6923      	ldr	r3, [r4, #16]
 800dad8:	b94b      	cbnz	r3, 800daee <__swsetup_r+0x9a>
 800dada:	89a3      	ldrh	r3, [r4, #12]
 800dadc:	f403 7320 	and.w	r3, r3, #640	; 0x280
 800dae0:	f5b3 7f00 	cmp.w	r3, #512	; 0x200
 800dae4:	d003      	beq.n	800daee <__swsetup_r+0x9a>
 800dae6:	4621      	mov	r1, r4
 800dae8:	4630      	mov	r0, r6
 800daea:	f000 fa09 	bl	800df00 <__smakebuf_r>
 800daee:	89a0      	ldrh	r0, [r4, #12]
 800daf0:	f9b4 200c 	ldrsh.w	r2, [r4, #12]
 800daf4:	f010 0301 	ands.w	r3, r0, #1
 800daf8:	d00a      	beq.n	800db10 <__swsetup_r+0xbc>
 800dafa:	2300      	movs	r3, #0
 800dafc:	60a3      	str	r3, [r4, #8]
 800dafe:	6963      	ldr	r3, [r4, #20]
 800db00:	425b      	negs	r3, r3
 800db02:	61a3      	str	r3, [r4, #24]
 800db04:	6923      	ldr	r3, [r4, #16]
 800db06:	b943      	cbnz	r3, 800db1a <__swsetup_r+0xc6>
 800db08:	f010 0080 	ands.w	r0, r0, #128	; 0x80
 800db0c:	d1ba      	bne.n	800da84 <__swsetup_r+0x30>
 800db0e:	bd70      	pop	{r4, r5, r6, pc}
 800db10:	0781      	lsls	r1, r0, #30
 800db12:	bf58      	it	pl
 800db14:	6963      	ldrpl	r3, [r4, #20]
 800db16:	60a3      	str	r3, [r4, #8]
 800db18:	e7f4      	b.n	800db04 <__swsetup_r+0xb0>
 800db1a:	2000      	movs	r0, #0
 800db1c:	e7f7      	b.n	800db0e <__swsetup_r+0xba>
 800db1e:	bf00      	nop
 800db20:	20000014 	.word	0x20000014
 800db24:	0800f174 	.word	0x0800f174
 800db28:	0800f194 	.word	0x0800f194
 800db2c:	0800f154 	.word	0x0800f154

0800db30 <abort>:
 800db30:	b508      	push	{r3, lr}
 800db32:	2006      	movs	r0, #6
 800db34:	f000 fa54 	bl	800dfe0 <raise>
 800db38:	2001      	movs	r0, #1
 800db3a:	f7f6 fedf 	bl	80048fc <_exit>
	...

0800db40 <__sflush_r>:
 800db40:	898a      	ldrh	r2, [r1, #12]
 800db42:	e92d 41f0 	stmdb	sp!, {r4, r5, r6, r7, r8, lr}
 800db46:	4605      	mov	r5, r0
 800db48:	0710      	lsls	r0, r2, #28
 800db4a:	460c      	mov	r4, r1
 800db4c:	d458      	bmi.n	800dc00 <__sflush_r+0xc0>
 800db4e:	684b      	ldr	r3, [r1, #4]
 800db50:	2b00      	cmp	r3, #0
 800db52:	dc05      	bgt.n	800db60 <__sflush_r+0x20>
 800db54:	6c0b      	ldr	r3, [r1, #64]	; 0x40
 800db56:	2b00      	cmp	r3, #0
 800db58:	dc02      	bgt.n	800db60 <__sflush_r+0x20>
 800db5a:	2000      	movs	r0, #0
 800db5c:	e8bd 81f0 	ldmia.w	sp!, {r4, r5, r6, r7, r8, pc}
 800db60:	6ae6      	ldr	r6, [r4, #44]	; 0x2c
 800db62:	2e00      	cmp	r6, #0
 800db64:	d0f9      	beq.n	800db5a <__sflush_r+0x1a>
 800db66:	2300      	movs	r3, #0
 800db68:	f412 5280 	ands.w	r2, r2, #4096	; 0x1000
 800db6c:	682f      	ldr	r7, [r5, #0]
 800db6e:	602b      	str	r3, [r5, #0]
 800db70:	d032      	beq.n	800dbd8 <__sflush_r+0x98>
 800db72:	6d60      	ldr	r0, [r4, #84]	; 0x54
 800db74:	89a3      	ldrh	r3, [r4, #12]
 800db76:	075a      	lsls	r2, r3, #29
 800db78:	d505      	bpl.n	800db86 <__sflush_r+0x46>
 800db7a:	6863      	ldr	r3, [r4, #4]
 800db7c:	1ac0      	subs	r0, r0, r3
 800db7e:	6b63      	ldr	r3, [r4, #52]	; 0x34
 800db80:	b10b      	cbz	r3, 800db86 <__sflush_r+0x46>
 800db82:	6c23      	ldr	r3, [r4, #64]	; 0x40
 800db84:	1ac0      	subs	r0, r0, r3
 800db86:	2300      	movs	r3, #0
 800db88:	4602      	mov	r2, r0
 800db8a:	6ae6      	ldr	r6, [r4, #44]	; 0x2c
 800db8c:	6a21      	ldr	r1, [r4, #32]
 800db8e:	4628      	mov	r0, r5
 800db90:	47b0      	blx	r6
 800db92:	1c43      	adds	r3, r0, #1
 800db94:	89a3      	ldrh	r3, [r4, #12]
 800db96:	d106      	bne.n	800dba6 <__sflush_r+0x66>
 800db98:	6829      	ldr	r1, [r5, #0]
 800db9a:	291d      	cmp	r1, #29
 800db9c:	d82c      	bhi.n	800dbf8 <__sflush_r+0xb8>
 800db9e:	4a2a      	ldr	r2, [pc, #168]	; (800dc48 <__sflush_r+0x108>)
 800dba0:	40ca      	lsrs	r2, r1
 800dba2:	07d6      	lsls	r6, r2, #31
 800dba4:	d528      	bpl.n	800dbf8 <__sflush_r+0xb8>
 800dba6:	2200      	movs	r2, #0
 800dba8:	6062      	str	r2, [r4, #4]
 800dbaa:	04d9      	lsls	r1, r3, #19
 800dbac:	6922      	ldr	r2, [r4, #16]
 800dbae:	6022      	str	r2, [r4, #0]
 800dbb0:	d504      	bpl.n	800dbbc <__sflush_r+0x7c>
 800dbb2:	1c42      	adds	r2, r0, #1
 800dbb4:	d101      	bne.n	800dbba <__sflush_r+0x7a>
 800dbb6:	682b      	ldr	r3, [r5, #0]
 800dbb8:	b903      	cbnz	r3, 800dbbc <__sflush_r+0x7c>
 800dbba:	6560      	str	r0, [r4, #84]	; 0x54
 800dbbc:	6b61      	ldr	r1, [r4, #52]	; 0x34
 800dbbe:	602f      	str	r7, [r5, #0]
 800dbc0:	2900      	cmp	r1, #0
 800dbc2:	d0ca      	beq.n	800db5a <__sflush_r+0x1a>
 800dbc4:	f104 0344 	add.w	r3, r4, #68	; 0x44
 800dbc8:	4299      	cmp	r1, r3
 800dbca:	d002      	beq.n	800dbd2 <__sflush_r+0x92>
 800dbcc:	4628      	mov	r0, r5
 800dbce:	f7ff fa9b 	bl	800d108 <_free_r>
 800dbd2:	2000      	movs	r0, #0
 800dbd4:	6360      	str	r0, [r4, #52]	; 0x34
 800dbd6:	e7c1      	b.n	800db5c <__sflush_r+0x1c>
 800dbd8:	6a21      	ldr	r1, [r4, #32]
 800dbda:	2301      	movs	r3, #1
 800dbdc:	4628      	mov	r0, r5
 800dbde:	47b0      	blx	r6
 800dbe0:	1c41      	adds	r1, r0, #1
 800dbe2:	d1c7      	bne.n	800db74 <__sflush_r+0x34>
 800dbe4:	682b      	ldr	r3, [r5, #0]
 800dbe6:	2b00      	cmp	r3, #0
 800dbe8:	d0c4      	beq.n	800db74 <__sflush_r+0x34>
 800dbea:	2b1d      	cmp	r3, #29
 800dbec:	d001      	beq.n	800dbf2 <__sflush_r+0xb2>
 800dbee:	2b16      	cmp	r3, #22
 800dbf0:	d101      	bne.n	800dbf6 <__sflush_r+0xb6>
 800dbf2:	602f      	str	r7, [r5, #0]
 800dbf4:	e7b1      	b.n	800db5a <__sflush_r+0x1a>
 800dbf6:	89a3      	ldrh	r3, [r4, #12]
 800dbf8:	f043 0340 	orr.w	r3, r3, #64	; 0x40
 800dbfc:	81a3      	strh	r3, [r4, #12]
 800dbfe:	e7ad      	b.n	800db5c <__sflush_r+0x1c>
 800dc00:	690f      	ldr	r7, [r1, #16]
 800dc02:	2f00      	cmp	r7, #0
 800dc04:	d0a9      	beq.n	800db5a <__sflush_r+0x1a>
 800dc06:	0793      	lsls	r3, r2, #30
 800dc08:	680e      	ldr	r6, [r1, #0]
 800dc0a:	bf08      	it	eq
 800dc0c:	694b      	ldreq	r3, [r1, #20]
 800dc0e:	600f      	str	r7, [r1, #0]
 800dc10:	bf18      	it	ne
 800dc12:	2300      	movne	r3, #0
 800dc14:	eba6 0807 	sub.w	r8, r6, r7
 800dc18:	608b      	str	r3, [r1, #8]
 800dc1a:	f1b8 0f00 	cmp.w	r8, #0
 800dc1e:	dd9c      	ble.n	800db5a <__sflush_r+0x1a>
 800dc20:	6a21      	ldr	r1, [r4, #32]
 800dc22:	6aa6      	ldr	r6, [r4, #40]	; 0x28
 800dc24:	4643      	mov	r3, r8
 800dc26:	463a      	mov	r2, r7
 800dc28:	4628      	mov	r0, r5
 800dc2a:	47b0      	blx	r6
 800dc2c:	2800      	cmp	r0, #0
 800dc2e:	dc06      	bgt.n	800dc3e <__sflush_r+0xfe>
 800dc30:	89a3      	ldrh	r3, [r4, #12]
 800dc32:	f043 0340 	orr.w	r3, r3, #64	; 0x40
 800dc36:	81a3      	strh	r3, [r4, #12]
 800dc38:	f04f 30ff 	mov.w	r0, #4294967295
 800dc3c:	e78e      	b.n	800db5c <__sflush_r+0x1c>
 800dc3e:	4407      	add	r7, r0
 800dc40:	eba8 0800 	sub.w	r8, r8, r0
 800dc44:	e7e9      	b.n	800dc1a <__sflush_r+0xda>
 800dc46:	bf00      	nop
 800dc48:	20400001 	.word	0x20400001

0800dc4c <_fflush_r>:
 800dc4c:	b538      	push	{r3, r4, r5, lr}
 800dc4e:	690b      	ldr	r3, [r1, #16]
 800dc50:	4605      	mov	r5, r0
 800dc52:	460c      	mov	r4, r1
 800dc54:	b913      	cbnz	r3, 800dc5c <_fflush_r+0x10>
 800dc56:	2500      	movs	r5, #0
 800dc58:	4628      	mov	r0, r5
 800dc5a:	bd38      	pop	{r3, r4, r5, pc}
 800dc5c:	b118      	cbz	r0, 800dc66 <_fflush_r+0x1a>
 800dc5e:	6983      	ldr	r3, [r0, #24]
 800dc60:	b90b      	cbnz	r3, 800dc66 <_fflush_r+0x1a>
 800dc62:	f000 f887 	bl	800dd74 <__sinit>
 800dc66:	4b14      	ldr	r3, [pc, #80]	; (800dcb8 <_fflush_r+0x6c>)
 800dc68:	429c      	cmp	r4, r3
 800dc6a:	d11b      	bne.n	800dca4 <_fflush_r+0x58>
 800dc6c:	686c      	ldr	r4, [r5, #4]
 800dc6e:	f9b4 300c 	ldrsh.w	r3, [r4, #12]
 800dc72:	2b00      	cmp	r3, #0
 800dc74:	d0ef      	beq.n	800dc56 <_fflush_r+0xa>
 800dc76:	6e62      	ldr	r2, [r4, #100]	; 0x64
 800dc78:	07d0      	lsls	r0, r2, #31
 800dc7a:	d404      	bmi.n	800dc86 <_fflush_r+0x3a>
 800dc7c:	0599      	lsls	r1, r3, #22
 800dc7e:	d402      	bmi.n	800dc86 <_fflush_r+0x3a>
 800dc80:	6da0      	ldr	r0, [r4, #88]	; 0x58
 800dc82:	f000 f915 	bl	800deb0 <__retarget_lock_acquire_recursive>
 800dc86:	4628      	mov	r0, r5
 800dc88:	4621      	mov	r1, r4
 800dc8a:	f7ff ff59 	bl	800db40 <__sflush_r>
 800dc8e:	6e63      	ldr	r3, [r4, #100]	; 0x64
 800dc90:	07da      	lsls	r2, r3, #31
 800dc92:	4605      	mov	r5, r0
 800dc94:	d4e0      	bmi.n	800dc58 <_fflush_r+0xc>
 800dc96:	89a3      	ldrh	r3, [r4, #12]
 800dc98:	059b      	lsls	r3, r3, #22
 800dc9a:	d4dd      	bmi.n	800dc58 <_fflush_r+0xc>
 800dc9c:	6da0      	ldr	r0, [r4, #88]	; 0x58
 800dc9e:	f000 f908 	bl	800deb2 <__retarget_lock_release_recursive>
 800dca2:	e7d9      	b.n	800dc58 <_fflush_r+0xc>
 800dca4:	4b05      	ldr	r3, [pc, #20]	; (800dcbc <_fflush_r+0x70>)
 800dca6:	429c      	cmp	r4, r3
 800dca8:	d101      	bne.n	800dcae <_fflush_r+0x62>
 800dcaa:	68ac      	ldr	r4, [r5, #8]
 800dcac:	e7df      	b.n	800dc6e <_fflush_r+0x22>
 800dcae:	4b04      	ldr	r3, [pc, #16]	; (800dcc0 <_fflush_r+0x74>)
 800dcb0:	429c      	cmp	r4, r3
 800dcb2:	bf08      	it	eq
 800dcb4:	68ec      	ldreq	r4, [r5, #12]
 800dcb6:	e7da      	b.n	800dc6e <_fflush_r+0x22>
 800dcb8:	0800f174 	.word	0x0800f174
 800dcbc:	0800f194 	.word	0x0800f194
 800dcc0:	0800f154 	.word	0x0800f154

0800dcc4 <std>:
 800dcc4:	2300      	movs	r3, #0
 800dcc6:	b510      	push	{r4, lr}
 800dcc8:	4604      	mov	r4, r0
 800dcca:	e9c0 3300 	strd	r3, r3, [r0]
 800dcce:	e9c0 3304 	strd	r3, r3, [r0, #16]
 800dcd2:	6083      	str	r3, [r0, #8]
 800dcd4:	8181      	strh	r1, [r0, #12]
 800dcd6:	6643      	str	r3, [r0, #100]	; 0x64
 800dcd8:	81c2      	strh	r2, [r0, #14]
 800dcda:	6183      	str	r3, [r0, #24]
 800dcdc:	4619      	mov	r1, r3
 800dcde:	2208      	movs	r2, #8
 800dce0:	305c      	adds	r0, #92	; 0x5c
 800dce2:	f7fb fddd 	bl	80098a0 <memset>
 800dce6:	4b05      	ldr	r3, [pc, #20]	; (800dcfc <std+0x38>)
 800dce8:	6263      	str	r3, [r4, #36]	; 0x24
 800dcea:	4b05      	ldr	r3, [pc, #20]	; (800dd00 <std+0x3c>)
 800dcec:	62a3      	str	r3, [r4, #40]	; 0x28
 800dcee:	4b05      	ldr	r3, [pc, #20]	; (800dd04 <std+0x40>)
 800dcf0:	62e3      	str	r3, [r4, #44]	; 0x2c
 800dcf2:	4b05      	ldr	r3, [pc, #20]	; (800dd08 <std+0x44>)
 800dcf4:	6224      	str	r4, [r4, #32]
 800dcf6:	6323      	str	r3, [r4, #48]	; 0x30
 800dcf8:	bd10      	pop	{r4, pc}
 800dcfa:	bf00      	nop
 800dcfc:	0800e019 	.word	0x0800e019
 800dd00:	0800e03b 	.word	0x0800e03b
 800dd04:	0800e073 	.word	0x0800e073
 800dd08:	0800e097 	.word	0x0800e097

0800dd0c <_cleanup_r>:
 800dd0c:	4901      	ldr	r1, [pc, #4]	; (800dd14 <_cleanup_r+0x8>)
 800dd0e:	f000 b8af 	b.w	800de70 <_fwalk_reent>
 800dd12:	bf00      	nop
 800dd14:	0800dc4d 	.word	0x0800dc4d

0800dd18 <__sfmoreglue>:
 800dd18:	b570      	push	{r4, r5, r6, lr}
 800dd1a:	2268      	movs	r2, #104	; 0x68
 800dd1c:	1e4d      	subs	r5, r1, #1
 800dd1e:	4355      	muls	r5, r2
 800dd20:	460e      	mov	r6, r1
 800dd22:	f105 0174 	add.w	r1, r5, #116	; 0x74
 800dd26:	f7ff fa5b 	bl	800d1e0 <_malloc_r>
 800dd2a:	4604      	mov	r4, r0
 800dd2c:	b140      	cbz	r0, 800dd40 <__sfmoreglue+0x28>
 800dd2e:	2100      	movs	r1, #0
 800dd30:	e9c0 1600 	strd	r1, r6, [r0]
 800dd34:	300c      	adds	r0, #12
 800dd36:	60a0      	str	r0, [r4, #8]
 800dd38:	f105 0268 	add.w	r2, r5, #104	; 0x68
 800dd3c:	f7fb fdb0 	bl	80098a0 <memset>
 800dd40:	4620      	mov	r0, r4
 800dd42:	bd70      	pop	{r4, r5, r6, pc}

0800dd44 <__sfp_lock_acquire>:
 800dd44:	4801      	ldr	r0, [pc, #4]	; (800dd4c <__sfp_lock_acquire+0x8>)
 800dd46:	f000 b8b3 	b.w	800deb0 <__retarget_lock_acquire_recursive>
 800dd4a:	bf00      	nop
 800dd4c:	200063c1 	.word	0x200063c1

0800dd50 <__sfp_lock_release>:
 800dd50:	4801      	ldr	r0, [pc, #4]	; (800dd58 <__sfp_lock_release+0x8>)
 800dd52:	f000 b8ae 	b.w	800deb2 <__retarget_lock_release_recursive>
 800dd56:	bf00      	nop
 800dd58:	200063c1 	.word	0x200063c1

0800dd5c <__sinit_lock_acquire>:
 800dd5c:	4801      	ldr	r0, [pc, #4]	; (800dd64 <__sinit_lock_acquire+0x8>)
 800dd5e:	f000 b8a7 	b.w	800deb0 <__retarget_lock_acquire_recursive>
 800dd62:	bf00      	nop
 800dd64:	200063c2 	.word	0x200063c2

0800dd68 <__sinit_lock_release>:
 800dd68:	4801      	ldr	r0, [pc, #4]	; (800dd70 <__sinit_lock_release+0x8>)
 800dd6a:	f000 b8a2 	b.w	800deb2 <__retarget_lock_release_recursive>
 800dd6e:	bf00      	nop
 800dd70:	200063c2 	.word	0x200063c2

0800dd74 <__sinit>:
 800dd74:	b510      	push	{r4, lr}
 800dd76:	4604      	mov	r4, r0
 800dd78:	f7ff fff0 	bl	800dd5c <__sinit_lock_acquire>
 800dd7c:	69a3      	ldr	r3, [r4, #24]
 800dd7e:	b11b      	cbz	r3, 800dd88 <__sinit+0x14>
 800dd80:	e8bd 4010 	ldmia.w	sp!, {r4, lr}
 800dd84:	f7ff bff0 	b.w	800dd68 <__sinit_lock_release>
 800dd88:	e9c4 3312 	strd	r3, r3, [r4, #72]	; 0x48
 800dd8c:	6523      	str	r3, [r4, #80]	; 0x50
 800dd8e:	4b13      	ldr	r3, [pc, #76]	; (800dddc <__sinit+0x68>)
 800dd90:	4a13      	ldr	r2, [pc, #76]	; (800dde0 <__sinit+0x6c>)
 800dd92:	681b      	ldr	r3, [r3, #0]
 800dd94:	62a2      	str	r2, [r4, #40]	; 0x28
 800dd96:	42a3      	cmp	r3, r4
 800dd98:	bf04      	itt	eq
 800dd9a:	2301      	moveq	r3, #1
 800dd9c:	61a3      	streq	r3, [r4, #24]
 800dd9e:	4620      	mov	r0, r4
 800dda0:	f000 f820 	bl	800dde4 <__sfp>
 800dda4:	6060      	str	r0, [r4, #4]
 800dda6:	4620      	mov	r0, r4
 800dda8:	f000 f81c 	bl	800dde4 <__sfp>
 800ddac:	60a0      	str	r0, [r4, #8]
 800ddae:	4620      	mov	r0, r4
 800ddb0:	f000 f818 	bl	800dde4 <__sfp>
 800ddb4:	2200      	movs	r2, #0
 800ddb6:	60e0      	str	r0, [r4, #12]
 800ddb8:	2104      	movs	r1, #4
 800ddba:	6860      	ldr	r0, [r4, #4]
 800ddbc:	f7ff ff82 	bl	800dcc4 <std>
 800ddc0:	68a0      	ldr	r0, [r4, #8]
 800ddc2:	2201      	movs	r2, #1
 800ddc4:	2109      	movs	r1, #9
 800ddc6:	f7ff ff7d 	bl	800dcc4 <std>
 800ddca:	68e0      	ldr	r0, [r4, #12]
 800ddcc:	2202      	movs	r2, #2
 800ddce:	2112      	movs	r1, #18
 800ddd0:	f7ff ff78 	bl	800dcc4 <std>
 800ddd4:	2301      	movs	r3, #1
 800ddd6:	61a3      	str	r3, [r4, #24]
 800ddd8:	e7d2      	b.n	800dd80 <__sinit+0xc>
 800ddda:	bf00      	nop
 800dddc:	0800ed10 	.word	0x0800ed10
 800dde0:	0800dd0d 	.word	0x0800dd0d

0800dde4 <__sfp>:
 800dde4:	b5f8      	push	{r3, r4, r5, r6, r7, lr}
 800dde6:	4607      	mov	r7, r0
 800dde8:	f7ff ffac 	bl	800dd44 <__sfp_lock_acquire>
 800ddec:	4b1e      	ldr	r3, [pc, #120]	; (800de68 <__sfp+0x84>)
 800ddee:	681e      	ldr	r6, [r3, #0]
 800ddf0:	69b3      	ldr	r3, [r6, #24]
 800ddf2:	b913      	cbnz	r3, 800ddfa <__sfp+0x16>
 800ddf4:	4630      	mov	r0, r6
 800ddf6:	f7ff ffbd 	bl	800dd74 <__sinit>
 800ddfa:	3648      	adds	r6, #72	; 0x48
 800ddfc:	e9d6 3401 	ldrd	r3, r4, [r6, #4]
 800de00:	3b01      	subs	r3, #1
 800de02:	d503      	bpl.n	800de0c <__sfp+0x28>
 800de04:	6833      	ldr	r3, [r6, #0]
 800de06:	b30b      	cbz	r3, 800de4c <__sfp+0x68>
 800de08:	6836      	ldr	r6, [r6, #0]
 800de0a:	e7f7      	b.n	800ddfc <__sfp+0x18>
 800de0c:	f9b4 500c 	ldrsh.w	r5, [r4, #12]
 800de10:	b9d5      	cbnz	r5, 800de48 <__sfp+0x64>
 800de12:	4b16      	ldr	r3, [pc, #88]	; (800de6c <__sfp+0x88>)
 800de14:	60e3      	str	r3, [r4, #12]
 800de16:	f104 0058 	add.w	r0, r4, #88	; 0x58
 800de1a:	6665      	str	r5, [r4, #100]	; 0x64
 800de1c:	f000 f847 	bl	800deae <__retarget_lock_init_recursive>
 800de20:	f7ff ff96 	bl	800dd50 <__sfp_lock_release>
 800de24:	e9c4 5501 	strd	r5, r5, [r4, #4]
 800de28:	e9c4 5504 	strd	r5, r5, [r4, #16]
 800de2c:	6025      	str	r5, [r4, #0]
 800de2e:	61a5      	str	r5, [r4, #24]
 800de30:	2208      	movs	r2, #8
 800de32:	4629      	mov	r1, r5
 800de34:	f104 005c 	add.w	r0, r4, #92	; 0x5c
 800de38:	f7fb fd32 	bl	80098a0 <memset>
 800de3c:	e9c4 550d 	strd	r5, r5, [r4, #52]	; 0x34
 800de40:	e9c4 5512 	strd	r5, r5, [r4, #72]	; 0x48
 800de44:	4620      	mov	r0, r4
 800de46:	bdf8      	pop	{r3, r4, r5, r6, r7, pc}
 800de48:	3468      	adds	r4, #104	; 0x68
 800de4a:	e7d9      	b.n	800de00 <__sfp+0x1c>
 800de4c:	2104      	movs	r1, #4
 800de4e:	4638      	mov	r0, r7
 800de50:	f7ff ff62 	bl	800dd18 <__sfmoreglue>
 800de54:	4604      	mov	r4, r0
 800de56:	6030      	str	r0, [r6, #0]
 800de58:	2800      	cmp	r0, #0
 800de5a:	d1d5      	bne.n	800de08 <__sfp+0x24>
 800de5c:	f7ff ff78 	bl	800dd50 <__sfp_lock_release>
 800de60:	230c      	movs	r3, #12
 800de62:	603b      	str	r3, [r7, #0]
 800de64:	e7ee      	b.n	800de44 <__sfp+0x60>
 800de66:	bf00      	nop
 800de68:	0800ed10 	.word	0x0800ed10
 800de6c:	ffff0001 	.word	0xffff0001

0800de70 <_fwalk_reent>:
 800de70:	e92d 43f8 	stmdb	sp!, {r3, r4, r5, r6, r7, r8, r9, lr}
 800de74:	4606      	mov	r6, r0
 800de76:	4688      	mov	r8, r1
 800de78:	f100 0448 	add.w	r4, r0, #72	; 0x48
 800de7c:	2700      	movs	r7, #0
 800de7e:	e9d4 9501 	ldrd	r9, r5, [r4, #4]
 800de82:	f1b9 0901 	subs.w	r9, r9, #1
 800de86:	d505      	bpl.n	800de94 <_fwalk_reent+0x24>
 800de88:	6824      	ldr	r4, [r4, #0]
 800de8a:	2c00      	cmp	r4, #0
 800de8c:	d1f7      	bne.n	800de7e <_fwalk_reent+0xe>
 800de8e:	4638      	mov	r0, r7
 800de90:	e8bd 83f8 	ldmia.w	sp!, {r3, r4, r5, r6, r7, r8, r9, pc}
 800de94:	89ab      	ldrh	r3, [r5, #12]
 800de96:	2b01      	cmp	r3, #1
 800de98:	d907      	bls.n	800deaa <_fwalk_reent+0x3a>
 800de9a:	f9b5 300e 	ldrsh.w	r3, [r5, #14]
 800de9e:	3301      	adds	r3, #1
 800dea0:	d003      	beq.n	800deaa <_fwalk_reent+0x3a>
 800dea2:	4629      	mov	r1, r5
 800dea4:	4630      	mov	r0, r6
 800dea6:	47c0      	blx	r8
 800dea8:	4307      	orrs	r7, r0
 800deaa:	3568      	adds	r5, #104	; 0x68
 800deac:	e7e9      	b.n	800de82 <_fwalk_reent+0x12>

0800deae <__retarget_lock_init_recursive>:
 800deae:	4770      	bx	lr

0800deb0 <__retarget_lock_acquire_recursive>:
 800deb0:	4770      	bx	lr

0800deb2 <__retarget_lock_release_recursive>:
 800deb2:	4770      	bx	lr

0800deb4 <__swhatbuf_r>:
 800deb4:	b570      	push	{r4, r5, r6, lr}
 800deb6:	460e      	mov	r6, r1
 800deb8:	f9b1 100e 	ldrsh.w	r1, [r1, #14]
 800debc:	2900      	cmp	r1, #0
 800debe:	b096      	sub	sp, #88	; 0x58
 800dec0:	4614      	mov	r4, r2
 800dec2:	461d      	mov	r5, r3
 800dec4:	da08      	bge.n	800ded8 <__swhatbuf_r+0x24>
 800dec6:	f9b6 300c 	ldrsh.w	r3, [r6, #12]
 800deca:	2200      	movs	r2, #0
 800decc:	602a      	str	r2, [r5, #0]
 800dece:	061a      	lsls	r2, r3, #24
 800ded0:	d410      	bmi.n	800def4 <__swhatbuf_r+0x40>
 800ded2:	f44f 6380 	mov.w	r3, #1024	; 0x400
 800ded6:	e00e      	b.n	800def6 <__swhatbuf_r+0x42>
 800ded8:	466a      	mov	r2, sp
 800deda:	f000 f903 	bl	800e0e4 <_fstat_r>
 800dede:	2800      	cmp	r0, #0
 800dee0:	dbf1      	blt.n	800dec6 <__swhatbuf_r+0x12>
 800dee2:	9a01      	ldr	r2, [sp, #4]
 800dee4:	f402 4270 	and.w	r2, r2, #61440	; 0xf000
 800dee8:	f5a2 5300 	sub.w	r3, r2, #8192	; 0x2000
 800deec:	425a      	negs	r2, r3
 800deee:	415a      	adcs	r2, r3
 800def0:	602a      	str	r2, [r5, #0]
 800def2:	e7ee      	b.n	800ded2 <__swhatbuf_r+0x1e>
 800def4:	2340      	movs	r3, #64	; 0x40
 800def6:	2000      	movs	r0, #0
 800def8:	6023      	str	r3, [r4, #0]
 800defa:	b016      	add	sp, #88	; 0x58
 800defc:	bd70      	pop	{r4, r5, r6, pc}
	...

0800df00 <__smakebuf_r>:
 800df00:	898b      	ldrh	r3, [r1, #12]
 800df02:	b573      	push	{r0, r1, r4, r5, r6, lr}
 800df04:	079d      	lsls	r5, r3, #30
 800df06:	4606      	mov	r6, r0
 800df08:	460c      	mov	r4, r1
 800df0a:	d507      	bpl.n	800df1c <__smakebuf_r+0x1c>
 800df0c:	f104 0347 	add.w	r3, r4, #71	; 0x47
 800df10:	6023      	str	r3, [r4, #0]
 800df12:	6123      	str	r3, [r4, #16]
 800df14:	2301      	movs	r3, #1
 800df16:	6163      	str	r3, [r4, #20]
 800df18:	b002      	add	sp, #8
 800df1a:	bd70      	pop	{r4, r5, r6, pc}
 800df1c:	ab01      	add	r3, sp, #4
 800df1e:	466a      	mov	r2, sp
 800df20:	f7ff ffc8 	bl	800deb4 <__swhatbuf_r>
 800df24:	9900      	ldr	r1, [sp, #0]
 800df26:	4605      	mov	r5, r0
 800df28:	4630      	mov	r0, r6
 800df2a:	f7ff f959 	bl	800d1e0 <_malloc_r>
 800df2e:	b948      	cbnz	r0, 800df44 <__smakebuf_r+0x44>
 800df30:	f9b4 300c 	ldrsh.w	r3, [r4, #12]
 800df34:	059a      	lsls	r2, r3, #22
 800df36:	d4ef      	bmi.n	800df18 <__smakebuf_r+0x18>
 800df38:	f023 0303 	bic.w	r3, r3, #3
 800df3c:	f043 0302 	orr.w	r3, r3, #2
 800df40:	81a3      	strh	r3, [r4, #12]
 800df42:	e7e3      	b.n	800df0c <__smakebuf_r+0xc>
 800df44:	4b0d      	ldr	r3, [pc, #52]	; (800df7c <__smakebuf_r+0x7c>)
 800df46:	62b3      	str	r3, [r6, #40]	; 0x28
 800df48:	89a3      	ldrh	r3, [r4, #12]
 800df4a:	6020      	str	r0, [r4, #0]
 800df4c:	f043 0380 	orr.w	r3, r3, #128	; 0x80
 800df50:	81a3      	strh	r3, [r4, #12]
 800df52:	9b00      	ldr	r3, [sp, #0]
 800df54:	6163      	str	r3, [r4, #20]
 800df56:	9b01      	ldr	r3, [sp, #4]
 800df58:	6120      	str	r0, [r4, #16]
 800df5a:	b15b      	cbz	r3, 800df74 <__smakebuf_r+0x74>
 800df5c:	f9b4 100e 	ldrsh.w	r1, [r4, #14]
 800df60:	4630      	mov	r0, r6
 800df62:	f000 f8d1 	bl	800e108 <_isatty_r>
 800df66:	b128      	cbz	r0, 800df74 <__smakebuf_r+0x74>
 800df68:	89a3      	ldrh	r3, [r4, #12]
 800df6a:	f023 0303 	bic.w	r3, r3, #3
 800df6e:	f043 0301 	orr.w	r3, r3, #1
 800df72:	81a3      	strh	r3, [r4, #12]
 800df74:	89a0      	ldrh	r0, [r4, #12]
 800df76:	4305      	orrs	r5, r0
 800df78:	81a5      	strh	r5, [r4, #12]
 800df7a:	e7cd      	b.n	800df18 <__smakebuf_r+0x18>
 800df7c:	0800dd0d 	.word	0x0800dd0d

0800df80 <_malloc_usable_size_r>:
 800df80:	f851 3c04 	ldr.w	r3, [r1, #-4]
 800df84:	1f18      	subs	r0, r3, #4
 800df86:	2b00      	cmp	r3, #0
 800df88:	bfbc      	itt	lt
 800df8a:	580b      	ldrlt	r3, [r1, r0]
 800df8c:	18c0      	addlt	r0, r0, r3
 800df8e:	4770      	bx	lr

0800df90 <_raise_r>:
 800df90:	291f      	cmp	r1, #31
 800df92:	b538      	push	{r3, r4, r5, lr}
 800df94:	4604      	mov	r4, r0
 800df96:	460d      	mov	r5, r1
 800df98:	d904      	bls.n	800dfa4 <_raise_r+0x14>
 800df9a:	2316      	movs	r3, #22
 800df9c:	6003      	str	r3, [r0, #0]
 800df9e:	f04f 30ff 	mov.w	r0, #4294967295
 800dfa2:	bd38      	pop	{r3, r4, r5, pc}
 800dfa4:	6c42      	ldr	r2, [r0, #68]	; 0x44
 800dfa6:	b112      	cbz	r2, 800dfae <_raise_r+0x1e>
 800dfa8:	f852 3021 	ldr.w	r3, [r2, r1, lsl #2]
 800dfac:	b94b      	cbnz	r3, 800dfc2 <_raise_r+0x32>
 800dfae:	4620      	mov	r0, r4
 800dfb0:	f000 f830 	bl	800e014 <_getpid_r>
 800dfb4:	462a      	mov	r2, r5
 800dfb6:	4601      	mov	r1, r0
 800dfb8:	4620      	mov	r0, r4
 800dfba:	e8bd 4038 	ldmia.w	sp!, {r3, r4, r5, lr}
 800dfbe:	f000 b817 	b.w	800dff0 <_kill_r>
 800dfc2:	2b01      	cmp	r3, #1
 800dfc4:	d00a      	beq.n	800dfdc <_raise_r+0x4c>
 800dfc6:	1c59      	adds	r1, r3, #1
 800dfc8:	d103      	bne.n	800dfd2 <_raise_r+0x42>
 800dfca:	2316      	movs	r3, #22
 800dfcc:	6003      	str	r3, [r0, #0]
 800dfce:	2001      	movs	r0, #1
 800dfd0:	e7e7      	b.n	800dfa2 <_raise_r+0x12>
 800dfd2:	2400      	movs	r4, #0
 800dfd4:	f842 4025 	str.w	r4, [r2, r5, lsl #2]
 800dfd8:	4628      	mov	r0, r5
 800dfda:	4798      	blx	r3
 800dfdc:	2000      	movs	r0, #0
 800dfde:	e7e0      	b.n	800dfa2 <_raise_r+0x12>

0800dfe0 <raise>:
 800dfe0:	4b02      	ldr	r3, [pc, #8]	; (800dfec <raise+0xc>)
 800dfe2:	4601      	mov	r1, r0
 800dfe4:	6818      	ldr	r0, [r3, #0]
 800dfe6:	f7ff bfd3 	b.w	800df90 <_raise_r>
 800dfea:	bf00      	nop
 800dfec:	20000014 	.word	0x20000014

0800dff0 <_kill_r>:
 800dff0:	b538      	push	{r3, r4, r5, lr}
 800dff2:	4d07      	ldr	r5, [pc, #28]	; (800e010 <_kill_r+0x20>)
 800dff4:	2300      	movs	r3, #0
 800dff6:	4604      	mov	r4, r0
 800dff8:	4608      	mov	r0, r1
 800dffa:	4611      	mov	r1, r2
 800dffc:	602b      	str	r3, [r5, #0]
 800dffe:	f7f6 fc75 	bl	80048ec <_kill>
 800e002:	1c43      	adds	r3, r0, #1
 800e004:	d102      	bne.n	800e00c <_kill_r+0x1c>
 800e006:	682b      	ldr	r3, [r5, #0]
 800e008:	b103      	cbz	r3, 800e00c <_kill_r+0x1c>
 800e00a:	6023      	str	r3, [r4, #0]
 800e00c:	bd38      	pop	{r3, r4, r5, pc}
 800e00e:	bf00      	nop
 800e010:	200063bc 	.word	0x200063bc

0800e014 <_getpid_r>:
 800e014:	f7f6 bc68 	b.w	80048e8 <_getpid>

0800e018 <__sread>:
 800e018:	b510      	push	{r4, lr}
 800e01a:	460c      	mov	r4, r1
 800e01c:	f9b1 100e 	ldrsh.w	r1, [r1, #14]
 800e020:	f000 f894 	bl	800e14c <_read_r>
 800e024:	2800      	cmp	r0, #0
 800e026:	bfab      	itete	ge
 800e028:	6d63      	ldrge	r3, [r4, #84]	; 0x54
 800e02a:	89a3      	ldrhlt	r3, [r4, #12]
 800e02c:	181b      	addge	r3, r3, r0
 800e02e:	f423 5380 	biclt.w	r3, r3, #4096	; 0x1000
 800e032:	bfac      	ite	ge
 800e034:	6563      	strge	r3, [r4, #84]	; 0x54
 800e036:	81a3      	strhlt	r3, [r4, #12]
 800e038:	bd10      	pop	{r4, pc}

0800e03a <__swrite>:
 800e03a:	e92d 41f0 	stmdb	sp!, {r4, r5, r6, r7, r8, lr}
 800e03e:	461f      	mov	r7, r3
 800e040:	898b      	ldrh	r3, [r1, #12]
 800e042:	05db      	lsls	r3, r3, #23
 800e044:	4605      	mov	r5, r0
 800e046:	460c      	mov	r4, r1
 800e048:	4616      	mov	r6, r2
 800e04a:	d505      	bpl.n	800e058 <__swrite+0x1e>
 800e04c:	f9b1 100e 	ldrsh.w	r1, [r1, #14]
 800e050:	2302      	movs	r3, #2
 800e052:	2200      	movs	r2, #0
 800e054:	f000 f868 	bl	800e128 <_lseek_r>
 800e058:	89a3      	ldrh	r3, [r4, #12]
 800e05a:	f9b4 100e 	ldrsh.w	r1, [r4, #14]
 800e05e:	f423 5380 	bic.w	r3, r3, #4096	; 0x1000
 800e062:	81a3      	strh	r3, [r4, #12]
 800e064:	4632      	mov	r2, r6
 800e066:	463b      	mov	r3, r7
 800e068:	4628      	mov	r0, r5
 800e06a:	e8bd 41f0 	ldmia.w	sp!, {r4, r5, r6, r7, r8, lr}
 800e06e:	f000 b817 	b.w	800e0a0 <_write_r>

0800e072 <__sseek>:
 800e072:	b510      	push	{r4, lr}
 800e074:	460c      	mov	r4, r1
 800e076:	f9b1 100e 	ldrsh.w	r1, [r1, #14]
 800e07a:	f000 f855 	bl	800e128 <_lseek_r>
 800e07e:	1c43      	adds	r3, r0, #1
 800e080:	89a3      	ldrh	r3, [r4, #12]
 800e082:	bf15      	itete	ne
 800e084:	6560      	strne	r0, [r4, #84]	; 0x54
 800e086:	f423 5380 	biceq.w	r3, r3, #4096	; 0x1000
 800e08a:	f443 5380 	orrne.w	r3, r3, #4096	; 0x1000
 800e08e:	81a3      	strheq	r3, [r4, #12]
 800e090:	bf18      	it	ne
 800e092:	81a3      	strhne	r3, [r4, #12]
 800e094:	bd10      	pop	{r4, pc}

0800e096 <__sclose>:
 800e096:	f9b1 100e 	ldrsh.w	r1, [r1, #14]
 800e09a:	f000 b813 	b.w	800e0c4 <_close_r>
	...

0800e0a0 <_write_r>:
 800e0a0:	b538      	push	{r3, r4, r5, lr}
 800e0a2:	4d07      	ldr	r5, [pc, #28]	; (800e0c0 <_write_r+0x20>)
 800e0a4:	4604      	mov	r4, r0
 800e0a6:	4608      	mov	r0, r1
 800e0a8:	4611      	mov	r1, r2
 800e0aa:	2200      	movs	r2, #0
 800e0ac:	602a      	str	r2, [r5, #0]
 800e0ae:	461a      	mov	r2, r3
 800e0b0:	f7f6 fc38 	bl	8004924 <_write>
 800e0b4:	1c43      	adds	r3, r0, #1
 800e0b6:	d102      	bne.n	800e0be <_write_r+0x1e>
 800e0b8:	682b      	ldr	r3, [r5, #0]
 800e0ba:	b103      	cbz	r3, 800e0be <_write_r+0x1e>
 800e0bc:	6023      	str	r3, [r4, #0]
 800e0be:	bd38      	pop	{r3, r4, r5, pc}
 800e0c0:	200063bc 	.word	0x200063bc

0800e0c4 <_close_r>:
 800e0c4:	b538      	push	{r3, r4, r5, lr}
 800e0c6:	4d06      	ldr	r5, [pc, #24]	; (800e0e0 <_close_r+0x1c>)
 800e0c8:	2300      	movs	r3, #0
 800e0ca:	4604      	mov	r4, r0
 800e0cc:	4608      	mov	r0, r1
 800e0ce:	602b      	str	r3, [r5, #0]
 800e0d0:	f7f6 fc36 	bl	8004940 <_close>
 800e0d4:	1c43      	adds	r3, r0, #1
 800e0d6:	d102      	bne.n	800e0de <_close_r+0x1a>
 800e0d8:	682b      	ldr	r3, [r5, #0]
 800e0da:	b103      	cbz	r3, 800e0de <_close_r+0x1a>
 800e0dc:	6023      	str	r3, [r4, #0]
 800e0de:	bd38      	pop	{r3, r4, r5, pc}
 800e0e0:	200063bc 	.word	0x200063bc

0800e0e4 <_fstat_r>:
 800e0e4:	b538      	push	{r3, r4, r5, lr}
 800e0e6:	4d07      	ldr	r5, [pc, #28]	; (800e104 <_fstat_r+0x20>)
 800e0e8:	2300      	movs	r3, #0
 800e0ea:	4604      	mov	r4, r0
 800e0ec:	4608      	mov	r0, r1
 800e0ee:	4611      	mov	r1, r2
 800e0f0:	602b      	str	r3, [r5, #0]
 800e0f2:	f7f6 fc28 	bl	8004946 <_fstat>
 800e0f6:	1c43      	adds	r3, r0, #1
 800e0f8:	d102      	bne.n	800e100 <_fstat_r+0x1c>
 800e0fa:	682b      	ldr	r3, [r5, #0]
 800e0fc:	b103      	cbz	r3, 800e100 <_fstat_r+0x1c>
 800e0fe:	6023      	str	r3, [r4, #0]
 800e100:	bd38      	pop	{r3, r4, r5, pc}
 800e102:	bf00      	nop
 800e104:	200063bc 	.word	0x200063bc

0800e108 <_isatty_r>:
 800e108:	b538      	push	{r3, r4, r5, lr}
 800e10a:	4d06      	ldr	r5, [pc, #24]	; (800e124 <_isatty_r+0x1c>)
 800e10c:	2300      	movs	r3, #0
 800e10e:	4604      	mov	r4, r0
 800e110:	4608      	mov	r0, r1
 800e112:	602b      	str	r3, [r5, #0]
 800e114:	f7f6 fc1c 	bl	8004950 <_isatty>
 800e118:	1c43      	adds	r3, r0, #1
 800e11a:	d102      	bne.n	800e122 <_isatty_r+0x1a>
 800e11c:	682b      	ldr	r3, [r5, #0]
 800e11e:	b103      	cbz	r3, 800e122 <_isatty_r+0x1a>
 800e120:	6023      	str	r3, [r4, #0]
 800e122:	bd38      	pop	{r3, r4, r5, pc}
 800e124:	200063bc 	.word	0x200063bc

0800e128 <_lseek_r>:
 800e128:	b538      	push	{r3, r4, r5, lr}
 800e12a:	4d07      	ldr	r5, [pc, #28]	; (800e148 <_lseek_r+0x20>)
 800e12c:	4604      	mov	r4, r0
 800e12e:	4608      	mov	r0, r1
 800e130:	4611      	mov	r1, r2
 800e132:	2200      	movs	r2, #0
 800e134:	602a      	str	r2, [r5, #0]
 800e136:	461a      	mov	r2, r3
 800e138:	f7f6 fc0c 	bl	8004954 <_lseek>
 800e13c:	1c43      	adds	r3, r0, #1
 800e13e:	d102      	bne.n	800e146 <_lseek_r+0x1e>
 800e140:	682b      	ldr	r3, [r5, #0]
 800e142:	b103      	cbz	r3, 800e146 <_lseek_r+0x1e>
 800e144:	6023      	str	r3, [r4, #0]
 800e146:	bd38      	pop	{r3, r4, r5, pc}
 800e148:	200063bc 	.word	0x200063bc

0800e14c <_read_r>:
 800e14c:	b538      	push	{r3, r4, r5, lr}
 800e14e:	4d07      	ldr	r5, [pc, #28]	; (800e16c <_read_r+0x20>)
 800e150:	4604      	mov	r4, r0
 800e152:	4608      	mov	r0, r1
 800e154:	4611      	mov	r1, r2
 800e156:	2200      	movs	r2, #0
 800e158:	602a      	str	r2, [r5, #0]
 800e15a:	461a      	mov	r2, r3
 800e15c:	f7f6 fbd4 	bl	8004908 <_read>
 800e160:	1c43      	adds	r3, r0, #1
 800e162:	d102      	bne.n	800e16a <_read_r+0x1e>
 800e164:	682b      	ldr	r3, [r5, #0]
 800e166:	b103      	cbz	r3, 800e16a <_read_r+0x1e>
 800e168:	6023      	str	r3, [r4, #0]
 800e16a:	bd38      	pop	{r3, r4, r5, pc}
 800e16c:	200063bc 	.word	0x200063bc

0800e170 <_init>:
 800e170:	b5f8      	push	{r3, r4, r5, r6, r7, lr}
 800e172:	bf00      	nop
 800e174:	bcf8      	pop	{r3, r4, r5, r6, r7}
 800e176:	bc08      	pop	{r3}
 800e178:	469e      	mov	lr, r3
 800e17a:	4770      	bx	lr

0800e17c <_fini>:
 800e17c:	b5f8      	push	{r3, r4, r5, r6, r7, lr}
 800e17e:	bf00      	nop
 800e180:	bcf8      	pop	{r3, r4, r5, r6, r7}
 800e182:	bc08      	pop	{r3}
 800e184:	469e      	mov	lr, r3
 800e186:	4770      	bx	lr
